ARM GAS  C:\Users\86390\AppData\Local\Temp\cc0lOyie.s 			page 1


   1              		.cpu cortex-m4
   2              		.arch armv7e-m
   3              		.fpu fpv4-sp-d16
   4              		.eabi_attribute 27, 1
   5              		.eabi_attribute 28, 1
   6              		.eabi_attribute 20, 1
   7              		.eabi_attribute 21, 1
   8              		.eabi_attribute 23, 3
   9              		.eabi_attribute 24, 1
  10              		.eabi_attribute 25, 1
  11              		.eabi_attribute 26, 1
  12              		.eabi_attribute 30, 1
  13              		.eabi_attribute 34, 1
  14              		.eabi_attribute 18, 4
  15              		.file	"oled.c"
  16              		.text
  17              	.Ltext0:
  18              		.cfi_sections	.debug_frame
  19              		.section	.text.OLED_WR_CMD,"ax",%progbits
  20              		.align	1
  21              		.global	OLED_WR_CMD
  22              		.syntax unified
  23              		.thumb
  24              		.thumb_func
  26              	OLED_WR_CMD:
  27              	.LVL0:
  28              	.LFB136:
  29              		.file 1 "E:/MCU_Project/stm32/Target_tracking/user/My_Peripheral/OLED/oled.c"
   1:E:/MCU_Project/stm32/Target_tracking/user/My_Peripheral/OLED\oled.c **** /*
   2:E:/MCU_Project/stm32/Target_tracking/user/My_Peripheral/OLED\oled.c ****  * oled.c
   3:E:/MCU_Project/stm32/Target_tracking/user/My_Peripheral/OLED\oled.c ****  *
   4:E:/MCU_Project/stm32/Target_tracking/user/My_Peripheral/OLED\oled.c ****  *  Created on: 2022年7月24日
   5:E:/MCU_Project/stm32/Target_tracking/user/My_Peripheral/OLED\oled.c ****  *      Author: Unicorn_Li
   6:E:/MCU_Project/stm32/Target_tracking/user/My_Peripheral/OLED\oled.c ****  */
   7:E:/MCU_Project/stm32/Target_tracking/user/My_Peripheral/OLED\oled.c **** #include "oled.h"
   8:E:/MCU_Project/stm32/Target_tracking/user/My_Peripheral/OLED\oled.c ****  
   9:E:/MCU_Project/stm32/Target_tracking/user/My_Peripheral/OLED\oled.c **** /**********************************************************
  10:E:/MCU_Project/stm32/Target_tracking/user/My_Peripheral/OLED\oled.c ****  * 初始化命令,根据芯片手册书写，详细步骤见上图以及注意事项
  11:E:/MCU_Project/stm32/Target_tracking/user/My_Peripheral/OLED\oled.c ****  ***********************************************************/
  12:E:/MCU_Project/stm32/Target_tracking/user/My_Peripheral/OLED\oled.c **** uint8_t CMD_Data[]={
  13:E:/MCU_Project/stm32/Target_tracking/user/My_Peripheral/OLED\oled.c **** 0xAE, 0xD5, 0x80, 0xA8, 0x3F, 0xD3, 0x00, 0x40,0xA1, 0xC8, 0xDA,
  14:E:/MCU_Project/stm32/Target_tracking/user/My_Peripheral/OLED\oled.c ****  
  15:E:/MCU_Project/stm32/Target_tracking/user/My_Peripheral/OLED\oled.c **** 0x12, 0x81, 0xCF, 0xD9, 0xF1, 0xDB, 0x40, 0xA4, 0xA6,0x8D, 0x14,
  16:E:/MCU_Project/stm32/Target_tracking/user/My_Peripheral/OLED\oled.c ****  
  17:E:/MCU_Project/stm32/Target_tracking/user/My_Peripheral/OLED\oled.c **** 0xAF};
  18:E:/MCU_Project/stm32/Target_tracking/user/My_Peripheral/OLED\oled.c ****  
  19:E:/MCU_Project/stm32/Target_tracking/user/My_Peripheral/OLED\oled.c **** 
  20:E:/MCU_Project/stm32/Target_tracking/user/My_Peripheral/OLED\oled.c **** 
  21:E:/MCU_Project/stm32/Target_tracking/user/My_Peripheral/OLED\oled.c **** 
  22:E:/MCU_Project/stm32/Target_tracking/user/My_Peripheral/OLED\oled.c **** /**
  23:E:/MCU_Project/stm32/Target_tracking/user/My_Peripheral/OLED\oled.c ****  * @function: void OLED_Init(void)
  24:E:/MCU_Project/stm32/Target_tracking/user/My_Peripheral/OLED\oled.c ****  * @description: OLED初始化
  25:E:/MCU_Project/stm32/Target_tracking/user/My_Peripheral/OLED\oled.c ****  * @return {*}
  26:E:/MCU_Project/stm32/Target_tracking/user/My_Peripheral/OLED\oled.c ****  */
  27:E:/MCU_Project/stm32/Target_tracking/user/My_Peripheral/OLED\oled.c **** void OLED_Init(void)
  28:E:/MCU_Project/stm32/Target_tracking/user/My_Peripheral/OLED\oled.c **** {
  29:E:/MCU_Project/stm32/Target_tracking/user/My_Peripheral/OLED\oled.c **** 	HAL_Delay(200);
ARM GAS  C:\Users\86390\AppData\Local\Temp\cc0lOyie.s 			page 2


  30:E:/MCU_Project/stm32/Target_tracking/user/My_Peripheral/OLED\oled.c ****  
  31:E:/MCU_Project/stm32/Target_tracking/user/My_Peripheral/OLED\oled.c **** 	uint8_t i = 0;
  32:E:/MCU_Project/stm32/Target_tracking/user/My_Peripheral/OLED\oled.c **** 	for(i=0; i<23; i++)
  33:E:/MCU_Project/stm32/Target_tracking/user/My_Peripheral/OLED\oled.c **** 	{
  34:E:/MCU_Project/stm32/Target_tracking/user/My_Peripheral/OLED\oled.c **** 		OLED_WR_CMD(CMD_Data[i]);
  35:E:/MCU_Project/stm32/Target_tracking/user/My_Peripheral/OLED\oled.c **** 	}
  36:E:/MCU_Project/stm32/Target_tracking/user/My_Peripheral/OLED\oled.c **** 	
  37:E:/MCU_Project/stm32/Target_tracking/user/My_Peripheral/OLED\oled.c **** }
  38:E:/MCU_Project/stm32/Target_tracking/user/My_Peripheral/OLED\oled.c ****  
  39:E:/MCU_Project/stm32/Target_tracking/user/My_Peripheral/OLED\oled.c **** /**
  40:E:/MCU_Project/stm32/Target_tracking/user/My_Peripheral/OLED\oled.c ****  * @function: void OLED_WR_CMD(uint8_t cmd)
  41:E:/MCU_Project/stm32/Target_tracking/user/My_Peripheral/OLED\oled.c ****  * @description: 向设备写控制命令
  42:E:/MCU_Project/stm32/Target_tracking/user/My_Peripheral/OLED\oled.c ****  * @param {uint8_t} cmd 芯片手册规定的命令
  43:E:/MCU_Project/stm32/Target_tracking/user/My_Peripheral/OLED\oled.c ****  * @return {*}
  44:E:/MCU_Project/stm32/Target_tracking/user/My_Peripheral/OLED\oled.c ****  */
  45:E:/MCU_Project/stm32/Target_tracking/user/My_Peripheral/OLED\oled.c **** void OLED_WR_CMD(uint8_t cmd)
  46:E:/MCU_Project/stm32/Target_tracking/user/My_Peripheral/OLED\oled.c **** {
  30              		.loc 1 46 1 view -0
  31              		.cfi_startproc
  32              		@ args = 0, pretend = 0, frame = 8
  33              		@ frame_needed = 0, uses_anonymous_args = 0
  34              		.loc 1 46 1 is_stmt 0 view .LVU1
  35 0000 00B5     		push	{lr}
  36              	.LCFI0:
  37              		.cfi_def_cfa_offset 4
  38              		.cfi_offset 14, -4
  39 0002 87B0     		sub	sp, sp, #28
  40              	.LCFI1:
  41              		.cfi_def_cfa_offset 32
  42 0004 8DF81700 		strb	r0, [sp, #23]
  47:E:/MCU_Project/stm32/Target_tracking/user/My_Peripheral/OLED\oled.c **** 	HAL_I2C_Mem_Write(&hi2c1 ,0x78,0x00,I2C_MEMADD_SIZE_8BIT,&cmd,1,0x100);
  43              		.loc 1 47 2 is_stmt 1 view .LVU2
  44 0008 4FF48073 		mov	r3, #256
  45 000c 0293     		str	r3, [sp, #8]
  46 000e 0123     		movs	r3, #1
  47 0010 0193     		str	r3, [sp, #4]
  48 0012 0DF11702 		add	r2, sp, #23
  49 0016 0092     		str	r2, [sp]
  50 0018 0022     		movs	r2, #0
  51 001a 7821     		movs	r1, #120
  52 001c 0248     		ldr	r0, .L3
  53              	.LVL1:
  54              		.loc 1 47 2 is_stmt 0 view .LVU3
  55 001e FFF7FEFF 		bl	HAL_I2C_Mem_Write
  56              	.LVL2:
  48:E:/MCU_Project/stm32/Target_tracking/user/My_Peripheral/OLED\oled.c **** }
  57              		.loc 1 48 1 view .LVU4
  58 0022 07B0     		add	sp, sp, #28
  59              	.LCFI2:
  60              		.cfi_def_cfa_offset 4
  61              		@ sp needed
  62 0024 5DF804FB 		ldr	pc, [sp], #4
  63              	.L4:
  64              		.align	2
  65              	.L3:
  66 0028 00000000 		.word	hi2c1
  67              		.cfi_endproc
ARM GAS  C:\Users\86390\AppData\Local\Temp\cc0lOyie.s 			page 3


  68              	.LFE136:
  70              		.section	.text.OLED_Init,"ax",%progbits
  71              		.align	1
  72              		.global	OLED_Init
  73              		.syntax unified
  74              		.thumb
  75              		.thumb_func
  77              	OLED_Init:
  78              	.LFB135:
  28:E:/MCU_Project/stm32/Target_tracking/user/My_Peripheral/OLED\oled.c **** 	HAL_Delay(200);
  79              		.loc 1 28 1 is_stmt 1 view -0
  80              		.cfi_startproc
  81              		@ args = 0, pretend = 0, frame = 0
  82              		@ frame_needed = 0, uses_anonymous_args = 0
  83 0000 10B5     		push	{r4, lr}
  84              	.LCFI3:
  85              		.cfi_def_cfa_offset 8
  86              		.cfi_offset 4, -8
  87              		.cfi_offset 14, -4
  29:E:/MCU_Project/stm32/Target_tracking/user/My_Peripheral/OLED\oled.c ****  
  88              		.loc 1 29 2 view .LVU6
  89 0002 C820     		movs	r0, #200
  90 0004 FFF7FEFF 		bl	HAL_Delay
  91              	.LVL3:
  31:E:/MCU_Project/stm32/Target_tracking/user/My_Peripheral/OLED\oled.c **** 	for(i=0; i<23; i++)
  92              		.loc 1 31 2 view .LVU7
  32:E:/MCU_Project/stm32/Target_tracking/user/My_Peripheral/OLED\oled.c **** 	{
  93              		.loc 1 32 2 view .LVU8
  32:E:/MCU_Project/stm32/Target_tracking/user/My_Peripheral/OLED\oled.c **** 	{
  94              		.loc 1 32 7 is_stmt 0 view .LVU9
  95 0008 0024     		movs	r4, #0
  32:E:/MCU_Project/stm32/Target_tracking/user/My_Peripheral/OLED\oled.c **** 	{
  96              		.loc 1 32 2 view .LVU10
  97 000a 05E0     		b	.L6
  98              	.LVL4:
  99              	.L7:
  34:E:/MCU_Project/stm32/Target_tracking/user/My_Peripheral/OLED\oled.c **** 	}
 100              		.loc 1 34 3 is_stmt 1 discriminator 3 view .LVU11
 101 000c 044B     		ldr	r3, .L9
 102 000e 185D     		ldrb	r0, [r3, r4]	@ zero_extendqisi2
 103 0010 FFF7FEFF 		bl	OLED_WR_CMD
 104              	.LVL5:
  32:E:/MCU_Project/stm32/Target_tracking/user/My_Peripheral/OLED\oled.c **** 	{
 105              		.loc 1 32 17 discriminator 3 view .LVU12
  32:E:/MCU_Project/stm32/Target_tracking/user/My_Peripheral/OLED\oled.c **** 	{
 106              		.loc 1 32 18 is_stmt 0 discriminator 3 view .LVU13
 107 0014 0134     		adds	r4, r4, #1
 108              	.LVL6:
  32:E:/MCU_Project/stm32/Target_tracking/user/My_Peripheral/OLED\oled.c **** 	{
 109              		.loc 1 32 18 discriminator 3 view .LVU14
 110 0016 E4B2     		uxtb	r4, r4
 111              	.LVL7:
 112              	.L6:
  32:E:/MCU_Project/stm32/Target_tracking/user/My_Peripheral/OLED\oled.c **** 	{
 113              		.loc 1 32 11 is_stmt 1 discriminator 1 view .LVU15
  32:E:/MCU_Project/stm32/Target_tracking/user/My_Peripheral/OLED\oled.c **** 	{
 114              		.loc 1 32 2 is_stmt 0 discriminator 1 view .LVU16
ARM GAS  C:\Users\86390\AppData\Local\Temp\cc0lOyie.s 			page 4


 115 0018 162C     		cmp	r4, #22
 116 001a F7D9     		bls	.L7
  37:E:/MCU_Project/stm32/Target_tracking/user/My_Peripheral/OLED\oled.c ****  
 117              		.loc 1 37 1 view .LVU17
 118 001c 10BD     		pop	{r4, pc}
 119              	.LVL8:
 120              	.L10:
  37:E:/MCU_Project/stm32/Target_tracking/user/My_Peripheral/OLED\oled.c ****  
 121              		.loc 1 37 1 view .LVU18
 122 001e 00BF     		.align	2
 123              	.L9:
 124 0020 00000000 		.word	.LANCHOR0
 125              		.cfi_endproc
 126              	.LFE135:
 128              		.section	.text.OLED_WR_DATA,"ax",%progbits
 129              		.align	1
 130              		.global	OLED_WR_DATA
 131              		.syntax unified
 132              		.thumb
 133              		.thumb_func
 135              	OLED_WR_DATA:
 136              	.LVL9:
 137              	.LFB137:
  49:E:/MCU_Project/stm32/Target_tracking/user/My_Peripheral/OLED\oled.c ****  
  50:E:/MCU_Project/stm32/Target_tracking/user/My_Peripheral/OLED\oled.c **** /**
  51:E:/MCU_Project/stm32/Target_tracking/user/My_Peripheral/OLED\oled.c ****  * @function: void OLED_WR_DATA(uint8_t data)
  52:E:/MCU_Project/stm32/Target_tracking/user/My_Peripheral/OLED\oled.c ****  * @description: 向设备写控制数据
  53:E:/MCU_Project/stm32/Target_tracking/user/My_Peripheral/OLED\oled.c ****  * @param {uint8_t} data 数据
  54:E:/MCU_Project/stm32/Target_tracking/user/My_Peripheral/OLED\oled.c ****  * @return {*}
  55:E:/MCU_Project/stm32/Target_tracking/user/My_Peripheral/OLED\oled.c ****  */
  56:E:/MCU_Project/stm32/Target_tracking/user/My_Peripheral/OLED\oled.c **** void OLED_WR_DATA(uint8_t data)
  57:E:/MCU_Project/stm32/Target_tracking/user/My_Peripheral/OLED\oled.c **** {
 138              		.loc 1 57 1 is_stmt 1 view -0
 139              		.cfi_startproc
 140              		@ args = 0, pretend = 0, frame = 8
 141              		@ frame_needed = 0, uses_anonymous_args = 0
 142              		.loc 1 57 1 is_stmt 0 view .LVU20
 143 0000 00B5     		push	{lr}
 144              	.LCFI4:
 145              		.cfi_def_cfa_offset 4
 146              		.cfi_offset 14, -4
 147 0002 87B0     		sub	sp, sp, #28
 148              	.LCFI5:
 149              		.cfi_def_cfa_offset 32
 150 0004 8DF81700 		strb	r0, [sp, #23]
  58:E:/MCU_Project/stm32/Target_tracking/user/My_Peripheral/OLED\oled.c **** 	HAL_I2C_Mem_Write(&hi2c1 ,0x78,0x40,I2C_MEMADD_SIZE_8BIT,&data,1,0x100);
 151              		.loc 1 58 2 is_stmt 1 view .LVU21
 152 0008 4FF48073 		mov	r3, #256
 153 000c 0293     		str	r3, [sp, #8]
 154 000e 0123     		movs	r3, #1
 155 0010 0193     		str	r3, [sp, #4]
 156 0012 0DF11702 		add	r2, sp, #23
 157 0016 0092     		str	r2, [sp]
 158 0018 4022     		movs	r2, #64
 159 001a 7821     		movs	r1, #120
 160 001c 0248     		ldr	r0, .L13
 161              	.LVL10:
ARM GAS  C:\Users\86390\AppData\Local\Temp\cc0lOyie.s 			page 5


 162              		.loc 1 58 2 is_stmt 0 view .LVU22
 163 001e FFF7FEFF 		bl	HAL_I2C_Mem_Write
 164              	.LVL11:
  59:E:/MCU_Project/stm32/Target_tracking/user/My_Peripheral/OLED\oled.c **** }
 165              		.loc 1 59 1 view .LVU23
 166 0022 07B0     		add	sp, sp, #28
 167              	.LCFI6:
 168              		.cfi_def_cfa_offset 4
 169              		@ sp needed
 170 0024 5DF804FB 		ldr	pc, [sp], #4
 171              	.L14:
 172              		.align	2
 173              	.L13:
 174 0028 00000000 		.word	hi2c1
 175              		.cfi_endproc
 176              	.LFE137:
 178              		.section	.text.OLED_On,"ax",%progbits
 179              		.align	1
 180              		.global	OLED_On
 181              		.syntax unified
 182              		.thumb
 183              		.thumb_func
 185              	OLED_On:
 186              	.LFB138:
  60:E:/MCU_Project/stm32/Target_tracking/user/My_Peripheral/OLED\oled.c ****  
  61:E:/MCU_Project/stm32/Target_tracking/user/My_Peripheral/OLED\oled.c **** /**
  62:E:/MCU_Project/stm32/Target_tracking/user/My_Peripheral/OLED\oled.c ****  * @function: void OLED_On(void)
  63:E:/MCU_Project/stm32/Target_tracking/user/My_Peripheral/OLED\oled.c ****  * @description: 更新显示
  64:E:/MCU_Project/stm32/Target_tracking/user/My_Peripheral/OLED\oled.c ****  * @return {*}
  65:E:/MCU_Project/stm32/Target_tracking/user/My_Peripheral/OLED\oled.c ****  */
  66:E:/MCU_Project/stm32/Target_tracking/user/My_Peripheral/OLED\oled.c **** void OLED_On(void)
  67:E:/MCU_Project/stm32/Target_tracking/user/My_Peripheral/OLED\oled.c **** {
 187              		.loc 1 67 1 is_stmt 1 view -0
 188              		.cfi_startproc
 189              		@ args = 0, pretend = 0, frame = 0
 190              		@ frame_needed = 0, uses_anonymous_args = 0
 191 0000 38B5     		push	{r3, r4, r5, lr}
 192              	.LCFI7:
 193              		.cfi_def_cfa_offset 16
 194              		.cfi_offset 3, -16
 195              		.cfi_offset 4, -12
 196              		.cfi_offset 5, -8
 197              		.cfi_offset 14, -4
  68:E:/MCU_Project/stm32/Target_tracking/user/My_Peripheral/OLED\oled.c **** 	uint8_t i,n;
 198              		.loc 1 68 2 view .LVU25
  69:E:/MCU_Project/stm32/Target_tracking/user/My_Peripheral/OLED\oled.c **** 	for(i=0;i<8;i++)
 199              		.loc 1 69 2 view .LVU26
 200              	.LVL12:
 201              		.loc 1 69 7 is_stmt 0 view .LVU27
 202 0002 0025     		movs	r5, #0
 203              		.loc 1 69 2 view .LVU28
 204 0004 09E0     		b	.L16
 205              	.LVL13:
 206              	.L18:
  70:E:/MCU_Project/stm32/Target_tracking/user/My_Peripheral/OLED\oled.c **** 	{
  71:E:/MCU_Project/stm32/Target_tracking/user/My_Peripheral/OLED\oled.c **** 		OLED_WR_CMD(0xb0+i);    //设置页地址（0~7）
  72:E:/MCU_Project/stm32/Target_tracking/user/My_Peripheral/OLED\oled.c **** 		OLED_WR_CMD(0x00);      //设置显示位置―列低地址
ARM GAS  C:\Users\86390\AppData\Local\Temp\cc0lOyie.s 			page 6


  73:E:/MCU_Project/stm32/Target_tracking/user/My_Peripheral/OLED\oled.c **** 		OLED_WR_CMD(0x10);      //设置显示位置―列高地址
  74:E:/MCU_Project/stm32/Target_tracking/user/My_Peripheral/OLED\oled.c **** 		for(n=0;n<128;n++)
  75:E:/MCU_Project/stm32/Target_tracking/user/My_Peripheral/OLED\oled.c **** 			OLED_WR_DATA(1);
 207              		.loc 1 75 4 is_stmt 1 discriminator 3 view .LVU29
 208 0006 0120     		movs	r0, #1
 209 0008 FFF7FEFF 		bl	OLED_WR_DATA
 210              	.LVL14:
  74:E:/MCU_Project/stm32/Target_tracking/user/My_Peripheral/OLED\oled.c **** 			OLED_WR_DATA(1);
 211              		.loc 1 74 17 discriminator 3 view .LVU30
  74:E:/MCU_Project/stm32/Target_tracking/user/My_Peripheral/OLED\oled.c **** 			OLED_WR_DATA(1);
 212              		.loc 1 74 18 is_stmt 0 discriminator 3 view .LVU31
 213 000c 0134     		adds	r4, r4, #1
 214              	.LVL15:
  74:E:/MCU_Project/stm32/Target_tracking/user/My_Peripheral/OLED\oled.c **** 			OLED_WR_DATA(1);
 215              		.loc 1 74 18 discriminator 3 view .LVU32
 216 000e E4B2     		uxtb	r4, r4
 217              	.LVL16:
 218              	.L17:
  74:E:/MCU_Project/stm32/Target_tracking/user/My_Peripheral/OLED\oled.c **** 			OLED_WR_DATA(1);
 219              		.loc 1 74 11 is_stmt 1 discriminator 1 view .LVU33
  74:E:/MCU_Project/stm32/Target_tracking/user/My_Peripheral/OLED\oled.c **** 			OLED_WR_DATA(1);
 220              		.loc 1 74 3 is_stmt 0 discriminator 1 view .LVU34
 221 0010 14F0800F 		tst	r4, #128
 222 0014 F7D0     		beq	.L18
  69:E:/MCU_Project/stm32/Target_tracking/user/My_Peripheral/OLED\oled.c **** 	for(i=0;i<8;i++)
 223              		.loc 1 69 14 is_stmt 1 discriminator 2 view .LVU35
  69:E:/MCU_Project/stm32/Target_tracking/user/My_Peripheral/OLED\oled.c **** 	for(i=0;i<8;i++)
 224              		.loc 1 69 15 is_stmt 0 discriminator 2 view .LVU36
 225 0016 0135     		adds	r5, r5, #1
 226              	.LVL17:
  69:E:/MCU_Project/stm32/Target_tracking/user/My_Peripheral/OLED\oled.c **** 	for(i=0;i<8;i++)
 227              		.loc 1 69 15 discriminator 2 view .LVU37
 228 0018 EDB2     		uxtb	r5, r5
 229              	.LVL18:
 230              	.L16:
  69:E:/MCU_Project/stm32/Target_tracking/user/My_Peripheral/OLED\oled.c **** 	for(i=0;i<8;i++)
 231              		.loc 1 69 10 is_stmt 1 discriminator 1 view .LVU38
  69:E:/MCU_Project/stm32/Target_tracking/user/My_Peripheral/OLED\oled.c **** 	for(i=0;i<8;i++)
 232              		.loc 1 69 2 is_stmt 0 discriminator 1 view .LVU39
 233 001a 072D     		cmp	r5, #7
 234 001c 0CD8     		bhi	.L21
  71:E:/MCU_Project/stm32/Target_tracking/user/My_Peripheral/OLED\oled.c **** 		OLED_WR_CMD(0x00);      //设置显示位置―列低地址
 235              		.loc 1 71 3 is_stmt 1 view .LVU40
 236 001e A5F15000 		sub	r0, r5, #80
 237 0022 C0B2     		uxtb	r0, r0
 238 0024 FFF7FEFF 		bl	OLED_WR_CMD
 239              	.LVL19:
  72:E:/MCU_Project/stm32/Target_tracking/user/My_Peripheral/OLED\oled.c **** 		OLED_WR_CMD(0x10);      //设置显示位置―列高地址
 240              		.loc 1 72 3 view .LVU41
 241 0028 0020     		movs	r0, #0
 242 002a FFF7FEFF 		bl	OLED_WR_CMD
 243              	.LVL20:
  73:E:/MCU_Project/stm32/Target_tracking/user/My_Peripheral/OLED\oled.c **** 		for(n=0;n<128;n++)
 244              		.loc 1 73 3 view .LVU42
 245 002e 1020     		movs	r0, #16
 246 0030 FFF7FEFF 		bl	OLED_WR_CMD
 247              	.LVL21:
ARM GAS  C:\Users\86390\AppData\Local\Temp\cc0lOyie.s 			page 7


  74:E:/MCU_Project/stm32/Target_tracking/user/My_Peripheral/OLED\oled.c **** 			OLED_WR_DATA(1);
 248              		.loc 1 74 3 view .LVU43
  74:E:/MCU_Project/stm32/Target_tracking/user/My_Peripheral/OLED\oled.c **** 			OLED_WR_DATA(1);
 249              		.loc 1 74 8 is_stmt 0 view .LVU44
 250 0034 0024     		movs	r4, #0
  74:E:/MCU_Project/stm32/Target_tracking/user/My_Peripheral/OLED\oled.c **** 			OLED_WR_DATA(1);
 251              		.loc 1 74 3 view .LVU45
 252 0036 EBE7     		b	.L17
 253              	.LVL22:
 254              	.L21:
  76:E:/MCU_Project/stm32/Target_tracking/user/My_Peripheral/OLED\oled.c **** 	}
  77:E:/MCU_Project/stm32/Target_tracking/user/My_Peripheral/OLED\oled.c **** }
 255              		.loc 1 77 1 view .LVU46
 256 0038 38BD     		pop	{r3, r4, r5, pc}
 257              		.loc 1 77 1 view .LVU47
 258              		.cfi_endproc
 259              	.LFE138:
 261              		.section	.text.OLED_Clear,"ax",%progbits
 262              		.align	1
 263              		.global	OLED_Clear
 264              		.syntax unified
 265              		.thumb
 266              		.thumb_func
 268              	OLED_Clear:
 269              	.LFB139:
  78:E:/MCU_Project/stm32/Target_tracking/user/My_Peripheral/OLED\oled.c ****  
  79:E:/MCU_Project/stm32/Target_tracking/user/My_Peripheral/OLED\oled.c ****  
  80:E:/MCU_Project/stm32/Target_tracking/user/My_Peripheral/OLED\oled.c **** /**
  81:E:/MCU_Project/stm32/Target_tracking/user/My_Peripheral/OLED\oled.c ****  * @function: OLED_Clear(void)
  82:E:/MCU_Project/stm32/Target_tracking/user/My_Peripheral/OLED\oled.c ****  * @description: 清屏,整个屏幕是黑色的!和没点亮一样!!!
  83:E:/MCU_Project/stm32/Target_tracking/user/My_Peripheral/OLED\oled.c ****  * @return {*}
  84:E:/MCU_Project/stm32/Target_tracking/user/My_Peripheral/OLED\oled.c ****  */
  85:E:/MCU_Project/stm32/Target_tracking/user/My_Peripheral/OLED\oled.c **** void OLED_Clear(void)
  86:E:/MCU_Project/stm32/Target_tracking/user/My_Peripheral/OLED\oled.c **** {
 270              		.loc 1 86 1 is_stmt 1 view -0
 271              		.cfi_startproc
 272              		@ args = 0, pretend = 0, frame = 0
 273              		@ frame_needed = 0, uses_anonymous_args = 0
 274 0000 38B5     		push	{r3, r4, r5, lr}
 275              	.LCFI8:
 276              		.cfi_def_cfa_offset 16
 277              		.cfi_offset 3, -16
 278              		.cfi_offset 4, -12
 279              		.cfi_offset 5, -8
 280              		.cfi_offset 14, -4
  87:E:/MCU_Project/stm32/Target_tracking/user/My_Peripheral/OLED\oled.c **** 	uint8_t i,n;
 281              		.loc 1 87 2 view .LVU49
  88:E:/MCU_Project/stm32/Target_tracking/user/My_Peripheral/OLED\oled.c **** 	for(i=0;i<8;i++)
 282              		.loc 1 88 2 view .LVU50
 283              	.LVL23:
 284              		.loc 1 88 7 is_stmt 0 view .LVU51
 285 0002 0025     		movs	r5, #0
 286              		.loc 1 88 2 view .LVU52
 287 0004 09E0     		b	.L23
 288              	.LVL24:
 289              	.L25:
  89:E:/MCU_Project/stm32/Target_tracking/user/My_Peripheral/OLED\oled.c **** 	{
ARM GAS  C:\Users\86390\AppData\Local\Temp\cc0lOyie.s 			page 8


  90:E:/MCU_Project/stm32/Target_tracking/user/My_Peripheral/OLED\oled.c **** 		OLED_WR_CMD(0xb0+i);    //设置页地址（0~7）
  91:E:/MCU_Project/stm32/Target_tracking/user/My_Peripheral/OLED\oled.c **** 		OLED_WR_CMD(0x00);      //设置显示位置―列低地址
  92:E:/MCU_Project/stm32/Target_tracking/user/My_Peripheral/OLED\oled.c **** 		OLED_WR_CMD(0x10);      //设置显示位置―列高地址
  93:E:/MCU_Project/stm32/Target_tracking/user/My_Peripheral/OLED\oled.c **** 		for(n=0;n<128;n++)
  94:E:/MCU_Project/stm32/Target_tracking/user/My_Peripheral/OLED\oled.c **** 			OLED_WR_DATA(0);
 290              		.loc 1 94 4 is_stmt 1 discriminator 3 view .LVU53
 291 0006 0020     		movs	r0, #0
 292 0008 FFF7FEFF 		bl	OLED_WR_DATA
 293              	.LVL25:
  93:E:/MCU_Project/stm32/Target_tracking/user/My_Peripheral/OLED\oled.c **** 			OLED_WR_DATA(0);
 294              		.loc 1 93 17 discriminator 3 view .LVU54
  93:E:/MCU_Project/stm32/Target_tracking/user/My_Peripheral/OLED\oled.c **** 			OLED_WR_DATA(0);
 295              		.loc 1 93 18 is_stmt 0 discriminator 3 view .LVU55
 296 000c 0134     		adds	r4, r4, #1
 297              	.LVL26:
  93:E:/MCU_Project/stm32/Target_tracking/user/My_Peripheral/OLED\oled.c **** 			OLED_WR_DATA(0);
 298              		.loc 1 93 18 discriminator 3 view .LVU56
 299 000e E4B2     		uxtb	r4, r4
 300              	.LVL27:
 301              	.L24:
  93:E:/MCU_Project/stm32/Target_tracking/user/My_Peripheral/OLED\oled.c **** 			OLED_WR_DATA(0);
 302              		.loc 1 93 11 is_stmt 1 discriminator 1 view .LVU57
  93:E:/MCU_Project/stm32/Target_tracking/user/My_Peripheral/OLED\oled.c **** 			OLED_WR_DATA(0);
 303              		.loc 1 93 3 is_stmt 0 discriminator 1 view .LVU58
 304 0010 14F0800F 		tst	r4, #128
 305 0014 F7D0     		beq	.L25
  88:E:/MCU_Project/stm32/Target_tracking/user/My_Peripheral/OLED\oled.c **** 	for(i=0;i<8;i++)
 306              		.loc 1 88 14 is_stmt 1 discriminator 2 view .LVU59
  88:E:/MCU_Project/stm32/Target_tracking/user/My_Peripheral/OLED\oled.c **** 	for(i=0;i<8;i++)
 307              		.loc 1 88 15 is_stmt 0 discriminator 2 view .LVU60
 308 0016 0135     		adds	r5, r5, #1
 309              	.LVL28:
  88:E:/MCU_Project/stm32/Target_tracking/user/My_Peripheral/OLED\oled.c **** 	for(i=0;i<8;i++)
 310              		.loc 1 88 15 discriminator 2 view .LVU61
 311 0018 EDB2     		uxtb	r5, r5
 312              	.LVL29:
 313              	.L23:
  88:E:/MCU_Project/stm32/Target_tracking/user/My_Peripheral/OLED\oled.c **** 	for(i=0;i<8;i++)
 314              		.loc 1 88 10 is_stmt 1 discriminator 1 view .LVU62
  88:E:/MCU_Project/stm32/Target_tracking/user/My_Peripheral/OLED\oled.c **** 	for(i=0;i<8;i++)
 315              		.loc 1 88 2 is_stmt 0 discriminator 1 view .LVU63
 316 001a 072D     		cmp	r5, #7
 317 001c 0CD8     		bhi	.L28
  90:E:/MCU_Project/stm32/Target_tracking/user/My_Peripheral/OLED\oled.c **** 		OLED_WR_CMD(0x00);      //设置显示位置―列低地址
 318              		.loc 1 90 3 is_stmt 1 view .LVU64
 319 001e A5F15000 		sub	r0, r5, #80
 320 0022 C0B2     		uxtb	r0, r0
 321 0024 FFF7FEFF 		bl	OLED_WR_CMD
 322              	.LVL30:
  91:E:/MCU_Project/stm32/Target_tracking/user/My_Peripheral/OLED\oled.c **** 		OLED_WR_CMD(0x10);      //设置显示位置―列高地址
 323              		.loc 1 91 3 view .LVU65
 324 0028 0020     		movs	r0, #0
 325 002a FFF7FEFF 		bl	OLED_WR_CMD
 326              	.LVL31:
  92:E:/MCU_Project/stm32/Target_tracking/user/My_Peripheral/OLED\oled.c **** 		for(n=0;n<128;n++)
 327              		.loc 1 92 3 view .LVU66
 328 002e 1020     		movs	r0, #16
ARM GAS  C:\Users\86390\AppData\Local\Temp\cc0lOyie.s 			page 9


 329 0030 FFF7FEFF 		bl	OLED_WR_CMD
 330              	.LVL32:
  93:E:/MCU_Project/stm32/Target_tracking/user/My_Peripheral/OLED\oled.c **** 			OLED_WR_DATA(0);
 331              		.loc 1 93 3 view .LVU67
  93:E:/MCU_Project/stm32/Target_tracking/user/My_Peripheral/OLED\oled.c **** 			OLED_WR_DATA(0);
 332              		.loc 1 93 8 is_stmt 0 view .LVU68
 333 0034 0024     		movs	r4, #0
  93:E:/MCU_Project/stm32/Target_tracking/user/My_Peripheral/OLED\oled.c **** 			OLED_WR_DATA(0);
 334              		.loc 1 93 3 view .LVU69
 335 0036 EBE7     		b	.L24
 336              	.LVL33:
 337              	.L28:
  95:E:/MCU_Project/stm32/Target_tracking/user/My_Peripheral/OLED\oled.c **** 	}
  96:E:/MCU_Project/stm32/Target_tracking/user/My_Peripheral/OLED\oled.c **** }
 338              		.loc 1 96 1 view .LVU70
 339 0038 38BD     		pop	{r3, r4, r5, pc}
 340              		.loc 1 96 1 view .LVU71
 341              		.cfi_endproc
 342              	.LFE139:
 344              		.section	.text.OLED_Display_On,"ax",%progbits
 345              		.align	1
 346              		.global	OLED_Display_On
 347              		.syntax unified
 348              		.thumb
 349              		.thumb_func
 351              	OLED_Display_On:
 352              	.LFB140:
  97:E:/MCU_Project/stm32/Target_tracking/user/My_Peripheral/OLED\oled.c ****  
  98:E:/MCU_Project/stm32/Target_tracking/user/My_Peripheral/OLED\oled.c **** /**
  99:E:/MCU_Project/stm32/Target_tracking/user/My_Peripheral/OLED\oled.c ****  * @function: void OLED_Display_On(void)
 100:E:/MCU_Project/stm32/Target_tracking/user/My_Peripheral/OLED\oled.c ****  * @description: 开启OLED显示
 101:E:/MCU_Project/stm32/Target_tracking/user/My_Peripheral/OLED\oled.c ****  * @return {*}
 102:E:/MCU_Project/stm32/Target_tracking/user/My_Peripheral/OLED\oled.c ****  */
 103:E:/MCU_Project/stm32/Target_tracking/user/My_Peripheral/OLED\oled.c **** void OLED_Display_On(void)
 104:E:/MCU_Project/stm32/Target_tracking/user/My_Peripheral/OLED\oled.c **** {
 353              		.loc 1 104 1 is_stmt 1 view -0
 354              		.cfi_startproc
 355              		@ args = 0, pretend = 0, frame = 0
 356              		@ frame_needed = 0, uses_anonymous_args = 0
 357 0000 08B5     		push	{r3, lr}
 358              	.LCFI9:
 359              		.cfi_def_cfa_offset 8
 360              		.cfi_offset 3, -8
 361              		.cfi_offset 14, -4
 105:E:/MCU_Project/stm32/Target_tracking/user/My_Peripheral/OLED\oled.c **** 	OLED_WR_CMD(0X8D);  //SET DCDC命令
 362              		.loc 1 105 2 view .LVU73
 363 0002 8D20     		movs	r0, #141
 364 0004 FFF7FEFF 		bl	OLED_WR_CMD
 365              	.LVL34:
 106:E:/MCU_Project/stm32/Target_tracking/user/My_Peripheral/OLED\oled.c **** 	OLED_WR_CMD(0X14);  //DCDC ON
 366              		.loc 1 106 2 view .LVU74
 367 0008 1420     		movs	r0, #20
 368 000a FFF7FEFF 		bl	OLED_WR_CMD
 369              	.LVL35:
 107:E:/MCU_Project/stm32/Target_tracking/user/My_Peripheral/OLED\oled.c **** 	OLED_WR_CMD(0XAF);  //DISPLAY ON,打开显示
 370              		.loc 1 107 2 view .LVU75
 371 000e AF20     		movs	r0, #175
ARM GAS  C:\Users\86390\AppData\Local\Temp\cc0lOyie.s 			page 10


 372 0010 FFF7FEFF 		bl	OLED_WR_CMD
 373              	.LVL36:
 108:E:/MCU_Project/stm32/Target_tracking/user/My_Peripheral/OLED\oled.c **** }
 374              		.loc 1 108 1 is_stmt 0 view .LVU76
 375 0014 08BD     		pop	{r3, pc}
 376              		.cfi_endproc
 377              	.LFE140:
 379              		.section	.text.OLED_Display_Off,"ax",%progbits
 380              		.align	1
 381              		.global	OLED_Display_Off
 382              		.syntax unified
 383              		.thumb
 384              		.thumb_func
 386              	OLED_Display_Off:
 387              	.LFB141:
 109:E:/MCU_Project/stm32/Target_tracking/user/My_Peripheral/OLED\oled.c ****  
 110:E:/MCU_Project/stm32/Target_tracking/user/My_Peripheral/OLED\oled.c ****  
 111:E:/MCU_Project/stm32/Target_tracking/user/My_Peripheral/OLED\oled.c **** /**
 112:E:/MCU_Project/stm32/Target_tracking/user/My_Peripheral/OLED\oled.c ****  * @function: void OLED_Display_Off(void)
 113:E:/MCU_Project/stm32/Target_tracking/user/My_Peripheral/OLED\oled.c ****  * @description: 关闭OLED显示
 114:E:/MCU_Project/stm32/Target_tracking/user/My_Peripheral/OLED\oled.c ****  * @return {*}
 115:E:/MCU_Project/stm32/Target_tracking/user/My_Peripheral/OLED\oled.c ****  */
 116:E:/MCU_Project/stm32/Target_tracking/user/My_Peripheral/OLED\oled.c **** void OLED_Display_Off(void)
 117:E:/MCU_Project/stm32/Target_tracking/user/My_Peripheral/OLED\oled.c **** {
 388              		.loc 1 117 1 is_stmt 1 view -0
 389              		.cfi_startproc
 390              		@ args = 0, pretend = 0, frame = 0
 391              		@ frame_needed = 0, uses_anonymous_args = 0
 392 0000 08B5     		push	{r3, lr}
 393              	.LCFI10:
 394              		.cfi_def_cfa_offset 8
 395              		.cfi_offset 3, -8
 396              		.cfi_offset 14, -4
 118:E:/MCU_Project/stm32/Target_tracking/user/My_Peripheral/OLED\oled.c **** 	OLED_WR_CMD(0X8D);  //SET DCDC命令
 397              		.loc 1 118 2 view .LVU78
 398 0002 8D20     		movs	r0, #141
 399 0004 FFF7FEFF 		bl	OLED_WR_CMD
 400              	.LVL37:
 119:E:/MCU_Project/stm32/Target_tracking/user/My_Peripheral/OLED\oled.c **** 	OLED_WR_CMD(0X10);  //DCDC OFF
 401              		.loc 1 119 2 view .LVU79
 402 0008 1020     		movs	r0, #16
 403 000a FFF7FEFF 		bl	OLED_WR_CMD
 404              	.LVL38:
 120:E:/MCU_Project/stm32/Target_tracking/user/My_Peripheral/OLED\oled.c **** 	OLED_WR_CMD(0XAE);  //DISPLAY OFF，关闭显示
 405              		.loc 1 120 2 view .LVU80
 406 000e AE20     		movs	r0, #174
 407 0010 FFF7FEFF 		bl	OLED_WR_CMD
 408              	.LVL39:
 121:E:/MCU_Project/stm32/Target_tracking/user/My_Peripheral/OLED\oled.c **** }
 409              		.loc 1 121 1 is_stmt 0 view .LVU81
 410 0014 08BD     		pop	{r3, pc}
 411              		.cfi_endproc
 412              	.LFE141:
 414              		.section	.text.OLED_Set_Pos,"ax",%progbits
 415              		.align	1
 416              		.global	OLED_Set_Pos
 417              		.syntax unified
ARM GAS  C:\Users\86390\AppData\Local\Temp\cc0lOyie.s 			page 11


 418              		.thumb
 419              		.thumb_func
 421              	OLED_Set_Pos:
 422              	.LVL40:
 423              	.LFB142:
 122:E:/MCU_Project/stm32/Target_tracking/user/My_Peripheral/OLED\oled.c ****  
 123:E:/MCU_Project/stm32/Target_tracking/user/My_Peripheral/OLED\oled.c **** /**
 124:E:/MCU_Project/stm32/Target_tracking/user/My_Peripheral/OLED\oled.c ****  * @function: void OLED_Set_Pos(uint8_t x, uint8_t y)
 125:E:/MCU_Project/stm32/Target_tracking/user/My_Peripheral/OLED\oled.c ****  * @description: 坐标设置
 126:E:/MCU_Project/stm32/Target_tracking/user/My_Peripheral/OLED\oled.c ****  * @param {uint8_t} x,y
 127:E:/MCU_Project/stm32/Target_tracking/user/My_Peripheral/OLED\oled.c ****  * @return {*}
 128:E:/MCU_Project/stm32/Target_tracking/user/My_Peripheral/OLED\oled.c ****  */
 129:E:/MCU_Project/stm32/Target_tracking/user/My_Peripheral/OLED\oled.c **** void OLED_Set_Pos(uint8_t x, uint8_t y)
 130:E:/MCU_Project/stm32/Target_tracking/user/My_Peripheral/OLED\oled.c **** {
 424              		.loc 1 130 1 is_stmt 1 view -0
 425              		.cfi_startproc
 426              		@ args = 0, pretend = 0, frame = 0
 427              		@ frame_needed = 0, uses_anonymous_args = 0
 428              		.loc 1 130 1 is_stmt 0 view .LVU83
 429 0000 10B5     		push	{r4, lr}
 430              	.LCFI11:
 431              		.cfi_def_cfa_offset 8
 432              		.cfi_offset 4, -8
 433              		.cfi_offset 14, -4
 434 0002 0446     		mov	r4, r0
 131:E:/MCU_Project/stm32/Target_tracking/user/My_Peripheral/OLED\oled.c **** 	OLED_WR_CMD(0xb0+y);	//设置页地址（0~7）
 435              		.loc 1 131 2 is_stmt 1 view .LVU84
 436 0004 A1F15000 		sub	r0, r1, #80
 437              	.LVL41:
 438              		.loc 1 131 2 is_stmt 0 view .LVU85
 439 0008 C0B2     		uxtb	r0, r0
 440 000a FFF7FEFF 		bl	OLED_WR_CMD
 441              	.LVL42:
 132:E:/MCU_Project/stm32/Target_tracking/user/My_Peripheral/OLED\oled.c **** 	OLED_WR_CMD(((x&0xf0)>>4)|0x10); //设置显示位置―列高地址
 442              		.loc 1 132 2 is_stmt 1 view .LVU86
 443              		.loc 1 132 23 is_stmt 0 view .LVU87
 444 000e 2009     		lsrs	r0, r4, #4
 445              		.loc 1 132 2 view .LVU88
 446 0010 40F01000 		orr	r0, r0, #16
 447 0014 FFF7FEFF 		bl	OLED_WR_CMD
 448              	.LVL43:
 133:E:/MCU_Project/stm32/Target_tracking/user/My_Peripheral/OLED\oled.c **** 	OLED_WR_CMD(x&0x0f);	//设置显示位置―列低地址
 449              		.loc 1 133 2 is_stmt 1 view .LVU89
 450 0018 04F00F00 		and	r0, r4, #15
 451 001c FFF7FEFF 		bl	OLED_WR_CMD
 452              	.LVL44:
 134:E:/MCU_Project/stm32/Target_tracking/user/My_Peripheral/OLED\oled.c **** }
 453              		.loc 1 134 1 is_stmt 0 view .LVU90
 454 0020 10BD     		pop	{r4, pc}
 455              		.cfi_endproc
 456              	.LFE142:
 458              		.section	.text.oled_pow,"ax",%progbits
 459              		.align	1
 460              		.global	oled_pow
 461              		.syntax unified
 462              		.thumb
 463              		.thumb_func
ARM GAS  C:\Users\86390\AppData\Local\Temp\cc0lOyie.s 			page 12


 465              	oled_pow:
 466              	.LVL45:
 467              	.LFB143:
 135:E:/MCU_Project/stm32/Target_tracking/user/My_Peripheral/OLED\oled.c ****  
 136:E:/MCU_Project/stm32/Target_tracking/user/My_Peripheral/OLED\oled.c ****  
 137:E:/MCU_Project/stm32/Target_tracking/user/My_Peripheral/OLED\oled.c **** /**
 138:E:/MCU_Project/stm32/Target_tracking/user/My_Peripheral/OLED\oled.c ****  * @function: unsigned int oled_pow(uint8_t m,uint8_t n)
 139:E:/MCU_Project/stm32/Target_tracking/user/My_Peripheral/OLED\oled.c ****  * @description: m^n函数
 140:E:/MCU_Project/stm32/Target_tracking/user/My_Peripheral/OLED\oled.c ****  * @param {uint8_t} m,n
 141:E:/MCU_Project/stm32/Target_tracking/user/My_Peripheral/OLED\oled.c ****  * @return {unsigned int} result
 142:E:/MCU_Project/stm32/Target_tracking/user/My_Peripheral/OLED\oled.c ****  */
 143:E:/MCU_Project/stm32/Target_tracking/user/My_Peripheral/OLED\oled.c **** unsigned int oled_pow(uint8_t m,uint8_t n)
 144:E:/MCU_Project/stm32/Target_tracking/user/My_Peripheral/OLED\oled.c **** {
 468              		.loc 1 144 1 is_stmt 1 view -0
 469              		.cfi_startproc
 470              		@ args = 0, pretend = 0, frame = 0
 471              		@ frame_needed = 0, uses_anonymous_args = 0
 472              		@ link register save eliminated.
 473              		.loc 1 144 1 is_stmt 0 view .LVU92
 474 0000 0246     		mov	r2, r0
 145:E:/MCU_Project/stm32/Target_tracking/user/My_Peripheral/OLED\oled.c **** 	unsigned int result=1;
 475              		.loc 1 145 2 is_stmt 1 view .LVU93
 476              	.LVL46:
 146:E:/MCU_Project/stm32/Target_tracking/user/My_Peripheral/OLED\oled.c **** 	while(n--)result*=m;
 477              		.loc 1 146 2 view .LVU94
 145:E:/MCU_Project/stm32/Target_tracking/user/My_Peripheral/OLED\oled.c **** 	unsigned int result=1;
 478              		.loc 1 145 15 is_stmt 0 view .LVU95
 479 0002 0120     		movs	r0, #1
 480              	.LVL47:
 481              		.loc 1 146 7 view .LVU96
 482 0004 02E0     		b	.L36
 483              	.LVL48:
 484              	.L37:
 485              		.loc 1 146 12 is_stmt 1 discriminator 2 view .LVU97
 486              		.loc 1 146 18 is_stmt 0 discriminator 2 view .LVU98
 487 0006 02FB00F0 		mul	r0, r2, r0
 488              	.LVL49:
 489              		.loc 1 146 9 discriminator 2 view .LVU99
 490 000a 1946     		mov	r1, r3
 491              	.LVL50:
 492              	.L36:
 493              		.loc 1 146 7 is_stmt 1 discriminator 1 view .LVU100
 494              		.loc 1 146 9 is_stmt 0 discriminator 1 view .LVU101
 495 000c 4B1E     		subs	r3, r1, #1
 496 000e DBB2     		uxtb	r3, r3
 497              	.LVL51:
 498              		.loc 1 146 7 discriminator 1 view .LVU102
 499 0010 0029     		cmp	r1, #0
 500 0012 F8D1     		bne	.L37
 147:E:/MCU_Project/stm32/Target_tracking/user/My_Peripheral/OLED\oled.c **** 	return result;
 501              		.loc 1 147 2 is_stmt 1 view .LVU103
 148:E:/MCU_Project/stm32/Target_tracking/user/My_Peripheral/OLED\oled.c **** }
 502              		.loc 1 148 1 is_stmt 0 view .LVU104
 503 0014 7047     		bx	lr
 504              		.cfi_endproc
 505              	.LFE143:
 507              		.section	.text.OLED_ShowChar,"ax",%progbits
ARM GAS  C:\Users\86390\AppData\Local\Temp\cc0lOyie.s 			page 13


 508              		.align	1
 509              		.global	OLED_ShowChar
 510              		.syntax unified
 511              		.thumb
 512              		.thumb_func
 514              	OLED_ShowChar:
 515              	.LVL52:
 516              	.LFB144:
 149:E:/MCU_Project/stm32/Target_tracking/user/My_Peripheral/OLED\oled.c ****  
 150:E:/MCU_Project/stm32/Target_tracking/user/My_Peripheral/OLED\oled.c **** /**
 151:E:/MCU_Project/stm32/Target_tracking/user/My_Peripheral/OLED\oled.c ****  * @function: void OLED_ShowChar(uint8_t x, uint8_t y, uint8_t chr, uint8_t Char_Size,uint8_t Color
 152:E:/MCU_Project/stm32/Target_tracking/user/My_Peripheral/OLED\oled.c ****  * @description: 在OLED12864特定位置开始显示一个字符
 153:E:/MCU_Project/stm32/Target_tracking/user/My_Peripheral/OLED\oled.c ****  * @param {uint8_t} x字符开始显示的横坐标
 154:E:/MCU_Project/stm32/Target_tracking/user/My_Peripheral/OLED\oled.c ****  * @param {uint8_t} y字符开始显示的纵坐标
 155:E:/MCU_Project/stm32/Target_tracking/user/My_Peripheral/OLED\oled.c ****  * @param {uint8_t} chr待显示的字符
 156:E:/MCU_Project/stm32/Target_tracking/user/My_Peripheral/OLED\oled.c ****  * @param {uint8_t} Char_Size待显示字符的字体大小,选择字体 16/12
 157:E:/MCU_Project/stm32/Target_tracking/user/My_Peripheral/OLED\oled.c ****  * @param {uint8_t} Color_Turn是否反相显示(1反相、0不反相)
 158:E:/MCU_Project/stm32/Target_tracking/user/My_Peripheral/OLED\oled.c ****  * @return {*}
 159:E:/MCU_Project/stm32/Target_tracking/user/My_Peripheral/OLED\oled.c ****  */
 160:E:/MCU_Project/stm32/Target_tracking/user/My_Peripheral/OLED\oled.c **** void OLED_ShowChar(uint8_t x,uint8_t y,uint8_t chr,uint8_t Char_Size,uint8_t Color_Turn)
 161:E:/MCU_Project/stm32/Target_tracking/user/My_Peripheral/OLED\oled.c **** {
 517              		.loc 1 161 1 is_stmt 1 view -0
 518              		.cfi_startproc
 519              		@ args = 4, pretend = 0, frame = 0
 520              		@ frame_needed = 0, uses_anonymous_args = 0
 521              		.loc 1 161 1 is_stmt 0 view .LVU106
 522 0000 2DE9F041 		push	{r4, r5, r6, r7, r8, lr}
 523              	.LCFI12:
 524              		.cfi_def_cfa_offset 24
 525              		.cfi_offset 4, -24
 526              		.cfi_offset 5, -20
 527              		.cfi_offset 6, -16
 528              		.cfi_offset 7, -12
 529              		.cfi_offset 8, -8
 530              		.cfi_offset 14, -4
 531 0004 8046     		mov	r8, r0
 532 0006 0F46     		mov	r7, r1
 533 0008 9DF81860 		ldrb	r6, [sp, #24]	@ zero_extendqisi2
 162:E:/MCU_Project/stm32/Target_tracking/user/My_Peripheral/OLED\oled.c **** 	unsigned char c=0,i=0;
 534              		.loc 1 162 2 is_stmt 1 view .LVU107
 535              	.LVL53:
 163:E:/MCU_Project/stm32/Target_tracking/user/My_Peripheral/OLED\oled.c **** 		c=chr-' ';//得到偏移后的值
 536              		.loc 1 163 3 view .LVU108
 537              		.loc 1 163 4 is_stmt 0 view .LVU109
 538 000c 203A     		subs	r2, r2, #32
 539              	.LVL54:
 540              		.loc 1 163 4 view .LVU110
 541 000e D5B2     		uxtb	r5, r2
 542              	.LVL55:
 164:E:/MCU_Project/stm32/Target_tracking/user/My_Peripheral/OLED\oled.c **** 		if(x>128-1){x=0;y=y+2;}
 543              		.loc 1 164 3 is_stmt 1 view .LVU111
 544              		.loc 1 164 5 is_stmt 0 view .LVU112
 545 0010 10F0800F 		tst	r0, #128
 546 0014 07D1     		bne	.L55
 547              	.LVL56:
 548              	.L39:
 165:E:/MCU_Project/stm32/Target_tracking/user/My_Peripheral/OLED\oled.c **** 		if(Char_Size ==16)
ARM GAS  C:\Users\86390\AppData\Local\Temp\cc0lOyie.s 			page 14


 549              		.loc 1 165 3 is_stmt 1 view .LVU113
 550              		.loc 1 165 5 is_stmt 0 view .LVU114
 551 0016 102B     		cmp	r3, #16
 552 0018 0AD0     		beq	.L56
 166:E:/MCU_Project/stm32/Target_tracking/user/My_Peripheral/OLED\oled.c **** 		{
 167:E:/MCU_Project/stm32/Target_tracking/user/My_Peripheral/OLED\oled.c **** 			OLED_Set_Pos(x,y);
 168:E:/MCU_Project/stm32/Target_tracking/user/My_Peripheral/OLED\oled.c **** 			for(i=0;i<8;i++)
 169:E:/MCU_Project/stm32/Target_tracking/user/My_Peripheral/OLED\oled.c **** 				{
 170:E:/MCU_Project/stm32/Target_tracking/user/My_Peripheral/OLED\oled.c **** 				  if(Color_Turn)
 171:E:/MCU_Project/stm32/Target_tracking/user/My_Peripheral/OLED\oled.c **** 					  OLED_WR_DATA(~F8X16[c*16+i]);
 172:E:/MCU_Project/stm32/Target_tracking/user/My_Peripheral/OLED\oled.c **** 				  else
 173:E:/MCU_Project/stm32/Target_tracking/user/My_Peripheral/OLED\oled.c **** 					  OLED_WR_DATA(F8X16[c*16+i]);
 174:E:/MCU_Project/stm32/Target_tracking/user/My_Peripheral/OLED\oled.c **** 				}
 175:E:/MCU_Project/stm32/Target_tracking/user/My_Peripheral/OLED\oled.c **** 			OLED_Set_Pos(x,y+1);
 176:E:/MCU_Project/stm32/Target_tracking/user/My_Peripheral/OLED\oled.c **** 			for(i=0;i<8;i++)
 177:E:/MCU_Project/stm32/Target_tracking/user/My_Peripheral/OLED\oled.c **** 			    {
 178:E:/MCU_Project/stm32/Target_tracking/user/My_Peripheral/OLED\oled.c **** 				  if(Color_Turn)
 179:E:/MCU_Project/stm32/Target_tracking/user/My_Peripheral/OLED\oled.c **** 					  OLED_WR_DATA(~F8X16[c*16+i+8]);
 180:E:/MCU_Project/stm32/Target_tracking/user/My_Peripheral/OLED\oled.c **** 				  else
 181:E:/MCU_Project/stm32/Target_tracking/user/My_Peripheral/OLED\oled.c **** 					  OLED_WR_DATA(F8X16[c*16+i+8]);
 182:E:/MCU_Project/stm32/Target_tracking/user/My_Peripheral/OLED\oled.c **** 			    }
 183:E:/MCU_Project/stm32/Target_tracking/user/My_Peripheral/OLED\oled.c ****  
 184:E:/MCU_Project/stm32/Target_tracking/user/My_Peripheral/OLED\oled.c **** 			}
 185:E:/MCU_Project/stm32/Target_tracking/user/My_Peripheral/OLED\oled.c **** 	     else
 186:E:/MCU_Project/stm32/Target_tracking/user/My_Peripheral/OLED\oled.c **** 	     {
 187:E:/MCU_Project/stm32/Target_tracking/user/My_Peripheral/OLED\oled.c **** 				OLED_Set_Pos(x,y);
 553              		.loc 1 187 5 is_stmt 1 view .LVU115
 554 001a 3946     		mov	r1, r7
 555 001c 4046     		mov	r0, r8
 556 001e FFF7FEFF 		bl	OLED_Set_Pos
 557              	.LVL57:
 188:E:/MCU_Project/stm32/Target_tracking/user/My_Peripheral/OLED\oled.c **** 				for(i=0;i<6;i++)
 558              		.loc 1 188 5 view .LVU116
 559              		.loc 1 188 10 is_stmt 0 view .LVU117
 560 0022 0024     		movs	r4, #0
 561              		.loc 1 188 5 view .LVU118
 562 0024 47E0     		b	.L50
 563              	.LVL58:
 564              	.L55:
 164:E:/MCU_Project/stm32/Target_tracking/user/My_Peripheral/OLED\oled.c **** 		if(Char_Size ==16)
 565              		.loc 1 164 15 is_stmt 1 discriminator 1 view .LVU119
 164:E:/MCU_Project/stm32/Target_tracking/user/My_Peripheral/OLED\oled.c **** 		if(Char_Size ==16)
 566              		.loc 1 164 19 discriminator 1 view .LVU120
 164:E:/MCU_Project/stm32/Target_tracking/user/My_Peripheral/OLED\oled.c **** 		if(Char_Size ==16)
 567              		.loc 1 164 20 is_stmt 0 discriminator 1 view .LVU121
 568 0026 0237     		adds	r7, r7, #2
 569 0028 FFB2     		uxtb	r7, r7
 570              	.LVL59:
 164:E:/MCU_Project/stm32/Target_tracking/user/My_Peripheral/OLED\oled.c **** 		if(Char_Size ==16)
 571              		.loc 1 164 16 discriminator 1 view .LVU122
 572 002a 4FF00008 		mov	r8, #0
 573 002e F2E7     		b	.L39
 574              	.LVL60:
 575              	.L56:
 167:E:/MCU_Project/stm32/Target_tracking/user/My_Peripheral/OLED\oled.c **** 			for(i=0;i<8;i++)
 576              		.loc 1 167 4 is_stmt 1 view .LVU123
 577 0030 3946     		mov	r1, r7
ARM GAS  C:\Users\86390\AppData\Local\Temp\cc0lOyie.s 			page 15


 578 0032 4046     		mov	r0, r8
 579 0034 FFF7FEFF 		bl	OLED_Set_Pos
 580              	.LVL61:
 168:E:/MCU_Project/stm32/Target_tracking/user/My_Peripheral/OLED\oled.c **** 				{
 581              		.loc 1 168 4 view .LVU124
 168:E:/MCU_Project/stm32/Target_tracking/user/My_Peripheral/OLED\oled.c **** 				{
 582              		.loc 1 168 9 is_stmt 0 view .LVU125
 583 0038 0024     		movs	r4, #0
 168:E:/MCU_Project/stm32/Target_tracking/user/My_Peripheral/OLED\oled.c **** 				{
 584              		.loc 1 168 4 view .LVU126
 585 003a 07E0     		b	.L41
 586              	.LVL62:
 587              	.L42:
 173:E:/MCU_Project/stm32/Target_tracking/user/My_Peripheral/OLED\oled.c **** 				}
 588              		.loc 1 173 8 is_stmt 1 view .LVU127
 173:E:/MCU_Project/stm32/Target_tracking/user/My_Peripheral/OLED\oled.c **** 				}
 589              		.loc 1 173 31 is_stmt 0 view .LVU128
 590 003c 04EB0513 		add	r3, r4, r5, lsl #4
 173:E:/MCU_Project/stm32/Target_tracking/user/My_Peripheral/OLED\oled.c **** 				}
 591              		.loc 1 173 8 view .LVU129
 592 0040 254A     		ldr	r2, .L58
 593 0042 D05C     		ldrb	r0, [r2, r3]	@ zero_extendqisi2
 594 0044 FFF7FEFF 		bl	OLED_WR_DATA
 595              	.LVL63:
 596              	.L43:
 168:E:/MCU_Project/stm32/Target_tracking/user/My_Peripheral/OLED\oled.c **** 				{
 597              		.loc 1 168 16 is_stmt 1 discriminator 2 view .LVU130
 168:E:/MCU_Project/stm32/Target_tracking/user/My_Peripheral/OLED\oled.c **** 				{
 598              		.loc 1 168 17 is_stmt 0 discriminator 2 view .LVU131
 599 0048 0134     		adds	r4, r4, #1
 600              	.LVL64:
 168:E:/MCU_Project/stm32/Target_tracking/user/My_Peripheral/OLED\oled.c **** 				{
 601              		.loc 1 168 17 discriminator 2 view .LVU132
 602 004a E4B2     		uxtb	r4, r4
 603              	.LVL65:
 604              	.L41:
 168:E:/MCU_Project/stm32/Target_tracking/user/My_Peripheral/OLED\oled.c **** 				{
 605              		.loc 1 168 12 is_stmt 1 discriminator 1 view .LVU133
 168:E:/MCU_Project/stm32/Target_tracking/user/My_Peripheral/OLED\oled.c **** 				{
 606              		.loc 1 168 4 is_stmt 0 discriminator 1 view .LVU134
 607 004c 072C     		cmp	r4, #7
 608 004e 0AD8     		bhi	.L57
 170:E:/MCU_Project/stm32/Target_tracking/user/My_Peripheral/OLED\oled.c **** 					  OLED_WR_DATA(~F8X16[c*16+i]);
 609              		.loc 1 170 7 is_stmt 1 view .LVU135
 170:E:/MCU_Project/stm32/Target_tracking/user/My_Peripheral/OLED\oled.c **** 					  OLED_WR_DATA(~F8X16[c*16+i]);
 610              		.loc 1 170 9 is_stmt 0 view .LVU136
 611 0050 002E     		cmp	r6, #0
 612 0052 F3D0     		beq	.L42
 171:E:/MCU_Project/stm32/Target_tracking/user/My_Peripheral/OLED\oled.c **** 				  else
 613              		.loc 1 171 8 is_stmt 1 view .LVU137
 171:E:/MCU_Project/stm32/Target_tracking/user/My_Peripheral/OLED\oled.c **** 				  else
 614              		.loc 1 171 32 is_stmt 0 view .LVU138
 615 0054 04EB0513 		add	r3, r4, r5, lsl #4
 171:E:/MCU_Project/stm32/Target_tracking/user/My_Peripheral/OLED\oled.c **** 				  else
 616              		.loc 1 171 27 view .LVU139
 617 0058 1F4A     		ldr	r2, .L58
 618 005a D05C     		ldrb	r0, [r2, r3]	@ zero_extendqisi2
ARM GAS  C:\Users\86390\AppData\Local\Temp\cc0lOyie.s 			page 16


 171:E:/MCU_Project/stm32/Target_tracking/user/My_Peripheral/OLED\oled.c **** 				  else
 619              		.loc 1 171 8 view .LVU140
 620 005c C043     		mvns	r0, r0
 621 005e C0B2     		uxtb	r0, r0
 622 0060 FFF7FEFF 		bl	OLED_WR_DATA
 623              	.LVL66:
 624 0064 F0E7     		b	.L43
 625              	.L57:
 175:E:/MCU_Project/stm32/Target_tracking/user/My_Peripheral/OLED\oled.c **** 			for(i=0;i<8;i++)
 626              		.loc 1 175 4 is_stmt 1 view .LVU141
 627 0066 791C     		adds	r1, r7, #1
 628 0068 C9B2     		uxtb	r1, r1
 629 006a 4046     		mov	r0, r8
 630 006c FFF7FEFF 		bl	OLED_Set_Pos
 631              	.LVL67:
 176:E:/MCU_Project/stm32/Target_tracking/user/My_Peripheral/OLED\oled.c **** 			    {
 632              		.loc 1 176 4 view .LVU142
 176:E:/MCU_Project/stm32/Target_tracking/user/My_Peripheral/OLED\oled.c **** 			    {
 633              		.loc 1 176 9 is_stmt 0 view .LVU143
 634 0070 0024     		movs	r4, #0
 176:E:/MCU_Project/stm32/Target_tracking/user/My_Peripheral/OLED\oled.c **** 			    {
 635              		.loc 1 176 4 view .LVU144
 636 0072 08E0     		b	.L45
 637              	.LVL68:
 638              	.L46:
 181:E:/MCU_Project/stm32/Target_tracking/user/My_Peripheral/OLED\oled.c **** 			    }
 639              		.loc 1 181 8 is_stmt 1 view .LVU145
 181:E:/MCU_Project/stm32/Target_tracking/user/My_Peripheral/OLED\oled.c **** 			    }
 640              		.loc 1 181 31 is_stmt 0 view .LVU146
 641 0074 04EB0513 		add	r3, r4, r5, lsl #4
 181:E:/MCU_Project/stm32/Target_tracking/user/My_Peripheral/OLED\oled.c **** 			    }
 642              		.loc 1 181 33 view .LVU147
 643 0078 0833     		adds	r3, r3, #8
 181:E:/MCU_Project/stm32/Target_tracking/user/My_Peripheral/OLED\oled.c **** 			    }
 644              		.loc 1 181 8 view .LVU148
 645 007a 174A     		ldr	r2, .L58
 646 007c D05C     		ldrb	r0, [r2, r3]	@ zero_extendqisi2
 647 007e FFF7FEFF 		bl	OLED_WR_DATA
 648              	.LVL69:
 649              	.L47:
 176:E:/MCU_Project/stm32/Target_tracking/user/My_Peripheral/OLED\oled.c **** 			    {
 650              		.loc 1 176 16 is_stmt 1 discriminator 2 view .LVU149
 176:E:/MCU_Project/stm32/Target_tracking/user/My_Peripheral/OLED\oled.c **** 			    {
 651              		.loc 1 176 17 is_stmt 0 discriminator 2 view .LVU150
 652 0082 0134     		adds	r4, r4, #1
 653              	.LVL70:
 176:E:/MCU_Project/stm32/Target_tracking/user/My_Peripheral/OLED\oled.c **** 			    {
 654              		.loc 1 176 17 discriminator 2 view .LVU151
 655 0084 E4B2     		uxtb	r4, r4
 656              	.LVL71:
 657              	.L45:
 176:E:/MCU_Project/stm32/Target_tracking/user/My_Peripheral/OLED\oled.c **** 			    {
 658              		.loc 1 176 12 is_stmt 1 discriminator 1 view .LVU152
 176:E:/MCU_Project/stm32/Target_tracking/user/My_Peripheral/OLED\oled.c **** 			    {
 659              		.loc 1 176 4 is_stmt 0 discriminator 1 view .LVU153
 660 0086 072C     		cmp	r4, #7
 661 0088 24D8     		bhi	.L38
ARM GAS  C:\Users\86390\AppData\Local\Temp\cc0lOyie.s 			page 17


 178:E:/MCU_Project/stm32/Target_tracking/user/My_Peripheral/OLED\oled.c **** 					  OLED_WR_DATA(~F8X16[c*16+i+8]);
 662              		.loc 1 178 7 is_stmt 1 view .LVU154
 178:E:/MCU_Project/stm32/Target_tracking/user/My_Peripheral/OLED\oled.c **** 					  OLED_WR_DATA(~F8X16[c*16+i+8]);
 663              		.loc 1 178 9 is_stmt 0 view .LVU155
 664 008a 002E     		cmp	r6, #0
 665 008c F2D0     		beq	.L46
 179:E:/MCU_Project/stm32/Target_tracking/user/My_Peripheral/OLED\oled.c **** 				  else
 666              		.loc 1 179 8 is_stmt 1 view .LVU156
 179:E:/MCU_Project/stm32/Target_tracking/user/My_Peripheral/OLED\oled.c **** 				  else
 667              		.loc 1 179 32 is_stmt 0 view .LVU157
 668 008e 04EB0513 		add	r3, r4, r5, lsl #4
 179:E:/MCU_Project/stm32/Target_tracking/user/My_Peripheral/OLED\oled.c **** 				  else
 669              		.loc 1 179 34 view .LVU158
 670 0092 0833     		adds	r3, r3, #8
 179:E:/MCU_Project/stm32/Target_tracking/user/My_Peripheral/OLED\oled.c **** 				  else
 671              		.loc 1 179 27 view .LVU159
 672 0094 104A     		ldr	r2, .L58
 673 0096 D05C     		ldrb	r0, [r2, r3]	@ zero_extendqisi2
 179:E:/MCU_Project/stm32/Target_tracking/user/My_Peripheral/OLED\oled.c **** 				  else
 674              		.loc 1 179 8 view .LVU160
 675 0098 C043     		mvns	r0, r0
 676 009a C0B2     		uxtb	r0, r0
 677 009c FFF7FEFF 		bl	OLED_WR_DATA
 678              	.LVL72:
 679 00a0 EFE7     		b	.L47
 680              	.L51:
 189:E:/MCU_Project/stm32/Target_tracking/user/My_Peripheral/OLED\oled.c **** 			    {
 190:E:/MCU_Project/stm32/Target_tracking/user/My_Peripheral/OLED\oled.c **** 				  if(Color_Turn)
 191:E:/MCU_Project/stm32/Target_tracking/user/My_Peripheral/OLED\oled.c **** 					  OLED_WR_DATA(~F6x8[c][i]);
 192:E:/MCU_Project/stm32/Target_tracking/user/My_Peripheral/OLED\oled.c **** 				  else
 193:E:/MCU_Project/stm32/Target_tracking/user/My_Peripheral/OLED\oled.c **** 					  OLED_WR_DATA(F6x8[c][i]);
 681              		.loc 1 193 8 is_stmt 1 view .LVU161
 682 00a2 05EB4503 		add	r3, r5, r5, lsl #1
 683 00a6 0D4A     		ldr	r2, .L58+4
 684 00a8 02EB4303 		add	r3, r2, r3, lsl #1
 685 00ac 185D     		ldrb	r0, [r3, r4]	@ zero_extendqisi2
 686 00ae FFF7FEFF 		bl	OLED_WR_DATA
 687              	.LVL73:
 688              	.L52:
 188:E:/MCU_Project/stm32/Target_tracking/user/My_Peripheral/OLED\oled.c **** 			    {
 689              		.loc 1 188 17 discriminator 2 view .LVU162
 188:E:/MCU_Project/stm32/Target_tracking/user/My_Peripheral/OLED\oled.c **** 			    {
 690              		.loc 1 188 18 is_stmt 0 discriminator 2 view .LVU163
 691 00b2 0134     		adds	r4, r4, #1
 692              	.LVL74:
 188:E:/MCU_Project/stm32/Target_tracking/user/My_Peripheral/OLED\oled.c **** 			    {
 693              		.loc 1 188 18 discriminator 2 view .LVU164
 694 00b4 E4B2     		uxtb	r4, r4
 695              	.LVL75:
 696              	.L50:
 188:E:/MCU_Project/stm32/Target_tracking/user/My_Peripheral/OLED\oled.c **** 			    {
 697              		.loc 1 188 13 is_stmt 1 discriminator 1 view .LVU165
 188:E:/MCU_Project/stm32/Target_tracking/user/My_Peripheral/OLED\oled.c **** 			    {
 698              		.loc 1 188 5 is_stmt 0 discriminator 1 view .LVU166
 699 00b6 052C     		cmp	r4, #5
 700 00b8 0CD8     		bhi	.L38
 190:E:/MCU_Project/stm32/Target_tracking/user/My_Peripheral/OLED\oled.c **** 					  OLED_WR_DATA(~F6x8[c][i]);
ARM GAS  C:\Users\86390\AppData\Local\Temp\cc0lOyie.s 			page 18


 701              		.loc 1 190 7 is_stmt 1 view .LVU167
 190:E:/MCU_Project/stm32/Target_tracking/user/My_Peripheral/OLED\oled.c **** 					  OLED_WR_DATA(~F6x8[c][i]);
 702              		.loc 1 190 9 is_stmt 0 view .LVU168
 703 00ba 002E     		cmp	r6, #0
 704 00bc F1D0     		beq	.L51
 191:E:/MCU_Project/stm32/Target_tracking/user/My_Peripheral/OLED\oled.c **** 				  else
 705              		.loc 1 191 8 is_stmt 1 view .LVU169
 191:E:/MCU_Project/stm32/Target_tracking/user/My_Peripheral/OLED\oled.c **** 				  else
 706              		.loc 1 191 29 is_stmt 0 view .LVU170
 707 00be 05EB4503 		add	r3, r5, r5, lsl #1
 708 00c2 064A     		ldr	r2, .L58+4
 709 00c4 02EB4303 		add	r3, r2, r3, lsl #1
 710 00c8 185D     		ldrb	r0, [r3, r4]	@ zero_extendqisi2
 191:E:/MCU_Project/stm32/Target_tracking/user/My_Peripheral/OLED\oled.c **** 				  else
 711              		.loc 1 191 8 view .LVU171
 712 00ca C043     		mvns	r0, r0
 713 00cc C0B2     		uxtb	r0, r0
 714 00ce FFF7FEFF 		bl	OLED_WR_DATA
 715              	.LVL76:
 716 00d2 EEE7     		b	.L52
 717              	.L38:
 194:E:/MCU_Project/stm32/Target_tracking/user/My_Peripheral/OLED\oled.c **** 			    }
 195:E:/MCU_Project/stm32/Target_tracking/user/My_Peripheral/OLED\oled.c **** 		  }
 196:E:/MCU_Project/stm32/Target_tracking/user/My_Peripheral/OLED\oled.c **** }
 718              		.loc 1 196 1 view .LVU172
 719 00d4 BDE8F081 		pop	{r4, r5, r6, r7, r8, pc}
 720              	.LVL77:
 721              	.L59:
 722              		.loc 1 196 1 view .LVU173
 723              		.align	2
 724              	.L58:
 725 00d8 00000000 		.word	F8X16
 726 00dc 00000000 		.word	F6x8
 727              		.cfi_endproc
 728              	.LFE144:
 730              		.section	.text.OLED_ShowString,"ax",%progbits
 731              		.align	1
 732              		.global	OLED_ShowString
 733              		.syntax unified
 734              		.thumb
 735              		.thumb_func
 737              	OLED_ShowString:
 738              	.LVL78:
 739              	.LFB145:
 197:E:/MCU_Project/stm32/Target_tracking/user/My_Peripheral/OLED\oled.c ****  
 198:E:/MCU_Project/stm32/Target_tracking/user/My_Peripheral/OLED\oled.c **** /**
 199:E:/MCU_Project/stm32/Target_tracking/user/My_Peripheral/OLED\oled.c ****  * @function: void OLED_ShowString(uint8_t x, uint8_t y, uint8_t *chr, uint8_tChar_Size, uint8_t Co
 200:E:/MCU_Project/stm32/Target_tracking/user/My_Peripheral/OLED\oled.c ****  * @description: 在OLED12864特定位置开始显示字符串
 201:E:/MCU_Project/stm32/Target_tracking/user/My_Peripheral/OLED\oled.c ****  * @param {uint8_t} x待显示字符串的开始横坐标x:0~127
 202:E:/MCU_Project/stm32/Target_tracking/user/My_Peripheral/OLED\oled.c ****  * @param {uint8_t} y待显示字符串的开始纵坐标 y:0~7，若选择字体大小为16，则两行数字之间需要间隔2，
 203:E:/MCU_Project/stm32/Target_tracking/user/My_Peripheral/OLED\oled.c ****  * @param {uint8_t} *chr待显示的字符串
 204:E:/MCU_Project/stm32/Target_tracking/user/My_Peripheral/OLED\oled.c ****  * @param {uint8_t} Char_Size待显示字符串的字体大小,选择字体 16/12，16为8X16，12为6x8
 205:E:/MCU_Project/stm32/Target_tracking/user/My_Peripheral/OLED\oled.c ****  * @param {uint8_t} Color_Turn是否反相显示(1反相、0不反相)
 206:E:/MCU_Project/stm32/Target_tracking/user/My_Peripheral/OLED\oled.c ****  * @return {*}
 207:E:/MCU_Project/stm32/Target_tracking/user/My_Peripheral/OLED\oled.c ****  */
 208:E:/MCU_Project/stm32/Target_tracking/user/My_Peripheral/OLED\oled.c **** void OLED_ShowString(uint8_t x,uint8_t y,char*chr,uint8_t Char_Size, uint8_t Color_Turn)
 209:E:/MCU_Project/stm32/Target_tracking/user/My_Peripheral/OLED\oled.c **** {
ARM GAS  C:\Users\86390\AppData\Local\Temp\cc0lOyie.s 			page 19


 740              		.loc 1 209 1 is_stmt 1 view -0
 741              		.cfi_startproc
 742              		@ args = 4, pretend = 0, frame = 0
 743              		@ frame_needed = 0, uses_anonymous_args = 0
 744              		.loc 1 209 1 is_stmt 0 view .LVU175
 745 0000 2DE9F043 		push	{r4, r5, r6, r7, r8, r9, lr}
 746              	.LCFI13:
 747              		.cfi_def_cfa_offset 28
 748              		.cfi_offset 4, -28
 749              		.cfi_offset 5, -24
 750              		.cfi_offset 6, -20
 751              		.cfi_offset 7, -16
 752              		.cfi_offset 8, -12
 753              		.cfi_offset 9, -8
 754              		.cfi_offset 14, -4
 755 0004 83B0     		sub	sp, sp, #12
 756              	.LCFI14:
 757              		.cfi_def_cfa_offset 40
 758 0006 0446     		mov	r4, r0
 759 0008 0E46     		mov	r6, r1
 760 000a 1746     		mov	r7, r2
 761 000c 1D46     		mov	r5, r3
 762 000e 9DF82880 		ldrb	r8, [sp, #40]	@ zero_extendqisi2
 210:E:/MCU_Project/stm32/Target_tracking/user/My_Peripheral/OLED\oled.c **** 	uint8_t  j=0;
 763              		.loc 1 210 2 is_stmt 1 view .LVU176
 764              	.LVL79:
 211:E:/MCU_Project/stm32/Target_tracking/user/My_Peripheral/OLED\oled.c **** 	while (chr[j]!='\0')
 765              		.loc 1 211 2 view .LVU177
 210:E:/MCU_Project/stm32/Target_tracking/user/My_Peripheral/OLED\oled.c **** 	uint8_t  j=0;
 766              		.loc 1 210 11 is_stmt 0 view .LVU178
 767 0012 4FF00009 		mov	r9, #0
 768              		.loc 1 211 8 view .LVU179
 769 0016 09E0     		b	.L61
 770              	.LVL80:
 771              	.L69:
 212:E:/MCU_Project/stm32/Target_tracking/user/My_Peripheral/OLED\oled.c **** 	{		OLED_ShowChar(x,y,chr[j],Char_Size, Color_Turn);
 213:E:/MCU_Project/stm32/Target_tracking/user/My_Peripheral/OLED\oled.c **** 			if (Char_Size == 12) //6X8的字体列加6，显示下一个字符
 214:E:/MCU_Project/stm32/Target_tracking/user/My_Peripheral/OLED\oled.c **** 				x += 6;
 772              		.loc 1 214 5 is_stmt 1 view .LVU180
 773              		.loc 1 214 7 is_stmt 0 view .LVU181
 774 0018 0634     		adds	r4, r4, #6
 775              	.LVL81:
 776              		.loc 1 214 7 view .LVU182
 777 001a E4B2     		uxtb	r4, r4
 778              	.LVL82:
 779              		.loc 1 214 7 view .LVU183
 780 001c 14E0     		b	.L63
 781              	.L70:
 215:E:/MCU_Project/stm32/Target_tracking/user/My_Peripheral/OLED\oled.c **** 			else  //8X16的字体列加8，显示下一个字符
 216:E:/MCU_Project/stm32/Target_tracking/user/My_Peripheral/OLED\oled.c **** 				x += 8;
 217:E:/MCU_Project/stm32/Target_tracking/user/My_Peripheral/OLED\oled.c ****  
 218:E:/MCU_Project/stm32/Target_tracking/user/My_Peripheral/OLED\oled.c **** 			if (x > 122 && Char_Size==12) //TextSize6x8如果一行不够显示了，从下一行继续显示
 219:E:/MCU_Project/stm32/Target_tracking/user/My_Peripheral/OLED\oled.c **** 			{
 220:E:/MCU_Project/stm32/Target_tracking/user/My_Peripheral/OLED\oled.c **** 				x = 0;
 782              		.loc 1 220 5 is_stmt 1 view .LVU184
 783              	.LVL83:
 221:E:/MCU_Project/stm32/Target_tracking/user/My_Peripheral/OLED\oled.c **** 				y++;
ARM GAS  C:\Users\86390\AppData\Local\Temp\cc0lOyie.s 			page 20


 784              		.loc 1 221 5 view .LVU185
 785              		.loc 1 221 6 is_stmt 0 view .LVU186
 786 001e 0136     		adds	r6, r6, #1
 787              	.LVL84:
 788              		.loc 1 221 6 view .LVU187
 789 0020 F6B2     		uxtb	r6, r6
 790              	.LVL85:
 222:E:/MCU_Project/stm32/Target_tracking/user/My_Peripheral/OLED\oled.c **** 			}
 223:E:/MCU_Project/stm32/Target_tracking/user/My_Peripheral/OLED\oled.c **** 			if (x > 120 && Char_Size== 16) //TextSize8x16如果一行不够显示了，从下一行继续显示
 791              		.loc 1 223 4 is_stmt 1 view .LVU188
 220:E:/MCU_Project/stm32/Target_tracking/user/My_Peripheral/OLED\oled.c **** 				y++;
 792              		.loc 1 220 7 is_stmt 0 view .LVU189
 793 0022 0024     		movs	r4, #0
 794              	.LVL86:
 795              	.L65:
 224:E:/MCU_Project/stm32/Target_tracking/user/My_Peripheral/OLED\oled.c **** 			{
 225:E:/MCU_Project/stm32/Target_tracking/user/My_Peripheral/OLED\oled.c **** 				x = 0;
 226:E:/MCU_Project/stm32/Target_tracking/user/My_Peripheral/OLED\oled.c **** 				y++;
 227:E:/MCU_Project/stm32/Target_tracking/user/My_Peripheral/OLED\oled.c **** 			}
 228:E:/MCU_Project/stm32/Target_tracking/user/My_Peripheral/OLED\oled.c **** 			j++;
 796              		.loc 1 228 4 is_stmt 1 view .LVU190
 797              		.loc 1 228 5 is_stmt 0 view .LVU191
 798 0024 09F10100 		add	r0, r9, #1
 799 0028 5FFA80F9 		uxtb	r9, r0
 800              	.LVL87:
 801              	.L61:
 211:E:/MCU_Project/stm32/Target_tracking/user/My_Peripheral/OLED\oled.c **** 	{		OLED_ShowChar(x,y,chr[j],Char_Size, Color_Turn);
 802              		.loc 1 211 8 is_stmt 1 view .LVU192
 211:E:/MCU_Project/stm32/Target_tracking/user/My_Peripheral/OLED\oled.c **** 	{		OLED_ShowChar(x,y,chr[j],Char_Size, Color_Turn);
 803              		.loc 1 211 12 is_stmt 0 view .LVU193
 804 002c 17F80920 		ldrb	r2, [r7, r9]	@ zero_extendqisi2
 211:E:/MCU_Project/stm32/Target_tracking/user/My_Peripheral/OLED\oled.c **** 	{		OLED_ShowChar(x,y,chr[j],Char_Size, Color_Turn);
 805              		.loc 1 211 8 view .LVU194
 806 0030 B2B1     		cbz	r2, .L68
 212:E:/MCU_Project/stm32/Target_tracking/user/My_Peripheral/OLED\oled.c **** 			if (Char_Size == 12) //6X8的字体列加6，显示下一个字符
 807              		.loc 1 212 5 is_stmt 1 view .LVU195
 808 0032 CDF80080 		str	r8, [sp]
 809 0036 2B46     		mov	r3, r5
 810 0038 3146     		mov	r1, r6
 811 003a 2046     		mov	r0, r4
 812 003c FFF7FEFF 		bl	OLED_ShowChar
 813              	.LVL88:
 213:E:/MCU_Project/stm32/Target_tracking/user/My_Peripheral/OLED\oled.c **** 				x += 6;
 814              		.loc 1 213 4 view .LVU196
 213:E:/MCU_Project/stm32/Target_tracking/user/My_Peripheral/OLED\oled.c **** 				x += 6;
 815              		.loc 1 213 7 is_stmt 0 view .LVU197
 816 0040 0C2D     		cmp	r5, #12
 817 0042 E9D0     		beq	.L69
 216:E:/MCU_Project/stm32/Target_tracking/user/My_Peripheral/OLED\oled.c ****  
 818              		.loc 1 216 5 is_stmt 1 view .LVU198
 216:E:/MCU_Project/stm32/Target_tracking/user/My_Peripheral/OLED\oled.c ****  
 819              		.loc 1 216 7 is_stmt 0 view .LVU199
 820 0044 0834     		adds	r4, r4, #8
 821              	.LVL89:
 216:E:/MCU_Project/stm32/Target_tracking/user/My_Peripheral/OLED\oled.c ****  
 822              		.loc 1 216 7 view .LVU200
 823 0046 E4B2     		uxtb	r4, r4
ARM GAS  C:\Users\86390\AppData\Local\Temp\cc0lOyie.s 			page 21


 824              	.LVL90:
 825              	.L63:
 218:E:/MCU_Project/stm32/Target_tracking/user/My_Peripheral/OLED\oled.c **** 			{
 826              		.loc 1 218 4 is_stmt 1 view .LVU201
 218:E:/MCU_Project/stm32/Target_tracking/user/My_Peripheral/OLED\oled.c **** 			{
 827              		.loc 1 218 7 is_stmt 0 view .LVU202
 828 0048 7A2C     		cmp	r4, #122
 829 004a 01D9     		bls	.L64
 218:E:/MCU_Project/stm32/Target_tracking/user/My_Peripheral/OLED\oled.c **** 			{
 830              		.loc 1 218 16 discriminator 1 view .LVU203
 831 004c 0C2D     		cmp	r5, #12
 832 004e E6D0     		beq	.L70
 833              	.L64:
 223:E:/MCU_Project/stm32/Target_tracking/user/My_Peripheral/OLED\oled.c **** 			{
 834              		.loc 1 223 4 is_stmt 1 view .LVU204
 223:E:/MCU_Project/stm32/Target_tracking/user/My_Peripheral/OLED\oled.c **** 			{
 835              		.loc 1 223 7 is_stmt 0 view .LVU205
 836 0050 782C     		cmp	r4, #120
 837 0052 E7D9     		bls	.L65
 223:E:/MCU_Project/stm32/Target_tracking/user/My_Peripheral/OLED\oled.c **** 			{
 838              		.loc 1 223 16 discriminator 1 view .LVU206
 839 0054 102D     		cmp	r5, #16
 840 0056 E5D1     		bne	.L65
 225:E:/MCU_Project/stm32/Target_tracking/user/My_Peripheral/OLED\oled.c **** 				y++;
 841              		.loc 1 225 5 is_stmt 1 view .LVU207
 842              	.LVL91:
 226:E:/MCU_Project/stm32/Target_tracking/user/My_Peripheral/OLED\oled.c **** 			}
 843              		.loc 1 226 5 view .LVU208
 226:E:/MCU_Project/stm32/Target_tracking/user/My_Peripheral/OLED\oled.c **** 			}
 844              		.loc 1 226 6 is_stmt 0 view .LVU209
 845 0058 0136     		adds	r6, r6, #1
 846              	.LVL92:
 226:E:/MCU_Project/stm32/Target_tracking/user/My_Peripheral/OLED\oled.c **** 			}
 847              		.loc 1 226 6 view .LVU210
 848 005a F6B2     		uxtb	r6, r6
 849              	.LVL93:
 225:E:/MCU_Project/stm32/Target_tracking/user/My_Peripheral/OLED\oled.c **** 				y++;
 850              		.loc 1 225 7 view .LVU211
 851 005c 0024     		movs	r4, #0
 852 005e E1E7     		b	.L65
 853              	.LVL94:
 854              	.L68:
 229:E:/MCU_Project/stm32/Target_tracking/user/My_Peripheral/OLED\oled.c **** 	}
 230:E:/MCU_Project/stm32/Target_tracking/user/My_Peripheral/OLED\oled.c **** }
 855              		.loc 1 230 1 view .LVU212
 856 0060 03B0     		add	sp, sp, #12
 857              	.LCFI15:
 858              		.cfi_def_cfa_offset 28
 859              		@ sp needed
 860 0062 BDE8F083 		pop	{r4, r5, r6, r7, r8, r9, pc}
 861              		.loc 1 230 1 view .LVU213
 862              		.cfi_endproc
 863              	.LFE145:
 865              		.section	.text.OLED_ShowNum,"ax",%progbits
 866              		.align	1
 867              		.global	OLED_ShowNum
 868              		.syntax unified
ARM GAS  C:\Users\86390\AppData\Local\Temp\cc0lOyie.s 			page 22


 869              		.thumb
 870              		.thumb_func
 872              	OLED_ShowNum:
 873              	.LVL95:
 874              	.LFB146:
 231:E:/MCU_Project/stm32/Target_tracking/user/My_Peripheral/OLED\oled.c ****  
 232:E:/MCU_Project/stm32/Target_tracking/user/My_Peripheral/OLED\oled.c **** /**
 233:E:/MCU_Project/stm32/Target_tracking/user/My_Peripheral/OLED\oled.c ****  * @function: void OLED_ShowNum(uint8_t x,uint8_t y,unsigned int num,uint8_t len,uint8_t size2, Col
 234:E:/MCU_Project/stm32/Target_tracking/user/My_Peripheral/OLED\oled.c ****  * @description: 显示数字
 235:E:/MCU_Project/stm32/Target_tracking/user/My_Peripheral/OLED\oled.c ****  * @param {uint8_t} x待显示的数字起始横坐标,x:0~126
 236:E:/MCU_Project/stm32/Target_tracking/user/My_Peripheral/OLED\oled.c ****  * @param {uint8_t} y待显示的数字起始纵坐标, y:0~7，若选择字体大小为16，则两行数字之间需要间隔2，若
 237:E:/MCU_Project/stm32/Target_tracking/user/My_Peripheral/OLED\oled.c ****  * @param {unsigned int} num:输入的数据
 238:E:/MCU_Project/stm32/Target_tracking/user/My_Peripheral/OLED\oled.c ****  * @param {uint8_t } len:输入的数据位数
 239:E:/MCU_Project/stm32/Target_tracking/user/My_Peripheral/OLED\oled.c ****  * @param {uint8_t} size2:输入的数据大小，选择 16/12，16为8X16，12为6x8
 240:E:/MCU_Project/stm32/Target_tracking/user/My_Peripheral/OLED\oled.c ****  * @param {uint8_t} Color_Turn是否反相显示(1反相、0不反相)
 241:E:/MCU_Project/stm32/Target_tracking/user/My_Peripheral/OLED\oled.c ****  * @return {*}
 242:E:/MCU_Project/stm32/Target_tracking/user/My_Peripheral/OLED\oled.c ****  */
 243:E:/MCU_Project/stm32/Target_tracking/user/My_Peripheral/OLED\oled.c **** void OLED_ShowNum(uint8_t x,uint8_t y,unsigned int num,uint8_t len,uint8_t size2, uint8_t Color_Tur
 244:E:/MCU_Project/stm32/Target_tracking/user/My_Peripheral/OLED\oled.c **** {
 875              		.loc 1 244 1 is_stmt 1 view -0
 876              		.cfi_startproc
 877              		@ args = 8, pretend = 0, frame = 0
 878              		@ frame_needed = 0, uses_anonymous_args = 0
 879              		.loc 1 244 1 is_stmt 0 view .LVU215
 880 0000 2DE9F04F 		push	{r4, r5, r6, r7, r8, r9, r10, fp, lr}
 881              	.LCFI16:
 882              		.cfi_def_cfa_offset 36
 883              		.cfi_offset 4, -36
 884              		.cfi_offset 5, -32
 885              		.cfi_offset 6, -28
 886              		.cfi_offset 7, -24
 887              		.cfi_offset 8, -20
 888              		.cfi_offset 9, -16
 889              		.cfi_offset 10, -12
 890              		.cfi_offset 11, -8
 891              		.cfi_offset 14, -4
 892 0004 83B0     		sub	sp, sp, #12
 893              	.LCFI17:
 894              		.cfi_def_cfa_offset 48
 895 0006 8246     		mov	r10, r0
 896 0008 8946     		mov	r9, r1
 897 000a 9046     		mov	r8, r2
 898 000c 1D46     		mov	r5, r3
 899 000e 9DF83060 		ldrb	r6, [sp, #48]	@ zero_extendqisi2
 900 0012 9DF834B0 		ldrb	fp, [sp, #52]	@ zero_extendqisi2
 245:E:/MCU_Project/stm32/Target_tracking/user/My_Peripheral/OLED\oled.c **** 	uint8_t t,temp;
 901              		.loc 1 245 2 is_stmt 1 view .LVU216
 246:E:/MCU_Project/stm32/Target_tracking/user/My_Peripheral/OLED\oled.c **** 	uint8_t enshow=0;
 902              		.loc 1 246 2 view .LVU217
 903              	.LVL96:
 247:E:/MCU_Project/stm32/Target_tracking/user/My_Peripheral/OLED\oled.c **** 	for(t=0;t<len;t++)
 904              		.loc 1 247 2 view .LVU218
 246:E:/MCU_Project/stm32/Target_tracking/user/My_Peripheral/OLED\oled.c **** 	uint8_t enshow=0;
 905              		.loc 1 246 10 is_stmt 0 view .LVU219
 906 0016 0027     		movs	r7, #0
 907              		.loc 1 247 7 view .LVU220
 908 0018 3C46     		mov	r4, r7
ARM GAS  C:\Users\86390\AppData\Local\Temp\cc0lOyie.s 			page 23


 909              		.loc 1 247 2 view .LVU221
 910 001a 1DE0     		b	.L72
 911              	.LVL97:
 912              	.L79:
 248:E:/MCU_Project/stm32/Target_tracking/user/My_Peripheral/OLED\oled.c **** 	{
 249:E:/MCU_Project/stm32/Target_tracking/user/My_Peripheral/OLED\oled.c **** 		temp=(num/oled_pow(10,len-t-1))%10;
 250:E:/MCU_Project/stm32/Target_tracking/user/My_Peripheral/OLED\oled.c **** 		if(enshow==0&&t<(len-1))
 251:E:/MCU_Project/stm32/Target_tracking/user/My_Peripheral/OLED\oled.c **** 		{
 252:E:/MCU_Project/stm32/Target_tracking/user/My_Peripheral/OLED\oled.c **** 			if(temp==0)
 253:E:/MCU_Project/stm32/Target_tracking/user/My_Peripheral/OLED\oled.c **** 			{
 254:E:/MCU_Project/stm32/Target_tracking/user/My_Peripheral/OLED\oled.c **** 				OLED_ShowChar(x+(size2/2)*t,y,' ',size2, Color_Turn);
 913              		.loc 1 254 5 is_stmt 1 view .LVU222
 914              		.loc 1 254 30 is_stmt 0 view .LVU223
 915 001c 7008     		lsrs	r0, r6, #1
 916 001e 10FB04F0 		smulbb	r0, r0, r4
 917              		.loc 1 254 5 view .LVU224
 918 0022 5AFA80F0 		uxtab	r0, r10, r0
 919 0026 CDF800B0 		str	fp, [sp]
 920 002a 3346     		mov	r3, r6
 921 002c 2022     		movs	r2, #32
 922              	.LVL98:
 923              		.loc 1 254 5 view .LVU225
 924 002e 4946     		mov	r1, r9
 925 0030 C0B2     		uxtb	r0, r0
 926 0032 FFF7FEFF 		bl	OLED_ShowChar
 927              	.LVL99:
 255:E:/MCU_Project/stm32/Target_tracking/user/My_Peripheral/OLED\oled.c **** 				continue;
 928              		.loc 1 255 5 is_stmt 1 view .LVU226
 929 0036 0DE0     		b	.L74
 930              	.LVL100:
 931              	.L73:
 256:E:/MCU_Project/stm32/Target_tracking/user/My_Peripheral/OLED\oled.c **** 			}else enshow=1;
 257:E:/MCU_Project/stm32/Target_tracking/user/My_Peripheral/OLED\oled.c ****  
 258:E:/MCU_Project/stm32/Target_tracking/user/My_Peripheral/OLED\oled.c **** 		}
 259:E:/MCU_Project/stm32/Target_tracking/user/My_Peripheral/OLED\oled.c **** 	 	OLED_ShowChar(x+(size2/2)*t,y,temp+'0',size2, Color_Turn);
 932              		.loc 1 259 4 view .LVU227
 933              		.loc 1 259 29 is_stmt 0 view .LVU228
 934 0038 7008     		lsrs	r0, r6, #1
 935 003a 10FB04F0 		smulbb	r0, r0, r4
 936              		.loc 1 259 4 view .LVU229
 937 003e 3032     		adds	r2, r2, #48
 938              	.LVL101:
 939              		.loc 1 259 4 view .LVU230
 940 0040 5AFA80F0 		uxtab	r0, r10, r0
 941 0044 CDF800B0 		str	fp, [sp]
 942 0048 3346     		mov	r3, r6
 943 004a D2B2     		uxtb	r2, r2
 944              	.LVL102:
 945              		.loc 1 259 4 view .LVU231
 946 004c 4946     		mov	r1, r9
 947 004e C0B2     		uxtb	r0, r0
 948 0050 FFF7FEFF 		bl	OLED_ShowChar
 949              	.LVL103:
 950              	.L74:
 247:E:/MCU_Project/stm32/Target_tracking/user/My_Peripheral/OLED\oled.c **** 	{
 951              		.loc 1 247 16 is_stmt 1 discriminator 2 view .LVU232
 247:E:/MCU_Project/stm32/Target_tracking/user/My_Peripheral/OLED\oled.c **** 	{
ARM GAS  C:\Users\86390\AppData\Local\Temp\cc0lOyie.s 			page 24


 952              		.loc 1 247 17 is_stmt 0 discriminator 2 view .LVU233
 953 0054 0134     		adds	r4, r4, #1
 954              	.LVL104:
 247:E:/MCU_Project/stm32/Target_tracking/user/My_Peripheral/OLED\oled.c **** 	{
 955              		.loc 1 247 17 discriminator 2 view .LVU234
 956 0056 E4B2     		uxtb	r4, r4
 957              	.LVL105:
 958              	.L72:
 247:E:/MCU_Project/stm32/Target_tracking/user/My_Peripheral/OLED\oled.c **** 	{
 959              		.loc 1 247 10 is_stmt 1 discriminator 1 view .LVU235
 247:E:/MCU_Project/stm32/Target_tracking/user/My_Peripheral/OLED\oled.c **** 	{
 960              		.loc 1 247 2 is_stmt 0 discriminator 1 view .LVU236
 961 0058 AC42     		cmp	r4, r5
 962 005a 1AD2     		bcs	.L78
 249:E:/MCU_Project/stm32/Target_tracking/user/My_Peripheral/OLED\oled.c **** 		if(enshow==0&&t<(len-1))
 963              		.loc 1 249 3 is_stmt 1 view .LVU237
 249:E:/MCU_Project/stm32/Target_tracking/user/My_Peripheral/OLED\oled.c **** 		if(enshow==0&&t<(len-1))
 964              		.loc 1 249 28 is_stmt 0 view .LVU238
 965 005c 291B     		subs	r1, r5, r4
 966 005e C9B2     		uxtb	r1, r1
 249:E:/MCU_Project/stm32/Target_tracking/user/My_Peripheral/OLED\oled.c **** 		if(enshow==0&&t<(len-1))
 967              		.loc 1 249 13 view .LVU239
 968 0060 0139     		subs	r1, r1, #1
 969 0062 C9B2     		uxtb	r1, r1
 970 0064 0A20     		movs	r0, #10
 971 0066 FFF7FEFF 		bl	oled_pow
 972              	.LVL106:
 249:E:/MCU_Project/stm32/Target_tracking/user/My_Peripheral/OLED\oled.c **** 		if(enshow==0&&t<(len-1))
 973              		.loc 1 249 12 view .LVU240
 974 006a B8FBF0F0 		udiv	r0, r8, r0
 249:E:/MCU_Project/stm32/Target_tracking/user/My_Peripheral/OLED\oled.c **** 		if(enshow==0&&t<(len-1))
 975              		.loc 1 249 34 view .LVU241
 976 006e 0A4A     		ldr	r2, .L80
 977 0070 A2FB0032 		umull	r3, r2, r2, r0
 978 0074 D208     		lsrs	r2, r2, #3
 979 0076 02EB8202 		add	r2, r2, r2, lsl #2
 980 007a A0EB4202 		sub	r2, r0, r2, lsl #1
 249:E:/MCU_Project/stm32/Target_tracking/user/My_Peripheral/OLED\oled.c **** 		if(enshow==0&&t<(len-1))
 981              		.loc 1 249 7 view .LVU242
 982 007e D2B2     		uxtb	r2, r2
 983              	.LVL107:
 250:E:/MCU_Project/stm32/Target_tracking/user/My_Peripheral/OLED\oled.c **** 		{
 984              		.loc 1 250 3 is_stmt 1 view .LVU243
 250:E:/MCU_Project/stm32/Target_tracking/user/My_Peripheral/OLED\oled.c **** 		{
 985              		.loc 1 250 5 is_stmt 0 view .LVU244
 986 0080 002F     		cmp	r7, #0
 987 0082 D9D1     		bne	.L73
 250:E:/MCU_Project/stm32/Target_tracking/user/My_Peripheral/OLED\oled.c **** 		{
 988              		.loc 1 250 23 discriminator 1 view .LVU245
 989 0084 6B1E     		subs	r3, r5, #1
 250:E:/MCU_Project/stm32/Target_tracking/user/My_Peripheral/OLED\oled.c **** 		{
 990              		.loc 1 250 15 discriminator 1 view .LVU246
 991 0086 9C42     		cmp	r4, r3
 992 0088 D6DA     		bge	.L73
 252:E:/MCU_Project/stm32/Target_tracking/user/My_Peripheral/OLED\oled.c **** 			{
 993              		.loc 1 252 4 is_stmt 1 view .LVU247
 252:E:/MCU_Project/stm32/Target_tracking/user/My_Peripheral/OLED\oled.c **** 			{
ARM GAS  C:\Users\86390\AppData\Local\Temp\cc0lOyie.s 			page 25


 994              		.loc 1 252 6 is_stmt 0 view .LVU248
 995 008a 002A     		cmp	r2, #0
 996 008c C6D0     		beq	.L79
 256:E:/MCU_Project/stm32/Target_tracking/user/My_Peripheral/OLED\oled.c ****  
 997              		.loc 1 256 16 view .LVU249
 998 008e 0127     		movs	r7, #1
 999              	.LVL108:
 256:E:/MCU_Project/stm32/Target_tracking/user/My_Peripheral/OLED\oled.c ****  
 1000              		.loc 1 256 16 view .LVU250
 1001 0090 D2E7     		b	.L73
 1002              	.LVL109:
 1003              	.L78:
 260:E:/MCU_Project/stm32/Target_tracking/user/My_Peripheral/OLED\oled.c **** 	}
 261:E:/MCU_Project/stm32/Target_tracking/user/My_Peripheral/OLED\oled.c **** }
 1004              		.loc 1 261 1 view .LVU251
 1005 0092 03B0     		add	sp, sp, #12
 1006              	.LCFI18:
 1007              		.cfi_def_cfa_offset 36
 1008              		@ sp needed
 1009 0094 BDE8F08F 		pop	{r4, r5, r6, r7, r8, r9, r10, fp, pc}
 1010              	.LVL110:
 1011              	.L81:
 1012              		.loc 1 261 1 view .LVU252
 1013              		.align	2
 1014              	.L80:
 1015 0098 CDCCCCCC 		.word	-858993459
 1016              		.cfi_endproc
 1017              	.LFE146:
 1019              		.section	.text.OLED_Showdecimal,"ax",%progbits
 1020              		.align	1
 1021              		.global	OLED_Showdecimal
 1022              		.syntax unified
 1023              		.thumb
 1024              		.thumb_func
 1026              	OLED_Showdecimal:
 1027              	.LVL111:
 1028              	.LFB147:
 262:E:/MCU_Project/stm32/Target_tracking/user/My_Peripheral/OLED\oled.c ****  
 263:E:/MCU_Project/stm32/Target_tracking/user/My_Peripheral/OLED\oled.c ****  
 264:E:/MCU_Project/stm32/Target_tracking/user/My_Peripheral/OLED\oled.c **** /**
 265:E:/MCU_Project/stm32/Target_tracking/user/My_Peripheral/OLED\oled.c ****  * @function: void OLED_Showdecimal(uint8_t x,uint8_t y,float num,uint8_t z_len,uint8_t f_len,uint8
 266:E:/MCU_Project/stm32/Target_tracking/user/My_Peripheral/OLED\oled.c ****  * @description: 显示正负浮点数
 267:E:/MCU_Project/stm32/Target_tracking/user/My_Peripheral/OLED\oled.c ****  * @param {uint8_t} x待显示的数字起始横坐标,x:0~126
 268:E:/MCU_Project/stm32/Target_tracking/user/My_Peripheral/OLED\oled.c ****  * @param {uint8_t} y待显示的数字起始纵坐标, y:0~7，若选择字体大小为16，则两行数字之间需要间隔2，若
 269:E:/MCU_Project/stm32/Target_tracking/user/My_Peripheral/OLED\oled.c ****  * @param {float} num:输入的浮点型数据
 270:E:/MCU_Project/stm32/Target_tracking/user/My_Peripheral/OLED\oled.c ****  * @param {uint8_t } z_ len:整数部分的位数
 271:E:/MCU_Project/stm32/Target_tracking/user/My_Peripheral/OLED\oled.c ****  * @param {uint8_t } f_len: 小数部分的位数
 272:E:/MCU_Project/stm32/Target_tracking/user/My_Peripheral/OLED\oled.c ****  * @param {uint8_t} size2:输入的数据大小，选择 16/12，16为8X16，12为6x8
 273:E:/MCU_Project/stm32/Target_tracking/user/My_Peripheral/OLED\oled.c ****  * @param {uint8_t} Color_Turn是否反相显示(1反相、0不反相)
 274:E:/MCU_Project/stm32/Target_tracking/user/My_Peripheral/OLED\oled.c ****  * @return {*}
 275:E:/MCU_Project/stm32/Target_tracking/user/My_Peripheral/OLED\oled.c ****  */
 276:E:/MCU_Project/stm32/Target_tracking/user/My_Peripheral/OLED\oled.c **** void OLED_Showdecimal(uint8_t x,uint8_t y,float num,uint8_t z_len,uint8_t f_len,uint8_t size2, uint
 277:E:/MCU_Project/stm32/Target_tracking/user/My_Peripheral/OLED\oled.c **** {
 1029              		.loc 1 277 1 is_stmt 1 view -0
 1030              		.cfi_startproc
 1031              		@ args = 8, pretend = 0, frame = 8
 1032              		@ frame_needed = 0, uses_anonymous_args = 0
ARM GAS  C:\Users\86390\AppData\Local\Temp\cc0lOyie.s 			page 26


 1033              		.loc 1 277 1 is_stmt 0 view .LVU254
 1034 0000 2DE9F04F 		push	{r4, r5, r6, r7, r8, r9, r10, fp, lr}
 1035              	.LCFI19:
 1036              		.cfi_def_cfa_offset 36
 1037              		.cfi_offset 4, -36
 1038              		.cfi_offset 5, -32
 1039              		.cfi_offset 6, -28
 1040              		.cfi_offset 7, -24
 1041              		.cfi_offset 8, -20
 1042              		.cfi_offset 9, -16
 1043              		.cfi_offset 10, -12
 1044              		.cfi_offset 11, -8
 1045              		.cfi_offset 14, -4
 1046 0004 2DED028B 		vpush.64	{d8}
 1047              	.LCFI20:
 1048              		.cfi_def_cfa_offset 44
 1049              		.cfi_offset 80, -44
 1050              		.cfi_offset 81, -40
 1051 0008 85B0     		sub	sp, sp, #20
 1052              	.LCFI21:
 1053              		.cfi_def_cfa_offset 64
 1054 000a 8046     		mov	r8, r0
 1055 000c 8946     		mov	r9, r1
 1056 000e B0EE408A 		vmov.f32	s16, s0
 1057 0012 1546     		mov	r5, r2
 1058 0014 1F46     		mov	r7, r3
 1059 0016 9DF84060 		ldrb	r6, [sp, #64]	@ zero_extendqisi2
 1060 001a 9DF844A0 		ldrb	r10, [sp, #68]	@ zero_extendqisi2
 278:E:/MCU_Project/stm32/Target_tracking/user/My_Peripheral/OLED\oled.c **** 	uint8_t t,temp,i=0;//i为负数标志位
 1061              		.loc 1 278 2 is_stmt 1 view .LVU255
 1062              	.LVL112:
 279:E:/MCU_Project/stm32/Target_tracking/user/My_Peripheral/OLED\oled.c **** 	uint8_t enshow;
 1063              		.loc 1 279 2 view .LVU256
 280:E:/MCU_Project/stm32/Target_tracking/user/My_Peripheral/OLED\oled.c **** 	int z_temp,f_temp;
 1064              		.loc 1 280 2 view .LVU257
 281:E:/MCU_Project/stm32/Target_tracking/user/My_Peripheral/OLED\oled.c **** 	if(num<0)
 1065              		.loc 1 281 2 view .LVU258
 1066              		.loc 1 281 4 is_stmt 0 view .LVU259
 1067 001e B5EEC00A 		vcmpe.f32	s0, #0
 1068 0022 F1EE10FA 		vmrs	APSR_nzcv, FPSCR
 1069 0026 0BD4     		bmi	.L94
 278:E:/MCU_Project/stm32/Target_tracking/user/My_Peripheral/OLED\oled.c **** 	uint8_t enshow;
 1070              		.loc 1 278 17 view .LVU260
 1071 0028 0023     		movs	r3, #0
 1072              	.LVL113:
 278:E:/MCU_Project/stm32/Target_tracking/user/My_Peripheral/OLED\oled.c **** 	uint8_t enshow;
 1073              		.loc 1 278 17 view .LVU261
 1074 002a 0393     		str	r3, [sp, #12]
 1075              	.LVL114:
 1076              	.L83:
 282:E:/MCU_Project/stm32/Target_tracking/user/My_Peripheral/OLED\oled.c **** 	{
 283:E:/MCU_Project/stm32/Target_tracking/user/My_Peripheral/OLED\oled.c **** 		z_len+=1;
 284:E:/MCU_Project/stm32/Target_tracking/user/My_Peripheral/OLED\oled.c **** 		i=1;
 285:E:/MCU_Project/stm32/Target_tracking/user/My_Peripheral/OLED\oled.c **** 		num=-num;
 286:E:/MCU_Project/stm32/Target_tracking/user/My_Peripheral/OLED\oled.c **** 	}
 287:E:/MCU_Project/stm32/Target_tracking/user/My_Peripheral/OLED\oled.c **** 	z_temp=(int)num;
 1077              		.loc 1 287 2 is_stmt 1 view .LVU262
ARM GAS  C:\Users\86390\AppData\Local\Temp\cc0lOyie.s 			page 27


 1078              		.loc 1 287 8 is_stmt 0 view .LVU263
 1079 002c FDEEC87A 		vcvt.s32.f32	s15, s16
 1080 0030 17EE904A 		vmov	r4, s15	@ int
 1081              	.LVL115:
 288:E:/MCU_Project/stm32/Target_tracking/user/My_Peripheral/OLED\oled.c **** 	//整数部分
 289:E:/MCU_Project/stm32/Target_tracking/user/My_Peripheral/OLED\oled.c **** 	for(t=0;t<z_len;t++)
 1082              		.loc 1 289 2 is_stmt 1 view .LVU264
 1083              		.loc 1 289 7 is_stmt 0 view .LVU265
 1084 0034 4FF0000B 		mov	fp, #0
 1085 0038 5346     		mov	r3, r10
 1086 003a BA46     		mov	r10, r7
 1087 003c 1F46     		mov	r7, r3
 1088              		.loc 1 289 2 view .LVU266
 1089 003e 2AE0     		b	.L85
 1090              	.LVL116:
 1091              	.L94:
 283:E:/MCU_Project/stm32/Target_tracking/user/My_Peripheral/OLED\oled.c **** 		i=1;
 1092              		.loc 1 283 3 is_stmt 1 view .LVU267
 283:E:/MCU_Project/stm32/Target_tracking/user/My_Peripheral/OLED\oled.c **** 		i=1;
 1093              		.loc 1 283 8 is_stmt 0 view .LVU268
 1094 0040 0135     		adds	r5, r5, #1
 1095 0042 EDB2     		uxtb	r5, r5
 1096              	.LVL117:
 284:E:/MCU_Project/stm32/Target_tracking/user/My_Peripheral/OLED\oled.c **** 		num=-num;
 1097              		.loc 1 284 3 is_stmt 1 view .LVU269
 285:E:/MCU_Project/stm32/Target_tracking/user/My_Peripheral/OLED\oled.c **** 	}
 1098              		.loc 1 285 3 view .LVU270
 285:E:/MCU_Project/stm32/Target_tracking/user/My_Peripheral/OLED\oled.c **** 	}
 1099              		.loc 1 285 6 is_stmt 0 view .LVU271
 1100 0044 B1EE408A 		vneg.f32	s16, s0
 1101              	.LVL118:
 284:E:/MCU_Project/stm32/Target_tracking/user/My_Peripheral/OLED\oled.c **** 		num=-num;
 1102              		.loc 1 284 4 view .LVU272
 1103 0048 0123     		movs	r3, #1
 1104              	.LVL119:
 284:E:/MCU_Project/stm32/Target_tracking/user/My_Peripheral/OLED\oled.c **** 		num=-num;
 1105              		.loc 1 284 4 view .LVU273
 1106 004a 0393     		str	r3, [sp, #12]
 1107 004c EEE7     		b	.L83
 1108              	.LVL120:
 1109              	.L86:
 290:E:/MCU_Project/stm32/Target_tracking/user/My_Peripheral/OLED\oled.c **** 	{
 291:E:/MCU_Project/stm32/Target_tracking/user/My_Peripheral/OLED\oled.c **** 		temp=(z_temp/oled_pow(10,z_len-t-1))%10;
 1110              		.loc 1 291 3 is_stmt 1 view .LVU274
 1111              		.loc 1 291 33 is_stmt 0 view .LVU275
 1112 004e A5EB0B01 		sub	r1, r5, fp
 1113 0052 C9B2     		uxtb	r1, r1
 1114              		.loc 1 291 16 view .LVU276
 1115 0054 0139     		subs	r1, r1, #1
 1116 0056 C9B2     		uxtb	r1, r1
 1117 0058 0A20     		movs	r0, #10
 1118 005a FFF7FEFF 		bl	oled_pow
 1119              	.LVL121:
 1120              		.loc 1 291 15 view .LVU277
 1121 005e B4FBF0F0 		udiv	r0, r4, r0
 1122              		.loc 1 291 39 view .LVU278
 1123 0062 3C4A     		ldr	r2, .L96
ARM GAS  C:\Users\86390\AppData\Local\Temp\cc0lOyie.s 			page 28


 1124 0064 A2FB0032 		umull	r3, r2, r2, r0
 1125 0068 D208     		lsrs	r2, r2, #3
 1126 006a 02EB8202 		add	r2, r2, r2, lsl #2
 1127 006e A0EB4202 		sub	r2, r0, r2, lsl #1
 1128              		.loc 1 291 7 view .LVU279
 1129 0072 D2B2     		uxtb	r2, r2
 1130              	.LVL122:
 292:E:/MCU_Project/stm32/Target_tracking/user/My_Peripheral/OLED\oled.c **** 		if(enshow==0 && t<(z_len-1))
 1131              		.loc 1 292 3 is_stmt 1 view .LVU280
 293:E:/MCU_Project/stm32/Target_tracking/user/My_Peripheral/OLED\oled.c **** 		{
 294:E:/MCU_Project/stm32/Target_tracking/user/My_Peripheral/OLED\oled.c **** 			if(temp==0)
 295:E:/MCU_Project/stm32/Target_tracking/user/My_Peripheral/OLED\oled.c **** 			{
 296:E:/MCU_Project/stm32/Target_tracking/user/My_Peripheral/OLED\oled.c **** 				OLED_ShowChar(x+(size2/2)*t,y,' ',size2, Color_Turn);
 297:E:/MCU_Project/stm32/Target_tracking/user/My_Peripheral/OLED\oled.c **** 				continue;
 298:E:/MCU_Project/stm32/Target_tracking/user/My_Peripheral/OLED\oled.c **** 			}
 299:E:/MCU_Project/stm32/Target_tracking/user/My_Peripheral/OLED\oled.c **** 			else
 300:E:/MCU_Project/stm32/Target_tracking/user/My_Peripheral/OLED\oled.c **** 			enshow=1;
 301:E:/MCU_Project/stm32/Target_tracking/user/My_Peripheral/OLED\oled.c **** 		}
 302:E:/MCU_Project/stm32/Target_tracking/user/My_Peripheral/OLED\oled.c **** 		OLED_ShowChar(x+(size2/2)*t,y,temp+'0',size2, Color_Turn);
 1132              		.loc 1 302 3 view .LVU281
 1133              		.loc 1 302 28 is_stmt 0 view .LVU282
 1134 0074 7008     		lsrs	r0, r6, #1
 1135 0076 10FB0BF0 		smulbb	r0, r0, fp
 1136              		.loc 1 302 3 view .LVU283
 1137 007a 3032     		adds	r2, r2, #48
 1138              	.LVL123:
 1139              		.loc 1 302 3 view .LVU284
 1140 007c 58FA80F0 		uxtab	r0, r8, r0
 1141 0080 0097     		str	r7, [sp]
 1142 0082 3346     		mov	r3, r6
 1143 0084 D2B2     		uxtb	r2, r2
 1144              	.LVL124:
 1145              		.loc 1 302 3 view .LVU285
 1146 0086 4946     		mov	r1, r9
 1147 0088 C0B2     		uxtb	r0, r0
 1148 008a FFF7FEFF 		bl	OLED_ShowChar
 1149              	.LVL125:
 289:E:/MCU_Project/stm32/Target_tracking/user/My_Peripheral/OLED\oled.c **** 	{
 1150              		.loc 1 289 18 is_stmt 1 view .LVU286
 289:E:/MCU_Project/stm32/Target_tracking/user/My_Peripheral/OLED\oled.c **** 	{
 1151              		.loc 1 289 19 is_stmt 0 view .LVU287
 1152 008e 0BF1010B 		add	fp, fp, #1
 1153              	.LVL126:
 289:E:/MCU_Project/stm32/Target_tracking/user/My_Peripheral/OLED\oled.c **** 	{
 1154              		.loc 1 289 19 view .LVU288
 1155 0092 5FFA8BFB 		uxtb	fp, fp
 1156              	.LVL127:
 1157              	.L85:
 289:E:/MCU_Project/stm32/Target_tracking/user/My_Peripheral/OLED\oled.c **** 	{
 1158              		.loc 1 289 10 is_stmt 1 discriminator 1 view .LVU289
 289:E:/MCU_Project/stm32/Target_tracking/user/My_Peripheral/OLED\oled.c **** 	{
 1159              		.loc 1 289 2 is_stmt 0 discriminator 1 view .LVU290
 1160 0096 5D45     		cmp	r5, fp
 1161 0098 D9D8     		bhi	.L86
 303:E:/MCU_Project/stm32/Target_tracking/user/My_Peripheral/OLED\oled.c **** 	}
 304:E:/MCU_Project/stm32/Target_tracking/user/My_Peripheral/OLED\oled.c **** 	//小数点
 305:E:/MCU_Project/stm32/Target_tracking/user/My_Peripheral/OLED\oled.c **** 	OLED_ShowChar(x+(size2/2)*(z_len),y,'.',size2, Color_Turn);
ARM GAS  C:\Users\86390\AppData\Local\Temp\cc0lOyie.s 			page 29


 1162              		.loc 1 305 27 view .LVU291
 1163 009a 3B46     		mov	r3, r7
 1164 009c 5746     		mov	r7, r10
 1165 009e 9A46     		mov	r10, r3
 1166              		.loc 1 305 2 is_stmt 1 view .LVU292
 1167              		.loc 1 305 27 is_stmt 0 view .LVU293
 1168 00a0 4FEA560B 		lsr	fp, r6, #1
 1169              	.LVL128:
 1170              		.loc 1 305 27 view .LVU294
 1171 00a4 1BFB05F0 		smulbb	r0, fp, r5
 1172              		.loc 1 305 2 view .LVU295
 1173 00a8 58FA80F0 		uxtab	r0, r8, r0
 1174 00ac 0093     		str	r3, [sp]
 1175 00ae 3346     		mov	r3, r6
 1176 00b0 2E22     		movs	r2, #46
 1177 00b2 4946     		mov	r1, r9
 1178 00b4 C0B2     		uxtb	r0, r0
 1179 00b6 FFF7FEFF 		bl	OLED_ShowChar
 1180              	.LVL129:
 306:E:/MCU_Project/stm32/Target_tracking/user/My_Peripheral/OLED\oled.c ****  
 307:E:/MCU_Project/stm32/Target_tracking/user/My_Peripheral/OLED\oled.c **** 	f_temp=(int)((num-z_temp)*(oled_pow(10,f_len)));
 1181              		.loc 1 307 2 is_stmt 1 view .LVU296
 1182              		.loc 1 307 19 is_stmt 0 view .LVU297
 1183 00ba 07EE904A 		vmov	s15, r4	@ int
 1184 00be F8EEE77A 		vcvt.f32.s32	s15, s15
 1185 00c2 38EE678A 		vsub.f32	s16, s16, s15
 1186              	.LVL130:
 1187              		.loc 1 307 29 view .LVU298
 1188 00c6 3946     		mov	r1, r7
 1189 00c8 0A20     		movs	r0, #10
 1190 00ca FFF7FEFF 		bl	oled_pow
 1191              	.LVL131:
 1192 00ce 07EE900A 		vmov	s15, r0	@ int
 1193              		.loc 1 307 27 view .LVU299
 1194 00d2 F8EE677A 		vcvt.f32.u32	s15, s15
 1195 00d6 27EE888A 		vmul.f32	s16, s15, s16
 1196              		.loc 1 307 8 view .LVU300
 1197 00da FDEEC87A 		vcvt.s32.f32	s15, s16
 1198 00de CDED027A 		vstr.32	s15, [sp, #8]	@ int
 1199              	.LVL132:
 308:E:/MCU_Project/stm32/Target_tracking/user/My_Peripheral/OLED\oled.c ****   //小数部分
 309:E:/MCU_Project/stm32/Target_tracking/user/My_Peripheral/OLED\oled.c **** 	for(t=0;t<f_len;t++)
 1200              		.loc 1 309 2 is_stmt 1 view .LVU301
 1201              		.loc 1 309 7 is_stmt 0 view .LVU302
 1202 00e2 0024     		movs	r4, #0
 1203              	.LVL133:
 1204              		.loc 1 309 2 view .LVU303
 1205 00e4 23E0     		b	.L87
 1206              	.LVL134:
 1207              	.L88:
 310:E:/MCU_Project/stm32/Target_tracking/user/My_Peripheral/OLED\oled.c **** 	{
 311:E:/MCU_Project/stm32/Target_tracking/user/My_Peripheral/OLED\oled.c **** 		temp=(f_temp/oled_pow(10,f_len-t-1))%10;
 1208              		.loc 1 311 3 is_stmt 1 discriminator 3 view .LVU304
 1209              		.loc 1 311 33 is_stmt 0 discriminator 3 view .LVU305
 1210 00e6 391B     		subs	r1, r7, r4
 1211 00e8 C9B2     		uxtb	r1, r1
 1212              		.loc 1 311 16 discriminator 3 view .LVU306
ARM GAS  C:\Users\86390\AppData\Local\Temp\cc0lOyie.s 			page 30


 1213 00ea 0139     		subs	r1, r1, #1
 1214 00ec C9B2     		uxtb	r1, r1
 1215 00ee 0A20     		movs	r0, #10
 1216 00f0 FFF7FEFF 		bl	oled_pow
 1217              	.LVL135:
 1218              		.loc 1 311 15 discriminator 3 view .LVU307
 1219 00f4 029B     		ldr	r3, [sp, #8]
 1220 00f6 B3FBF0F0 		udiv	r0, r3, r0
 1221              		.loc 1 311 39 discriminator 3 view .LVU308
 1222 00fa 164A     		ldr	r2, .L96
 1223 00fc A2FB0032 		umull	r3, r2, r2, r0
 1224 0100 D208     		lsrs	r2, r2, #3
 1225 0102 02EB8202 		add	r2, r2, r2, lsl #2
 1226 0106 A0EB4202 		sub	r2, r0, r2, lsl #1
 1227              		.loc 1 311 7 discriminator 3 view .LVU309
 1228 010a D2B2     		uxtb	r2, r2
 1229              	.LVL136:
 312:E:/MCU_Project/stm32/Target_tracking/user/My_Peripheral/OLED\oled.c **** 		OLED_ShowChar(x+(size2/2)*(t+z_len)+5,y,temp+'0',size2, Color_Turn);
 1230              		.loc 1 312 3 is_stmt 1 discriminator 3 view .LVU310
 1231              		.loc 1 312 18 is_stmt 0 discriminator 3 view .LVU311
 1232 010c 2819     		adds	r0, r5, r4
 1233 010e 10FB0BF0 		smulbb	r0, r0, fp
 1234 0112 4044     		add	r0, r0, r8
 1235 0114 C0B2     		uxtb	r0, r0
 1236              		.loc 1 312 3 discriminator 3 view .LVU312
 1237 0116 3032     		adds	r2, r2, #48
 1238              	.LVL137:
 1239              		.loc 1 312 3 discriminator 3 view .LVU313
 1240 0118 0530     		adds	r0, r0, #5
 1241 011a CDF800A0 		str	r10, [sp]
 1242 011e 3346     		mov	r3, r6
 1243 0120 D2B2     		uxtb	r2, r2
 1244              	.LVL138:
 1245              		.loc 1 312 3 discriminator 3 view .LVU314
 1246 0122 4946     		mov	r1, r9
 1247 0124 C0B2     		uxtb	r0, r0
 1248 0126 FFF7FEFF 		bl	OLED_ShowChar
 1249              	.LVL139:
 309:E:/MCU_Project/stm32/Target_tracking/user/My_Peripheral/OLED\oled.c **** 	{
 1250              		.loc 1 309 18 is_stmt 1 discriminator 3 view .LVU315
 309:E:/MCU_Project/stm32/Target_tracking/user/My_Peripheral/OLED\oled.c **** 	{
 1251              		.loc 1 309 19 is_stmt 0 discriminator 3 view .LVU316
 1252 012a 0134     		adds	r4, r4, #1
 1253              	.LVL140:
 309:E:/MCU_Project/stm32/Target_tracking/user/My_Peripheral/OLED\oled.c **** 	{
 1254              		.loc 1 309 19 discriminator 3 view .LVU317
 1255 012c E4B2     		uxtb	r4, r4
 1256              	.LVL141:
 1257              	.L87:
 309:E:/MCU_Project/stm32/Target_tracking/user/My_Peripheral/OLED\oled.c **** 	{
 1258              		.loc 1 309 10 is_stmt 1 discriminator 1 view .LVU318
 309:E:/MCU_Project/stm32/Target_tracking/user/My_Peripheral/OLED\oled.c **** 	{
 1259              		.loc 1 309 2 is_stmt 0 discriminator 1 view .LVU319
 1260 012e BC42     		cmp	r4, r7
 1261 0130 D9D3     		bcc	.L88
 313:E:/MCU_Project/stm32/Target_tracking/user/My_Peripheral/OLED\oled.c **** 	}
 314:E:/MCU_Project/stm32/Target_tracking/user/My_Peripheral/OLED\oled.c **** 	if(i==1)//如果为负，就将最前的一位赋值‘-’
ARM GAS  C:\Users\86390\AppData\Local\Temp\cc0lOyie.s 			page 31


 1262              		.loc 1 314 2 is_stmt 1 view .LVU320
 1263              		.loc 1 314 4 is_stmt 0 view .LVU321
 1264 0132 039B     		ldr	r3, [sp, #12]
 1265 0134 23B9     		cbnz	r3, .L95
 1266              	.LVL142:
 1267              	.L82:
 315:E:/MCU_Project/stm32/Target_tracking/user/My_Peripheral/OLED\oled.c **** 	{
 316:E:/MCU_Project/stm32/Target_tracking/user/My_Peripheral/OLED\oled.c **** 		OLED_ShowChar(x,y,'-',size2, Color_Turn);
 317:E:/MCU_Project/stm32/Target_tracking/user/My_Peripheral/OLED\oled.c **** 		i=0;
 318:E:/MCU_Project/stm32/Target_tracking/user/My_Peripheral/OLED\oled.c **** 	}
 319:E:/MCU_Project/stm32/Target_tracking/user/My_Peripheral/OLED\oled.c **** }
 1268              		.loc 1 319 1 view .LVU322
 1269 0136 05B0     		add	sp, sp, #20
 1270              	.LCFI22:
 1271              		.cfi_remember_state
 1272              		.cfi_def_cfa_offset 44
 1273              		@ sp needed
 1274 0138 BDEC028B 		vldm	sp!, {d8}
 1275              	.LCFI23:
 1276              		.cfi_restore 80
 1277              		.cfi_restore 81
 1278              		.cfi_def_cfa_offset 36
 1279 013c BDE8F08F 		pop	{r4, r5, r6, r7, r8, r9, r10, fp, pc}
 1280              	.LVL143:
 1281              	.L95:
 1282              	.LCFI24:
 1283              		.cfi_restore_state
 316:E:/MCU_Project/stm32/Target_tracking/user/My_Peripheral/OLED\oled.c **** 		i=0;
 1284              		.loc 1 316 3 is_stmt 1 view .LVU323
 1285 0140 CDF800A0 		str	r10, [sp]
 1286 0144 3346     		mov	r3, r6
 1287 0146 2D22     		movs	r2, #45
 1288 0148 4946     		mov	r1, r9
 1289 014a 4046     		mov	r0, r8
 1290 014c FFF7FEFF 		bl	OLED_ShowChar
 1291              	.LVL144:
 317:E:/MCU_Project/stm32/Target_tracking/user/My_Peripheral/OLED\oled.c **** 	}
 1292              		.loc 1 317 3 view .LVU324
 1293              		.loc 1 319 1 is_stmt 0 view .LVU325
 1294 0150 F1E7     		b	.L82
 1295              	.L97:
 1296 0152 00BF     		.align	2
 1297              	.L96:
 1298 0154 CDCCCCCC 		.word	-858993459
 1299              		.cfi_endproc
 1300              	.LFE147:
 1302              		.section	.text.OLED_ShowCHinese,"ax",%progbits
 1303              		.align	1
 1304              		.global	OLED_ShowCHinese
 1305              		.syntax unified
 1306              		.thumb
 1307              		.thumb_func
 1309              	OLED_ShowCHinese:
 1310              	.LVL145:
 1311              	.LFB148:
 320:E:/MCU_Project/stm32/Target_tracking/user/My_Peripheral/OLED\oled.c ****  
 321:E:/MCU_Project/stm32/Target_tracking/user/My_Peripheral/OLED\oled.c ****  
ARM GAS  C:\Users\86390\AppData\Local\Temp\cc0lOyie.s 			page 32


 322:E:/MCU_Project/stm32/Target_tracking/user/My_Peripheral/OLED\oled.c ****  
 323:E:/MCU_Project/stm32/Target_tracking/user/My_Peripheral/OLED\oled.c **** /**
 324:E:/MCU_Project/stm32/Target_tracking/user/My_Peripheral/OLED\oled.c ****  * @function: void OLED_ShowCHinese(uint8_t x,uint8_t y,uint8_t no, uint8_t Color_Turn)
 325:E:/MCU_Project/stm32/Target_tracking/user/My_Peripheral/OLED\oled.c ****  * @description: 在OLED特定位置开始显示16X16汉字
 326:E:/MCU_Project/stm32/Target_tracking/user/My_Peripheral/OLED\oled.c ****  * @param {uint8_t} x待显示的汉字起始横坐标x: 0~112，两列汉字之间需要间隔16
 327:E:/MCU_Project/stm32/Target_tracking/user/My_Peripheral/OLED\oled.c ****  * @param {uint8_t} y待显示的汉字起始纵坐标 y: 0~6 , 两行汉字之间需要间隔2
 328:E:/MCU_Project/stm32/Target_tracking/user/My_Peripheral/OLED\oled.c ****  * @param {uint8_t} no待显示的汉字编号
 329:E:/MCU_Project/stm32/Target_tracking/user/My_Peripheral/OLED\oled.c ****  * @param {uint8_t} Color_Turn是否反相显示(1反相、0不反相)
 330:E:/MCU_Project/stm32/Target_tracking/user/My_Peripheral/OLED\oled.c ****  * @return {*}
 331:E:/MCU_Project/stm32/Target_tracking/user/My_Peripheral/OLED\oled.c ****  */
 332:E:/MCU_Project/stm32/Target_tracking/user/My_Peripheral/OLED\oled.c **** void OLED_ShowCHinese(uint8_t x,uint8_t y,uint8_t no, uint8_t Color_Turn)
 333:E:/MCU_Project/stm32/Target_tracking/user/My_Peripheral/OLED\oled.c **** {
 1312              		.loc 1 333 1 is_stmt 1 view -0
 1313              		.cfi_startproc
 1314              		@ args = 0, pretend = 0, frame = 0
 1315              		@ frame_needed = 0, uses_anonymous_args = 0
 1316              		.loc 1 333 1 is_stmt 0 view .LVU327
 1317 0000 2DE9F041 		push	{r4, r5, r6, r7, r8, lr}
 1318              	.LCFI25:
 1319              		.cfi_def_cfa_offset 24
 1320              		.cfi_offset 4, -24
 1321              		.cfi_offset 5, -20
 1322              		.cfi_offset 6, -16
 1323              		.cfi_offset 7, -12
 1324              		.cfi_offset 8, -8
 1325              		.cfi_offset 14, -4
 1326 0004 8046     		mov	r8, r0
 1327 0006 0F46     		mov	r7, r1
 1328 0008 1646     		mov	r6, r2
 1329 000a 1D46     		mov	r5, r3
 334:E:/MCU_Project/stm32/Target_tracking/user/My_Peripheral/OLED\oled.c **** 	uint8_t t=0;
 1330              		.loc 1 334 2 is_stmt 1 view .LVU328
 1331              	.LVL146:
 335:E:/MCU_Project/stm32/Target_tracking/user/My_Peripheral/OLED\oled.c **** 	OLED_Set_Pos(x,y);
 1332              		.loc 1 335 2 view .LVU329
 1333 000c FFF7FEFF 		bl	OLED_Set_Pos
 1334              	.LVL147:
 336:E:/MCU_Project/stm32/Target_tracking/user/My_Peripheral/OLED\oled.c ****     for(t=0;t<16;t++)
 1335              		.loc 1 336 5 view .LVU330
 1336              		.loc 1 336 10 is_stmt 0 view .LVU331
 1337 0010 0024     		movs	r4, #0
 1338              		.loc 1 336 5 view .LVU332
 1339 0012 07E0     		b	.L99
 1340              	.LVL148:
 1341              	.L100:
 337:E:/MCU_Project/stm32/Target_tracking/user/My_Peripheral/OLED\oled.c **** 		{
 338:E:/MCU_Project/stm32/Target_tracking/user/My_Peripheral/OLED\oled.c **** 				if (Color_Turn)
 339:E:/MCU_Project/stm32/Target_tracking/user/My_Peripheral/OLED\oled.c **** 					OLED_WR_DATA(~Hzk[2*no][t]); //显示汉字的上半部分
 340:E:/MCU_Project/stm32/Target_tracking/user/My_Peripheral/OLED\oled.c **** 				else
 341:E:/MCU_Project/stm32/Target_tracking/user/My_Peripheral/OLED\oled.c **** 					OLED_WR_DATA(Hzk[2*no][t]); //显示汉字的上半部分
 1342              		.loc 1 341 6 is_stmt 1 view .LVU333
 1343 0014 1B4B     		ldr	r3, .L110
 1344 0016 03EB8613 		add	r3, r3, r6, lsl #6
 1345 001a 185D     		ldrb	r0, [r3, r4]	@ zero_extendqisi2
 1346 001c FFF7FEFF 		bl	OLED_WR_DATA
 1347              	.LVL149:
 1348              	.L101:
ARM GAS  C:\Users\86390\AppData\Local\Temp\cc0lOyie.s 			page 33


 336:E:/MCU_Project/stm32/Target_tracking/user/My_Peripheral/OLED\oled.c ****     for(t=0;t<16;t++)
 1349              		.loc 1 336 18 discriminator 2 view .LVU334
 336:E:/MCU_Project/stm32/Target_tracking/user/My_Peripheral/OLED\oled.c ****     for(t=0;t<16;t++)
 1350              		.loc 1 336 19 is_stmt 0 discriminator 2 view .LVU335
 1351 0020 0134     		adds	r4, r4, #1
 1352              	.LVL150:
 336:E:/MCU_Project/stm32/Target_tracking/user/My_Peripheral/OLED\oled.c ****     for(t=0;t<16;t++)
 1353              		.loc 1 336 19 discriminator 2 view .LVU336
 1354 0022 E4B2     		uxtb	r4, r4
 1355              	.LVL151:
 1356              	.L99:
 336:E:/MCU_Project/stm32/Target_tracking/user/My_Peripheral/OLED\oled.c ****     for(t=0;t<16;t++)
 1357              		.loc 1 336 13 is_stmt 1 discriminator 1 view .LVU337
 336:E:/MCU_Project/stm32/Target_tracking/user/My_Peripheral/OLED\oled.c ****     for(t=0;t<16;t++)
 1358              		.loc 1 336 5 is_stmt 0 discriminator 1 view .LVU338
 1359 0024 0F2C     		cmp	r4, #15
 1360 0026 0AD8     		bhi	.L108
 338:E:/MCU_Project/stm32/Target_tracking/user/My_Peripheral/OLED\oled.c **** 					OLED_WR_DATA(~Hzk[2*no][t]); //显示汉字的上半部分
 1361              		.loc 1 338 5 is_stmt 1 view .LVU339
 338:E:/MCU_Project/stm32/Target_tracking/user/My_Peripheral/OLED\oled.c **** 					OLED_WR_DATA(~Hzk[2*no][t]); //显示汉字的上半部分
 1362              		.loc 1 338 8 is_stmt 0 view .LVU340
 1363 0028 002D     		cmp	r5, #0
 1364 002a F3D0     		beq	.L100
 339:E:/MCU_Project/stm32/Target_tracking/user/My_Peripheral/OLED\oled.c **** 				else
 1365              		.loc 1 339 6 is_stmt 1 view .LVU341
 339:E:/MCU_Project/stm32/Target_tracking/user/My_Peripheral/OLED\oled.c **** 				else
 1366              		.loc 1 339 29 is_stmt 0 view .LVU342
 1367 002c 154B     		ldr	r3, .L110
 1368 002e 03EB8613 		add	r3, r3, r6, lsl #6
 1369 0032 185D     		ldrb	r0, [r3, r4]	@ zero_extendqisi2
 339:E:/MCU_Project/stm32/Target_tracking/user/My_Peripheral/OLED\oled.c **** 				else
 1370              		.loc 1 339 6 view .LVU343
 1371 0034 C043     		mvns	r0, r0
 1372 0036 C0B2     		uxtb	r0, r0
 1373 0038 FFF7FEFF 		bl	OLED_WR_DATA
 1374              	.LVL152:
 1375 003c F0E7     		b	.L101
 1376              	.L108:
 342:E:/MCU_Project/stm32/Target_tracking/user/My_Peripheral/OLED\oled.c ****         }
 343:E:/MCU_Project/stm32/Target_tracking/user/My_Peripheral/OLED\oled.c ****  
 344:E:/MCU_Project/stm32/Target_tracking/user/My_Peripheral/OLED\oled.c **** 		OLED_Set_Pos(x,y+1);
 1377              		.loc 1 344 3 is_stmt 1 view .LVU344
 1378 003e 791C     		adds	r1, r7, #1
 1379 0040 C9B2     		uxtb	r1, r1
 1380 0042 4046     		mov	r0, r8
 1381 0044 FFF7FEFF 		bl	OLED_Set_Pos
 1382              	.LVL153:
 345:E:/MCU_Project/stm32/Target_tracking/user/My_Peripheral/OLED\oled.c ****     for(t=0;t<16;t++)
 1383              		.loc 1 345 5 view .LVU345
 1384              		.loc 1 345 10 is_stmt 0 view .LVU346
 1385 0048 0024     		movs	r4, #0
 1386              		.loc 1 345 5 view .LVU347
 1387 004a 09E0     		b	.L103
 1388              	.LVL154:
 1389              	.L104:
 346:E:/MCU_Project/stm32/Target_tracking/user/My_Peripheral/OLED\oled.c **** 		{
 347:E:/MCU_Project/stm32/Target_tracking/user/My_Peripheral/OLED\oled.c **** 				if (Color_Turn)
ARM GAS  C:\Users\86390\AppData\Local\Temp\cc0lOyie.s 			page 34


 348:E:/MCU_Project/stm32/Target_tracking/user/My_Peripheral/OLED\oled.c **** 					OLED_WR_DATA(~Hzk[2*no+1][t]); //显示汉字的上半部分
 349:E:/MCU_Project/stm32/Target_tracking/user/My_Peripheral/OLED\oled.c **** 				else
 350:E:/MCU_Project/stm32/Target_tracking/user/My_Peripheral/OLED\oled.c **** 					OLED_WR_DATA(Hzk[2*no+1][t]);//显示汉字的上半部分
 1390              		.loc 1 350 6 is_stmt 1 view .LVU348
 1391              		.loc 1 350 24 is_stmt 0 view .LVU349
 1392 004c 7300     		lsls	r3, r6, #1
 1393              		.loc 1 350 27 view .LVU350
 1394 004e 5A1C     		adds	r2, r3, #1
 1395              		.loc 1 350 6 view .LVU351
 1396 0050 0C4B     		ldr	r3, .L110
 1397 0052 03EB4213 		add	r3, r3, r2, lsl #5
 1398 0056 185D     		ldrb	r0, [r3, r4]	@ zero_extendqisi2
 1399 0058 FFF7FEFF 		bl	OLED_WR_DATA
 1400              	.LVL155:
 1401              	.L105:
 345:E:/MCU_Project/stm32/Target_tracking/user/My_Peripheral/OLED\oled.c ****     for(t=0;t<16;t++)
 1402              		.loc 1 345 18 is_stmt 1 discriminator 2 view .LVU352
 345:E:/MCU_Project/stm32/Target_tracking/user/My_Peripheral/OLED\oled.c ****     for(t=0;t<16;t++)
 1403              		.loc 1 345 19 is_stmt 0 discriminator 2 view .LVU353
 1404 005c 0134     		adds	r4, r4, #1
 1405              	.LVL156:
 345:E:/MCU_Project/stm32/Target_tracking/user/My_Peripheral/OLED\oled.c ****     for(t=0;t<16;t++)
 1406              		.loc 1 345 19 discriminator 2 view .LVU354
 1407 005e E4B2     		uxtb	r4, r4
 1408              	.LVL157:
 1409              	.L103:
 345:E:/MCU_Project/stm32/Target_tracking/user/My_Peripheral/OLED\oled.c ****     for(t=0;t<16;t++)
 1410              		.loc 1 345 13 is_stmt 1 discriminator 1 view .LVU355
 345:E:/MCU_Project/stm32/Target_tracking/user/My_Peripheral/OLED\oled.c ****     for(t=0;t<16;t++)
 1411              		.loc 1 345 5 is_stmt 0 discriminator 1 view .LVU356
 1412 0060 0F2C     		cmp	r4, #15
 1413 0062 0CD8     		bhi	.L109
 347:E:/MCU_Project/stm32/Target_tracking/user/My_Peripheral/OLED\oled.c **** 					OLED_WR_DATA(~Hzk[2*no+1][t]); //显示汉字的上半部分
 1414              		.loc 1 347 5 is_stmt 1 view .LVU357
 347:E:/MCU_Project/stm32/Target_tracking/user/My_Peripheral/OLED\oled.c **** 					OLED_WR_DATA(~Hzk[2*no+1][t]); //显示汉字的上半部分
 1415              		.loc 1 347 8 is_stmt 0 view .LVU358
 1416 0064 002D     		cmp	r5, #0
 1417 0066 F1D0     		beq	.L104
 348:E:/MCU_Project/stm32/Target_tracking/user/My_Peripheral/OLED\oled.c **** 				else
 1418              		.loc 1 348 6 is_stmt 1 view .LVU359
 348:E:/MCU_Project/stm32/Target_tracking/user/My_Peripheral/OLED\oled.c **** 				else
 1419              		.loc 1 348 25 is_stmt 0 view .LVU360
 1420 0068 7300     		lsls	r3, r6, #1
 348:E:/MCU_Project/stm32/Target_tracking/user/My_Peripheral/OLED\oled.c **** 				else
 1421              		.loc 1 348 28 view .LVU361
 1422 006a 5A1C     		adds	r2, r3, #1
 348:E:/MCU_Project/stm32/Target_tracking/user/My_Peripheral/OLED\oled.c **** 				else
 1423              		.loc 1 348 31 view .LVU362
 1424 006c 054B     		ldr	r3, .L110
 1425 006e 03EB4213 		add	r3, r3, r2, lsl #5
 1426 0072 185D     		ldrb	r0, [r3, r4]	@ zero_extendqisi2
 348:E:/MCU_Project/stm32/Target_tracking/user/My_Peripheral/OLED\oled.c **** 				else
 1427              		.loc 1 348 6 view .LVU363
 1428 0074 C043     		mvns	r0, r0
 1429 0076 C0B2     		uxtb	r0, r0
 1430 0078 FFF7FEFF 		bl	OLED_WR_DATA
 1431              	.LVL158:
ARM GAS  C:\Users\86390\AppData\Local\Temp\cc0lOyie.s 			page 35


 1432 007c EEE7     		b	.L105
 1433              	.L109:
 351:E:/MCU_Project/stm32/Target_tracking/user/My_Peripheral/OLED\oled.c ****  
 352:E:/MCU_Project/stm32/Target_tracking/user/My_Peripheral/OLED\oled.c ****          }
 353:E:/MCU_Project/stm32/Target_tracking/user/My_Peripheral/OLED\oled.c **** }
 1434              		.loc 1 353 1 view .LVU364
 1435 007e BDE8F081 		pop	{r4, r5, r6, r7, r8, pc}
 1436              	.LVL159:
 1437              	.L111:
 1438              		.loc 1 353 1 view .LVU365
 1439 0082 00BF     		.align	2
 1440              	.L110:
 1441 0084 00000000 		.word	Hzk
 1442              		.cfi_endproc
 1443              	.LFE148:
 1445              		.section	.text.OLED_DrawBMP,"ax",%progbits
 1446              		.align	1
 1447              		.global	OLED_DrawBMP
 1448              		.syntax unified
 1449              		.thumb
 1450              		.thumb_func
 1452              	OLED_DrawBMP:
 1453              	.LVL160:
 1454              	.LFB149:
 354:E:/MCU_Project/stm32/Target_tracking/user/My_Peripheral/OLED\oled.c ****  
 355:E:/MCU_Project/stm32/Target_tracking/user/My_Peripheral/OLED\oled.c **** /**
 356:E:/MCU_Project/stm32/Target_tracking/user/My_Peripheral/OLED\oled.c ****  * @function: void OLED_DrawBMP(uint8_t x0, uint8_t y0, uint8_t x1, uint8_t y1, uint8_t *  BMP,uint
 357:E:/MCU_Project/stm32/Target_tracking/user/My_Peripheral/OLED\oled.c ****  * @description: 在OLED特定区域显示BMP图片
 358:E:/MCU_Project/stm32/Target_tracking/user/My_Peripheral/OLED\oled.c ****  * @param {uint8_t} x0图像开始显示横坐标  x0:0~127
 359:E:/MCU_Project/stm32/Target_tracking/user/My_Peripheral/OLED\oled.c ****  * @param {uint8_t} y0图像开始显示纵坐标  y0:0~7
 360:E:/MCU_Project/stm32/Target_tracking/user/My_Peripheral/OLED\oled.c ****  * @param {uint8_t} x1图像结束显示横坐标  x1:1~128
 361:E:/MCU_Project/stm32/Target_tracking/user/My_Peripheral/OLED\oled.c ****  * @param {uint8_t} y1图像结束显示纵坐标  y1:1~8
 362:E:/MCU_Project/stm32/Target_tracking/user/My_Peripheral/OLED\oled.c ****  * @param {uint8_t} *BMP待显示的图像数据
 363:E:/MCU_Project/stm32/Target_tracking/user/My_Peripheral/OLED\oled.c ****  * @param {uint8_t} Color_Turn是否反相显示(1反相、0不反相)
 364:E:/MCU_Project/stm32/Target_tracking/user/My_Peripheral/OLED\oled.c ****  * @return {*}
 365:E:/MCU_Project/stm32/Target_tracking/user/My_Peripheral/OLED\oled.c ****  */
 366:E:/MCU_Project/stm32/Target_tracking/user/My_Peripheral/OLED\oled.c **** void OLED_DrawBMP(uint8_t x0, uint8_t y0, uint8_t x1, uint8_t y1, uint8_t *  BMP,uint8_t Color_Turn
 367:E:/MCU_Project/stm32/Target_tracking/user/My_Peripheral/OLED\oled.c **** {
 1455              		.loc 1 367 1 is_stmt 1 view -0
 1456              		.cfi_startproc
 1457              		@ args = 8, pretend = 0, frame = 8
 1458              		@ frame_needed = 0, uses_anonymous_args = 0
 1459              		.loc 1 367 1 is_stmt 0 view .LVU367
 1460 0000 2DE9F04F 		push	{r4, r5, r6, r7, r8, r9, r10, fp, lr}
 1461              	.LCFI26:
 1462              		.cfi_def_cfa_offset 36
 1463              		.cfi_offset 4, -36
 1464              		.cfi_offset 5, -32
 1465              		.cfi_offset 6, -28
 1466              		.cfi_offset 7, -24
 1467              		.cfi_offset 8, -20
 1468              		.cfi_offset 9, -16
 1469              		.cfi_offset 10, -12
 1470              		.cfi_offset 11, -8
 1471              		.cfi_offset 14, -4
 1472 0004 83B0     		sub	sp, sp, #12
 1473              	.LCFI27:
ARM GAS  C:\Users\86390\AppData\Local\Temp\cc0lOyie.s 			page 36


 1474              		.cfi_def_cfa_offset 48
 1475 0006 0190     		str	r0, [sp, #4]
 1476 0008 8A46     		mov	r10, r1
 1477 000a 1646     		mov	r6, r2
 1478 000c 9B46     		mov	fp, r3
 1479 000e DDF83080 		ldr	r8, [sp, #48]
 1480 0012 9DF83470 		ldrb	r7, [sp, #52]	@ zero_extendqisi2
 368:E:/MCU_Project/stm32/Target_tracking/user/My_Peripheral/OLED\oled.c ****    uint32_t j = 0;
 1481              		.loc 1 368 4 is_stmt 1 view .LVU368
 1482              	.LVL161:
 369:E:/MCU_Project/stm32/Target_tracking/user/My_Peripheral/OLED\oled.c ****    uint8_t x = 0, y = 0;
 1483              		.loc 1 369 4 view .LVU369
 370:E:/MCU_Project/stm32/Target_tracking/user/My_Peripheral/OLED\oled.c ****  
 371:E:/MCU_Project/stm32/Target_tracking/user/My_Peripheral/OLED\oled.c ****   if(y1%8==0)
 1484              		.loc 1 371 3 view .LVU370
 372:E:/MCU_Project/stm32/Target_tracking/user/My_Peripheral/OLED\oled.c **** 		y = y1/8;
 373:E:/MCU_Project/stm32/Target_tracking/user/My_Peripheral/OLED\oled.c ****   else
 374:E:/MCU_Project/stm32/Target_tracking/user/My_Peripheral/OLED\oled.c **** 		y = y1/8 + 1;
 375:E:/MCU_Project/stm32/Target_tracking/user/My_Peripheral/OLED\oled.c **** 	for(y=y0;y<y1;y++)
 376:E:/MCU_Project/stm32/Target_tracking/user/My_Peripheral/OLED\oled.c **** 	{
 377:E:/MCU_Project/stm32/Target_tracking/user/My_Peripheral/OLED\oled.c **** 		OLED_Set_Pos(x0,y);
 378:E:/MCU_Project/stm32/Target_tracking/user/My_Peripheral/OLED\oled.c ****     for(x=x0;x<x1;x++)
 1485              		.loc 1 378 10 is_stmt 0 view .LVU371
 1486 0016 0025     		movs	r5, #0
 1487 0018 1AE0     		b	.L113
 1488              	.LVL162:
 1489              	.L115:
 379:E:/MCU_Project/stm32/Target_tracking/user/My_Peripheral/OLED\oled.c **** 		{
 380:E:/MCU_Project/stm32/Target_tracking/user/My_Peripheral/OLED\oled.c **** 			if (Color_Turn)
 381:E:/MCU_Project/stm32/Target_tracking/user/My_Peripheral/OLED\oled.c **** 				OLED_WR_DATA(~BMP[j++]);//显示反相图片
 382:E:/MCU_Project/stm32/Target_tracking/user/My_Peripheral/OLED\oled.c **** 			else
 383:E:/MCU_Project/stm32/Target_tracking/user/My_Peripheral/OLED\oled.c **** 				OLED_WR_DATA(BMP[j++]);//显示图片
 1490              		.loc 1 383 5 is_stmt 1 view .LVU372
 1491              		.loc 1 383 23 is_stmt 0 view .LVU373
 1492 001a 05F10109 		add	r9, r5, #1
 1493              	.LVL163:
 1494              		.loc 1 383 5 view .LVU374
 1495 001e 18F80500 		ldrb	r0, [r8, r5]	@ zero_extendqisi2
 1496 0022 FFF7FEFF 		bl	OLED_WR_DATA
 1497              	.LVL164:
 1498              		.loc 1 383 23 view .LVU375
 1499 0026 4D46     		mov	r5, r9
 1500              	.LVL165:
 1501              	.L116:
 378:E:/MCU_Project/stm32/Target_tracking/user/My_Peripheral/OLED\oled.c **** 		{
 1502              		.loc 1 378 19 is_stmt 1 discriminator 2 view .LVU376
 378:E:/MCU_Project/stm32/Target_tracking/user/My_Peripheral/OLED\oled.c **** 		{
 1503              		.loc 1 378 20 is_stmt 0 discriminator 2 view .LVU377
 1504 0028 0134     		adds	r4, r4, #1
 1505              	.LVL166:
 378:E:/MCU_Project/stm32/Target_tracking/user/My_Peripheral/OLED\oled.c **** 		{
 1506              		.loc 1 378 20 discriminator 2 view .LVU378
 1507 002a E4B2     		uxtb	r4, r4
 1508              	.LVL167:
 1509              	.L114:
 378:E:/MCU_Project/stm32/Target_tracking/user/My_Peripheral/OLED\oled.c **** 		{
 1510              		.loc 1 378 14 is_stmt 1 discriminator 1 view .LVU379
ARM GAS  C:\Users\86390\AppData\Local\Temp\cc0lOyie.s 			page 37


 378:E:/MCU_Project/stm32/Target_tracking/user/My_Peripheral/OLED\oled.c **** 		{
 1511              		.loc 1 378 5 is_stmt 0 discriminator 1 view .LVU380
 1512 002c B442     		cmp	r4, r6
 1513 002e 0BD2     		bcs	.L120
 380:E:/MCU_Project/stm32/Target_tracking/user/My_Peripheral/OLED\oled.c **** 				OLED_WR_DATA(~BMP[j++]);//显示反相图片
 1514              		.loc 1 380 4 is_stmt 1 view .LVU381
 380:E:/MCU_Project/stm32/Target_tracking/user/My_Peripheral/OLED\oled.c **** 				OLED_WR_DATA(~BMP[j++]);//显示反相图片
 1515              		.loc 1 380 7 is_stmt 0 view .LVU382
 1516 0030 002F     		cmp	r7, #0
 1517 0032 F2D0     		beq	.L115
 381:E:/MCU_Project/stm32/Target_tracking/user/My_Peripheral/OLED\oled.c **** 			else
 1518              		.loc 1 381 5 is_stmt 1 view .LVU383
 381:E:/MCU_Project/stm32/Target_tracking/user/My_Peripheral/OLED\oled.c **** 			else
 1519              		.loc 1 381 24 is_stmt 0 view .LVU384
 1520 0034 05F10109 		add	r9, r5, #1
 1521              	.LVL168:
 381:E:/MCU_Project/stm32/Target_tracking/user/My_Peripheral/OLED\oled.c **** 			else
 1522              		.loc 1 381 22 view .LVU385
 1523 0038 18F80500 		ldrb	r0, [r8, r5]	@ zero_extendqisi2
 381:E:/MCU_Project/stm32/Target_tracking/user/My_Peripheral/OLED\oled.c **** 			else
 1524              		.loc 1 381 5 view .LVU386
 1525 003c C043     		mvns	r0, r0
 1526 003e C0B2     		uxtb	r0, r0
 1527 0040 FFF7FEFF 		bl	OLED_WR_DATA
 1528              	.LVL169:
 381:E:/MCU_Project/stm32/Target_tracking/user/My_Peripheral/OLED\oled.c **** 			else
 1529              		.loc 1 381 24 view .LVU387
 1530 0044 4D46     		mov	r5, r9
 1531 0046 EFE7     		b	.L116
 1532              	.LVL170:
 1533              	.L120:
 375:E:/MCU_Project/stm32/Target_tracking/user/My_Peripheral/OLED\oled.c **** 	{
 1534              		.loc 1 375 16 is_stmt 1 discriminator 2 view .LVU388
 375:E:/MCU_Project/stm32/Target_tracking/user/My_Peripheral/OLED\oled.c **** 	{
 1535              		.loc 1 375 17 is_stmt 0 discriminator 2 view .LVU389
 1536 0048 0AF1010A 		add	r10, r10, #1
 1537              	.LVL171:
 375:E:/MCU_Project/stm32/Target_tracking/user/My_Peripheral/OLED\oled.c **** 	{
 1538              		.loc 1 375 17 discriminator 2 view .LVU390
 1539 004c 5FFA8AFA 		uxtb	r10, r10
 1540              	.LVL172:
 1541              	.L113:
 375:E:/MCU_Project/stm32/Target_tracking/user/My_Peripheral/OLED\oled.c **** 	{
 1542              		.loc 1 375 11 is_stmt 1 discriminator 1 view .LVU391
 375:E:/MCU_Project/stm32/Target_tracking/user/My_Peripheral/OLED\oled.c **** 	{
 1543              		.loc 1 375 2 is_stmt 0 discriminator 1 view .LVU392
 1544 0050 DA45     		cmp	r10, fp
 1545 0052 05D2     		bcs	.L121
 377:E:/MCU_Project/stm32/Target_tracking/user/My_Peripheral/OLED\oled.c ****     for(x=x0;x<x1;x++)
 1546              		.loc 1 377 3 is_stmt 1 view .LVU393
 1547 0054 5146     		mov	r1, r10
 1548 0056 019C     		ldr	r4, [sp, #4]
 1549 0058 2046     		mov	r0, r4
 1550 005a FFF7FEFF 		bl	OLED_Set_Pos
 1551              	.LVL173:
 378:E:/MCU_Project/stm32/Target_tracking/user/My_Peripheral/OLED\oled.c **** 		{
 1552              		.loc 1 378 5 view .LVU394
ARM GAS  C:\Users\86390\AppData\Local\Temp\cc0lOyie.s 			page 38


 378:E:/MCU_Project/stm32/Target_tracking/user/My_Peripheral/OLED\oled.c **** 		{
 1553              		.loc 1 378 5 is_stmt 0 view .LVU395
 1554 005e E5E7     		b	.L114
 1555              	.LVL174:
 1556              	.L121:
 384:E:/MCU_Project/stm32/Target_tracking/user/My_Peripheral/OLED\oled.c ****  
 385:E:/MCU_Project/stm32/Target_tracking/user/My_Peripheral/OLED\oled.c **** 		}
 386:E:/MCU_Project/stm32/Target_tracking/user/My_Peripheral/OLED\oled.c **** 	}
 387:E:/MCU_Project/stm32/Target_tracking/user/My_Peripheral/OLED\oled.c **** }
 1557              		.loc 1 387 1 view .LVU396
 1558 0060 03B0     		add	sp, sp, #12
 1559              	.LCFI28:
 1560              		.cfi_def_cfa_offset 36
 1561              		@ sp needed
 1562 0062 BDE8F08F 		pop	{r4, r5, r6, r7, r8, r9, r10, fp, pc}
 1563              		.loc 1 387 1 view .LVU397
 1564              		.cfi_endproc
 1565              	.LFE149:
 1567              		.section	.text.OLED_HorizontalShift,"ax",%progbits
 1568              		.align	1
 1569              		.global	OLED_HorizontalShift
 1570              		.syntax unified
 1571              		.thumb
 1572              		.thumb_func
 1574              	OLED_HorizontalShift:
 1575              	.LVL175:
 1576              	.LFB150:
 388:E:/MCU_Project/stm32/Target_tracking/user/My_Peripheral/OLED\oled.c ****  
 389:E:/MCU_Project/stm32/Target_tracking/user/My_Peripheral/OLED\oled.c ****  
 390:E:/MCU_Project/stm32/Target_tracking/user/My_Peripheral/OLED\oled.c **** /**
 391:E:/MCU_Project/stm32/Target_tracking/user/My_Peripheral/OLED\oled.c ****  * @function: void OLED_HorizontalShift(uint8_t direction)
 392:E:/MCU_Project/stm32/Target_tracking/user/My_Peripheral/OLED\oled.c ****  * @description: 屏幕内容水平全屏滚动播放
 393:E:/MCU_Project/stm32/Target_tracking/user/My_Peripheral/OLED\oled.c ****  * @param {uint8_t} direction			LEFT	   0x27     	RIGHT  0x26
 394:E:/MCU_Project/stm32/Target_tracking/user/My_Peripheral/OLED\oled.c ****  * @return {*}
 395:E:/MCU_Project/stm32/Target_tracking/user/My_Peripheral/OLED\oled.c ****  */
 396:E:/MCU_Project/stm32/Target_tracking/user/My_Peripheral/OLED\oled.c **** void OLED_HorizontalShift(uint8_t direction)
 397:E:/MCU_Project/stm32/Target_tracking/user/My_Peripheral/OLED\oled.c ****  
 398:E:/MCU_Project/stm32/Target_tracking/user/My_Peripheral/OLED\oled.c **** {
 1577              		.loc 1 398 1 is_stmt 1 view -0
 1578              		.cfi_startproc
 1579              		@ args = 0, pretend = 0, frame = 0
 1580              		@ frame_needed = 0, uses_anonymous_args = 0
 1581              		.loc 1 398 1 is_stmt 0 view .LVU399
 1582 0000 10B5     		push	{r4, lr}
 1583              	.LCFI29:
 1584              		.cfi_def_cfa_offset 8
 1585              		.cfi_offset 4, -8
 1586              		.cfi_offset 14, -4
 1587 0002 0446     		mov	r4, r0
 399:E:/MCU_Project/stm32/Target_tracking/user/My_Peripheral/OLED\oled.c **** 	OLED_WR_CMD(0x2e);//停止滚动
 1588              		.loc 1 399 2 is_stmt 1 view .LVU400
 1589 0004 2E20     		movs	r0, #46
 1590              	.LVL176:
 1591              		.loc 1 399 2 is_stmt 0 view .LVU401
 1592 0006 FFF7FEFF 		bl	OLED_WR_CMD
 1593              	.LVL177:
 400:E:/MCU_Project/stm32/Target_tracking/user/My_Peripheral/OLED\oled.c **** 	OLED_WR_CMD(direction);//设置滚动方向
ARM GAS  C:\Users\86390\AppData\Local\Temp\cc0lOyie.s 			page 39


 1594              		.loc 1 400 2 is_stmt 1 view .LVU402
 1595 000a 2046     		mov	r0, r4
 1596 000c FFF7FEFF 		bl	OLED_WR_CMD
 1597              	.LVL178:
 401:E:/MCU_Project/stm32/Target_tracking/user/My_Peripheral/OLED\oled.c **** 	OLED_WR_CMD(0x00);//虚拟字节设置，默认为0x00
 1598              		.loc 1 401 2 view .LVU403
 1599 0010 0020     		movs	r0, #0
 1600 0012 FFF7FEFF 		bl	OLED_WR_CMD
 1601              	.LVL179:
 402:E:/MCU_Project/stm32/Target_tracking/user/My_Peripheral/OLED\oled.c **** 	OLED_WR_CMD(0x00);//设置开始页地址
 1602              		.loc 1 402 2 view .LVU404
 1603 0016 0020     		movs	r0, #0
 1604 0018 FFF7FEFF 		bl	OLED_WR_CMD
 1605              	.LVL180:
 403:E:/MCU_Project/stm32/Target_tracking/user/My_Peripheral/OLED\oled.c **** 	OLED_WR_CMD(0x07);//设置每个滚动步骤之间的时间间隔的帧频
 1606              		.loc 1 403 2 view .LVU405
 1607 001c 0720     		movs	r0, #7
 1608 001e FFF7FEFF 		bl	OLED_WR_CMD
 1609              	.LVL181:
 404:E:/MCU_Project/stm32/Target_tracking/user/My_Peripheral/OLED\oled.c ****     //  0x00-5帧， 0x01-64帧， 0x02-128帧， 0x03-256帧， 0x04-3帧， 0x05-4帧， 0x06-25帧， 0x07-2帧
 405:E:/MCU_Project/stm32/Target_tracking/user/My_Peripheral/OLED\oled.c **** 	OLED_WR_CMD(0x07);//设置结束页地址
 1610              		.loc 1 405 2 view .LVU406
 1611 0022 0720     		movs	r0, #7
 1612 0024 FFF7FEFF 		bl	OLED_WR_CMD
 1613              	.LVL182:
 406:E:/MCU_Project/stm32/Target_tracking/user/My_Peripheral/OLED\oled.c **** 	OLED_WR_CMD(0x00);//虚拟字节设置，默认为0x00
 1614              		.loc 1 406 2 view .LVU407
 1615 0028 0020     		movs	r0, #0
 1616 002a FFF7FEFF 		bl	OLED_WR_CMD
 1617              	.LVL183:
 407:E:/MCU_Project/stm32/Target_tracking/user/My_Peripheral/OLED\oled.c **** 	OLED_WR_CMD(0xff);//虚拟字节设置，默认为0xff
 1618              		.loc 1 407 2 view .LVU408
 1619 002e FF20     		movs	r0, #255
 1620 0030 FFF7FEFF 		bl	OLED_WR_CMD
 1621              	.LVL184:
 408:E:/MCU_Project/stm32/Target_tracking/user/My_Peripheral/OLED\oled.c **** 	OLED_WR_CMD(0x2f);//开启滚动-0x2f，禁用滚动-0x2e，禁用需要重写数据
 1622              		.loc 1 408 2 view .LVU409
 1623 0034 2F20     		movs	r0, #47
 1624 0036 FFF7FEFF 		bl	OLED_WR_CMD
 1625              	.LVL185:
 409:E:/MCU_Project/stm32/Target_tracking/user/My_Peripheral/OLED\oled.c **** }
 1626              		.loc 1 409 1 is_stmt 0 view .LVU410
 1627 003a 10BD     		pop	{r4, pc}
 1628              		.cfi_endproc
 1629              	.LFE150:
 1631              		.section	.text.OLED_Some_HorizontalShift,"ax",%progbits
 1632              		.align	1
 1633              		.global	OLED_Some_HorizontalShift
 1634              		.syntax unified
 1635              		.thumb
 1636              		.thumb_func
 1638              	OLED_Some_HorizontalShift:
 1639              	.LVL186:
 1640              	.LFB151:
 410:E:/MCU_Project/stm32/Target_tracking/user/My_Peripheral/OLED\oled.c ****  
 411:E:/MCU_Project/stm32/Target_tracking/user/My_Peripheral/OLED\oled.c **** /**
 412:E:/MCU_Project/stm32/Target_tracking/user/My_Peripheral/OLED\oled.c ****  * @function: void OLED_Some_HorizontalShift(uint8_t direction,uint8_t start,uint8_t end)
ARM GAS  C:\Users\86390\AppData\Local\Temp\cc0lOyie.s 			page 40


 413:E:/MCU_Project/stm32/Target_tracking/user/My_Peripheral/OLED\oled.c ****  * @description: 屏幕部分内容水平滚动播放
 414:E:/MCU_Project/stm32/Target_tracking/user/My_Peripheral/OLED\oled.c ****  * @param {uint8_t} direction			LEFT	   0x27     	RIGHT  0x26
 415:E:/MCU_Project/stm32/Target_tracking/user/My_Peripheral/OLED\oled.c ****  * @param {uint8_t} start 开始页地址  0x00~0x07
 416:E:/MCU_Project/stm32/Target_tracking/user/My_Peripheral/OLED\oled.c ****  * @param {uint8_t} end  结束页地址  0x01~0x07
 417:E:/MCU_Project/stm32/Target_tracking/user/My_Peripheral/OLED\oled.c ****  * @return {*}
 418:E:/MCU_Project/stm32/Target_tracking/user/My_Peripheral/OLED\oled.c ****  */
 419:E:/MCU_Project/stm32/Target_tracking/user/My_Peripheral/OLED\oled.c **** void OLED_Some_HorizontalShift(uint8_t direction,uint8_t start,uint8_t end)
 420:E:/MCU_Project/stm32/Target_tracking/user/My_Peripheral/OLED\oled.c **** {
 1641              		.loc 1 420 1 is_stmt 1 view -0
 1642              		.cfi_startproc
 1643              		@ args = 0, pretend = 0, frame = 0
 1644              		@ frame_needed = 0, uses_anonymous_args = 0
 1645              		.loc 1 420 1 is_stmt 0 view .LVU412
 1646 0000 70B5     		push	{r4, r5, r6, lr}
 1647              	.LCFI30:
 1648              		.cfi_def_cfa_offset 16
 1649              		.cfi_offset 4, -16
 1650              		.cfi_offset 5, -12
 1651              		.cfi_offset 6, -8
 1652              		.cfi_offset 14, -4
 1653 0002 0646     		mov	r6, r0
 1654 0004 0D46     		mov	r5, r1
 1655 0006 1446     		mov	r4, r2
 421:E:/MCU_Project/stm32/Target_tracking/user/My_Peripheral/OLED\oled.c **** 	OLED_WR_CMD(0x2e);//停止滚动
 1656              		.loc 1 421 2 is_stmt 1 view .LVU413
 1657 0008 2E20     		movs	r0, #46
 1658              	.LVL187:
 1659              		.loc 1 421 2 is_stmt 0 view .LVU414
 1660 000a FFF7FEFF 		bl	OLED_WR_CMD
 1661              	.LVL188:
 422:E:/MCU_Project/stm32/Target_tracking/user/My_Peripheral/OLED\oled.c **** 	OLED_WR_CMD(direction);//设置滚动方向
 1662              		.loc 1 422 2 is_stmt 1 view .LVU415
 1663 000e 3046     		mov	r0, r6
 1664 0010 FFF7FEFF 		bl	OLED_WR_CMD
 1665              	.LVL189:
 423:E:/MCU_Project/stm32/Target_tracking/user/My_Peripheral/OLED\oled.c **** 	OLED_WR_CMD(0x00);//虚拟字节设置，默认为0x00
 1666              		.loc 1 423 2 view .LVU416
 1667 0014 0020     		movs	r0, #0
 1668 0016 FFF7FEFF 		bl	OLED_WR_CMD
 1669              	.LVL190:
 424:E:/MCU_Project/stm32/Target_tracking/user/My_Peripheral/OLED\oled.c **** 	OLED_WR_CMD(start);//设置开始页地址
 1670              		.loc 1 424 2 view .LVU417
 1671 001a 2846     		mov	r0, r5
 1672 001c FFF7FEFF 		bl	OLED_WR_CMD
 1673              	.LVL191:
 425:E:/MCU_Project/stm32/Target_tracking/user/My_Peripheral/OLED\oled.c **** 	OLED_WR_CMD(0x07);//设置每个滚动步骤之间的时间间隔的帧频,0x07即滚动速度2帧
 1674              		.loc 1 425 2 view .LVU418
 1675 0020 0720     		movs	r0, #7
 1676 0022 FFF7FEFF 		bl	OLED_WR_CMD
 1677              	.LVL192:
 426:E:/MCU_Project/stm32/Target_tracking/user/My_Peripheral/OLED\oled.c **** 	OLED_WR_CMD(end);//设置结束页地址
 1678              		.loc 1 426 2 view .LVU419
 1679 0026 2046     		mov	r0, r4
 1680 0028 FFF7FEFF 		bl	OLED_WR_CMD
 1681              	.LVL193:
 427:E:/MCU_Project/stm32/Target_tracking/user/My_Peripheral/OLED\oled.c **** 	OLED_WR_CMD(0x00);//虚拟字节设置，默认为0x00
 1682              		.loc 1 427 2 view .LVU420
ARM GAS  C:\Users\86390\AppData\Local\Temp\cc0lOyie.s 			page 41


 1683 002c 0020     		movs	r0, #0
 1684 002e FFF7FEFF 		bl	OLED_WR_CMD
 1685              	.LVL194:
 428:E:/MCU_Project/stm32/Target_tracking/user/My_Peripheral/OLED\oled.c **** 	OLED_WR_CMD(0xff);//虚拟字节设置，默认为0xff
 1686              		.loc 1 428 2 view .LVU421
 1687 0032 FF20     		movs	r0, #255
 1688 0034 FFF7FEFF 		bl	OLED_WR_CMD
 1689              	.LVL195:
 429:E:/MCU_Project/stm32/Target_tracking/user/My_Peripheral/OLED\oled.c **** 	OLED_WR_CMD(0x2f);//开启滚动-0x2f，禁用滚动-0x2e，禁用需要重写数据
 1690              		.loc 1 429 2 view .LVU422
 1691 0038 2F20     		movs	r0, #47
 1692 003a FFF7FEFF 		bl	OLED_WR_CMD
 1693              	.LVL196:
 430:E:/MCU_Project/stm32/Target_tracking/user/My_Peripheral/OLED\oled.c ****  
 431:E:/MCU_Project/stm32/Target_tracking/user/My_Peripheral/OLED\oled.c **** }
 1694              		.loc 1 431 1 is_stmt 0 view .LVU423
 1695 003e 70BD     		pop	{r4, r5, r6, pc}
 1696              		.cfi_endproc
 1697              	.LFE151:
 1699              		.section	.text.OLED_VerticalAndHorizontalShift,"ax",%progbits
 1700              		.align	1
 1701              		.global	OLED_VerticalAndHorizontalShift
 1702              		.syntax unified
 1703              		.thumb
 1704              		.thumb_func
 1706              	OLED_VerticalAndHorizontalShift:
 1707              	.LVL197:
 1708              	.LFB152:
 432:E:/MCU_Project/stm32/Target_tracking/user/My_Peripheral/OLED\oled.c ****  
 433:E:/MCU_Project/stm32/Target_tracking/user/My_Peripheral/OLED\oled.c **** /**
 434:E:/MCU_Project/stm32/Target_tracking/user/My_Peripheral/OLED\oled.c ****  * @function: void OLED_VerticalAndHorizontalShift(uint8_t direction)
 435:E:/MCU_Project/stm32/Target_tracking/user/My_Peripheral/OLED\oled.c ****  * @description: 屏幕内容垂直水平全屏滚动播放
 436:E:/MCU_Project/stm32/Target_tracking/user/My_Peripheral/OLED\oled.c ****  * @param {uint8_t} direction				右上滚动	 0x29
 437:E:/MCU_Project/stm32/Target_tracking/user/My_Peripheral/OLED\oled.c ****  *                                                            左上滚动   0x2A
 438:E:/MCU_Project/stm32/Target_tracking/user/My_Peripheral/OLED\oled.c ****  * @return {*}
 439:E:/MCU_Project/stm32/Target_tracking/user/My_Peripheral/OLED\oled.c ****  */
 440:E:/MCU_Project/stm32/Target_tracking/user/My_Peripheral/OLED\oled.c **** void OLED_VerticalAndHorizontalShift(uint8_t direction)
 441:E:/MCU_Project/stm32/Target_tracking/user/My_Peripheral/OLED\oled.c **** {
 1709              		.loc 1 441 1 is_stmt 1 view -0
 1710              		.cfi_startproc
 1711              		@ args = 0, pretend = 0, frame = 0
 1712              		@ frame_needed = 0, uses_anonymous_args = 0
 1713              		.loc 1 441 1 is_stmt 0 view .LVU425
 1714 0000 10B5     		push	{r4, lr}
 1715              	.LCFI31:
 1716              		.cfi_def_cfa_offset 8
 1717              		.cfi_offset 4, -8
 1718              		.cfi_offset 14, -4
 1719 0002 0446     		mov	r4, r0
 442:E:/MCU_Project/stm32/Target_tracking/user/My_Peripheral/OLED\oled.c **** 	OLED_WR_CMD(0x2e);//停止滚动
 1720              		.loc 1 442 2 is_stmt 1 view .LVU426
 1721 0004 2E20     		movs	r0, #46
 1722              	.LVL198:
 1723              		.loc 1 442 2 is_stmt 0 view .LVU427
 1724 0006 FFF7FEFF 		bl	OLED_WR_CMD
 1725              	.LVL199:
 443:E:/MCU_Project/stm32/Target_tracking/user/My_Peripheral/OLED\oled.c **** 	OLED_WR_CMD(direction);//设置滚动方向
ARM GAS  C:\Users\86390\AppData\Local\Temp\cc0lOyie.s 			page 42


 1726              		.loc 1 443 2 is_stmt 1 view .LVU428
 1727 000a 2046     		mov	r0, r4
 1728 000c FFF7FEFF 		bl	OLED_WR_CMD
 1729              	.LVL200:
 444:E:/MCU_Project/stm32/Target_tracking/user/My_Peripheral/OLED\oled.c **** 	OLED_WR_CMD(0x01);//虚拟字节设置
 1730              		.loc 1 444 2 view .LVU429
 1731 0010 0120     		movs	r0, #1
 1732 0012 FFF7FEFF 		bl	OLED_WR_CMD
 1733              	.LVL201:
 445:E:/MCU_Project/stm32/Target_tracking/user/My_Peripheral/OLED\oled.c **** 	OLED_WR_CMD(0x00);//设置开始页地址
 1734              		.loc 1 445 2 view .LVU430
 1735 0016 0020     		movs	r0, #0
 1736 0018 FFF7FEFF 		bl	OLED_WR_CMD
 1737              	.LVL202:
 446:E:/MCU_Project/stm32/Target_tracking/user/My_Peripheral/OLED\oled.c **** 	OLED_WR_CMD(0x07);//设置每个滚动步骤之间的时间间隔的帧频，即滚动速度
 1738              		.loc 1 446 2 view .LVU431
 1739 001c 0720     		movs	r0, #7
 1740 001e FFF7FEFF 		bl	OLED_WR_CMD
 1741              	.LVL203:
 447:E:/MCU_Project/stm32/Target_tracking/user/My_Peripheral/OLED\oled.c **** 	OLED_WR_CMD(0x07);//设置结束页地址
 1742              		.loc 1 447 2 view .LVU432
 1743 0022 0720     		movs	r0, #7
 1744 0024 FFF7FEFF 		bl	OLED_WR_CMD
 1745              	.LVL204:
 448:E:/MCU_Project/stm32/Target_tracking/user/My_Peripheral/OLED\oled.c **** 	OLED_WR_CMD(0x01);//垂直滚动偏移量
 1746              		.loc 1 448 2 view .LVU433
 1747 0028 0120     		movs	r0, #1
 1748 002a FFF7FEFF 		bl	OLED_WR_CMD
 1749              	.LVL205:
 449:E:/MCU_Project/stm32/Target_tracking/user/My_Peripheral/OLED\oled.c **** 	OLED_WR_CMD(0x00);//虚拟字节设置，默认为0x00
 1750              		.loc 1 449 2 view .LVU434
 1751 002e 0020     		movs	r0, #0
 1752 0030 FFF7FEFF 		bl	OLED_WR_CMD
 1753              	.LVL206:
 450:E:/MCU_Project/stm32/Target_tracking/user/My_Peripheral/OLED\oled.c **** 	OLED_WR_CMD(0xff);//虚拟字节设置，默认为0xff
 1754              		.loc 1 450 2 view .LVU435
 1755 0034 FF20     		movs	r0, #255
 1756 0036 FFF7FEFF 		bl	OLED_WR_CMD
 1757              	.LVL207:
 451:E:/MCU_Project/stm32/Target_tracking/user/My_Peripheral/OLED\oled.c **** 	OLED_WR_CMD(0x2f);//开启滚动-0x2f，禁用滚动-0x2e，禁用需要重写数据
 1758              		.loc 1 451 2 view .LVU436
 1759 003a 2F20     		movs	r0, #47
 1760 003c FFF7FEFF 		bl	OLED_WR_CMD
 1761              	.LVL208:
 452:E:/MCU_Project/stm32/Target_tracking/user/My_Peripheral/OLED\oled.c **** }
 1762              		.loc 1 452 1 is_stmt 0 view .LVU437
 1763 0040 10BD     		pop	{r4, pc}
 1764              		.cfi_endproc
 1765              	.LFE152:
 1767              		.section	.text.OLED_DisplayMode,"ax",%progbits
 1768              		.align	1
 1769              		.global	OLED_DisplayMode
 1770              		.syntax unified
 1771              		.thumb
 1772              		.thumb_func
 1774              	OLED_DisplayMode:
 1775              	.LVL209:
ARM GAS  C:\Users\86390\AppData\Local\Temp\cc0lOyie.s 			page 43


 1776              	.LFB153:
 453:E:/MCU_Project/stm32/Target_tracking/user/My_Peripheral/OLED\oled.c ****  
 454:E:/MCU_Project/stm32/Target_tracking/user/My_Peripheral/OLED\oled.c **** /**
 455:E:/MCU_Project/stm32/Target_tracking/user/My_Peripheral/OLED\oled.c ****  * @function: void OLED_DisplayMode(uint8_t mode)
 456:E:/MCU_Project/stm32/Target_tracking/user/My_Peripheral/OLED\oled.c ****  * @description: 屏幕内容取反显示
 457:E:/MCU_Project/stm32/Target_tracking/user/My_Peripheral/OLED\oled.c ****  * @param {uint8_t} direction			ON	0xA7  ，
 458:E:/MCU_Project/stm32/Target_tracking/user/My_Peripheral/OLED\oled.c ****  *                                                          OFF	0xA6	默认此模式，设置像素点亮
 459:E:/MCU_Project/stm32/Target_tracking/user/My_Peripheral/OLED\oled.c ****  * @return {*}
 460:E:/MCU_Project/stm32/Target_tracking/user/My_Peripheral/OLED\oled.c ****  */
 461:E:/MCU_Project/stm32/Target_tracking/user/My_Peripheral/OLED\oled.c **** void OLED_DisplayMode(uint8_t mode)
 462:E:/MCU_Project/stm32/Target_tracking/user/My_Peripheral/OLED\oled.c **** {
 1777              		.loc 1 462 1 is_stmt 1 view -0
 1778              		.cfi_startproc
 1779              		@ args = 0, pretend = 0, frame = 0
 1780              		@ frame_needed = 0, uses_anonymous_args = 0
 1781              		.loc 1 462 1 is_stmt 0 view .LVU439
 1782 0000 08B5     		push	{r3, lr}
 1783              	.LCFI32:
 1784              		.cfi_def_cfa_offset 8
 1785              		.cfi_offset 3, -8
 1786              		.cfi_offset 14, -4
 463:E:/MCU_Project/stm32/Target_tracking/user/My_Peripheral/OLED\oled.c **** 	OLED_WR_CMD(mode);
 1787              		.loc 1 463 2 is_stmt 1 view .LVU440
 1788 0002 FFF7FEFF 		bl	OLED_WR_CMD
 1789              	.LVL210:
 464:E:/MCU_Project/stm32/Target_tracking/user/My_Peripheral/OLED\oled.c **** }
 1790              		.loc 1 464 1 is_stmt 0 view .LVU441
 1791 0006 08BD     		pop	{r3, pc}
 1792              		.cfi_endproc
 1793              	.LFE153:
 1795              		.section	.text.OLED_IntensityControl,"ax",%progbits
 1796              		.align	1
 1797              		.global	OLED_IntensityControl
 1798              		.syntax unified
 1799              		.thumb
 1800              		.thumb_func
 1802              	OLED_IntensityControl:
 1803              	.LVL211:
 1804              	.LFB154:
 465:E:/MCU_Project/stm32/Target_tracking/user/My_Peripheral/OLED\oled.c ****  
 466:E:/MCU_Project/stm32/Target_tracking/user/My_Peripheral/OLED\oled.c **** /**
 467:E:/MCU_Project/stm32/Target_tracking/user/My_Peripheral/OLED\oled.c ****  * @function: void OLED_IntensityControl(uint8_t intensity)
 468:E:/MCU_Project/stm32/Target_tracking/user/My_Peripheral/OLED\oled.c ****  * @description: 屏幕亮度调节
 469:E:/MCU_Project/stm32/Target_tracking/user/My_Peripheral/OLED\oled.c ****  * @param  {uint8_t} intensity	0x00~0xFF,RESET=0x7F
 470:E:/MCU_Project/stm32/Target_tracking/user/My_Peripheral/OLED\oled.c ****  * @return {*}
 471:E:/MCU_Project/stm32/Target_tracking/user/My_Peripheral/OLED\oled.c ****  */
 472:E:/MCU_Project/stm32/Target_tracking/user/My_Peripheral/OLED\oled.c **** void OLED_IntensityControl(uint8_t intensity)
 473:E:/MCU_Project/stm32/Target_tracking/user/My_Peripheral/OLED\oled.c **** {
 1805              		.loc 1 473 1 is_stmt 1 view -0
 1806              		.cfi_startproc
 1807              		@ args = 0, pretend = 0, frame = 0
 1808              		@ frame_needed = 0, uses_anonymous_args = 0
 1809              		.loc 1 473 1 is_stmt 0 view .LVU443
 1810 0000 10B5     		push	{r4, lr}
 1811              	.LCFI33:
 1812              		.cfi_def_cfa_offset 8
 1813              		.cfi_offset 4, -8
ARM GAS  C:\Users\86390\AppData\Local\Temp\cc0lOyie.s 			page 44


 1814              		.cfi_offset 14, -4
 1815 0002 0446     		mov	r4, r0
 474:E:/MCU_Project/stm32/Target_tracking/user/My_Peripheral/OLED\oled.c **** 	OLED_WR_CMD(0x81);
 1816              		.loc 1 474 2 is_stmt 1 view .LVU444
 1817 0004 8120     		movs	r0, #129
 1818              	.LVL212:
 1819              		.loc 1 474 2 is_stmt 0 view .LVU445
 1820 0006 FFF7FEFF 		bl	OLED_WR_CMD
 1821              	.LVL213:
 475:E:/MCU_Project/stm32/Target_tracking/user/My_Peripheral/OLED\oled.c **** 	OLED_WR_CMD(intensity);
 1822              		.loc 1 475 2 is_stmt 1 view .LVU446
 1823 000a 2046     		mov	r0, r4
 1824 000c FFF7FEFF 		bl	OLED_WR_CMD
 1825              	.LVL214:
 476:E:/MCU_Project/stm32/Target_tracking/user/My_Peripheral/OLED\oled.c **** }
 1826              		.loc 1 476 1 is_stmt 0 view .LVU447
 1827 0010 10BD     		pop	{r4, pc}
 1828              		.cfi_endproc
 1829              	.LFE154:
 1831              		.section	.rodata.menu1.str1.4,"aMS",%progbits,1
 1832              		.align	2
 1833              	.LC0:
 1834 0000 4C4F4341 		.ascii	"LOCATE_MODE\000"
 1834      54455F4D 
 1834      4F444500 
 1835              		.align	2
 1836              	.LC1:
 1837 000c 4C415345 		.ascii	"LASER_RESET\000"
 1837      525F5245 
 1837      53455400 
 1838              		.align	2
 1839              	.LC2:
 1840 0018 4C415345 		.ascii	"LASER_MOVE\000"
 1840      525F4D4F 
 1840      564500
 1841              		.section	.text.menu1,"ax",%progbits
 1842              		.align	1
 1843              		.global	menu1
 1844              		.syntax unified
 1845              		.thumb
 1846              		.thumb_func
 1848              	menu1:
 1849              	.LFB155:
 477:E:/MCU_Project/stm32/Target_tracking/user/My_Peripheral/OLED\oled.c **** 
 478:E:/MCU_Project/stm32/Target_tracking/user/My_Peripheral/OLED\oled.c **** 
 479:E:/MCU_Project/stm32/Target_tracking/user/My_Peripheral/OLED\oled.c **** /*************************************************************************/
 480:E:/MCU_Project/stm32/Target_tracking/user/My_Peripheral/OLED\oled.c **** 
 481:E:/MCU_Project/stm32/Target_tracking/user/My_Peripheral/OLED\oled.c **** /* OLED多级菜单部分 */
 482:E:/MCU_Project/stm32/Target_tracking/user/My_Peripheral/OLED\oled.c **** 
 483:E:/MCU_Project/stm32/Target_tracking/user/My_Peripheral/OLED\oled.c **** int menu2,menu3,menu4;
 484:E:/MCU_Project/stm32/Target_tracking/user/My_Peripheral/OLED\oled.c **** 
 485:E:/MCU_Project/stm32/Target_tracking/user/My_Peripheral/OLED\oled.c **** /* 一级菜单显示 */
 486:E:/MCU_Project/stm32/Target_tracking/user/My_Peripheral/OLED\oled.c **** 
 487:E:/MCU_Project/stm32/Target_tracking/user/My_Peripheral/OLED\oled.c **** int menu1(void)
 488:E:/MCU_Project/stm32/Target_tracking/user/My_Peripheral/OLED\oled.c **** {
 1850              		.loc 1 488 1 is_stmt 1 view -0
 1851              		.cfi_startproc
ARM GAS  C:\Users\86390\AppData\Local\Temp\cc0lOyie.s 			page 45


 1852              		@ args = 0, pretend = 0, frame = 0
 1853              		@ frame_needed = 0, uses_anonymous_args = 0
 1854 0000 30B5     		push	{r4, r5, lr}
 1855              	.LCFI34:
 1856              		.cfi_def_cfa_offset 12
 1857              		.cfi_offset 4, -12
 1858              		.cfi_offset 5, -8
 1859              		.cfi_offset 14, -4
 1860 0002 83B0     		sub	sp, sp, #12
 1861              	.LCFI35:
 1862              		.cfi_def_cfa_offset 24
 489:E:/MCU_Project/stm32/Target_tracking/user/My_Peripheral/OLED\oled.c **** 		/* 一级菜单初始显示 */
 490:E:/MCU_Project/stm32/Target_tracking/user/My_Peripheral/OLED\oled.c **** 		int menu1_flag=1;				/* 选择标志 */
 1863              		.loc 1 490 3 view .LVU449
 1864              	.LVL215:
 491:E:/MCU_Project/stm32/Target_tracking/user/My_Peripheral/OLED\oled.c **** 	
 492:E:/MCU_Project/stm32/Target_tracking/user/My_Peripheral/OLED\oled.c **** 		OLED_ShowString(16,0,"LOCATE_MODE",16,0);	
 1865              		.loc 1 492 3 view .LVU450
 1866 0004 0024     		movs	r4, #0
 1867 0006 0094     		str	r4, [sp]
 1868 0008 1023     		movs	r3, #16
 1869 000a 3C4A     		ldr	r2, .L147
 1870 000c 2146     		mov	r1, r4
 1871 000e 1846     		mov	r0, r3
 1872 0010 FFF7FEFF 		bl	OLED_ShowString
 1873              	.LVL216:
 493:E:/MCU_Project/stm32/Target_tracking/user/My_Peripheral/OLED\oled.c **** 		OLED_ShowString(16,2,"LASER_RESET",16,0);
 1874              		.loc 1 493 3 view .LVU451
 1875 0014 0094     		str	r4, [sp]
 1876 0016 1023     		movs	r3, #16
 1877 0018 394A     		ldr	r2, .L147+4
 1878 001a 0221     		movs	r1, #2
 1879 001c 1846     		mov	r0, r3
 1880 001e FFF7FEFF 		bl	OLED_ShowString
 1881              	.LVL217:
 494:E:/MCU_Project/stm32/Target_tracking/user/My_Peripheral/OLED\oled.c **** 		OLED_ShowString(16,4,"LASER_MOVE",16,0);
 1882              		.loc 1 494 3 view .LVU452
 1883 0022 0094     		str	r4, [sp]
 1884 0024 1023     		movs	r3, #16
 1885 0026 374A     		ldr	r2, .L147+8
 1886 0028 0421     		movs	r1, #4
 1887 002a 1846     		mov	r0, r3
 1888 002c FFF7FEFF 		bl	OLED_ShowString
 1889              	.LVL218:
 490:E:/MCU_Project/stm32/Target_tracking/user/My_Peripheral/OLED\oled.c **** 	
 1890              		.loc 1 490 7 is_stmt 0 view .LVU453
 1891 0030 0124     		movs	r4, #1
 1892 0032 1FE0     		b	.L133
 1893              	.LVL219:
 1894              	.L145:
 495:E:/MCU_Project/stm32/Target_tracking/user/My_Peripheral/OLED\oled.c **** 		
 496:E:/MCU_Project/stm32/Target_tracking/user/My_Peripheral/OLED\oled.c **** 		while(1)
 497:E:/MCU_Project/stm32/Target_tracking/user/My_Peripheral/OLED\oled.c **** 		{
 498:E:/MCU_Project/stm32/Target_tracking/user/My_Peripheral/OLED\oled.c **** 				Key_Scan(&KeyNum);			/* 获取键码值 */
 499:E:/MCU_Project/stm32/Target_tracking/user/My_Peripheral/OLED\oled.c **** 				
 500:E:/MCU_Project/stm32/Target_tracking/user/My_Peripheral/OLED\oled.c **** 				if(KeyNum == 1)		/* *向下移动 */
 501:E:/MCU_Project/stm32/Target_tracking/user/My_Peripheral/OLED\oled.c **** 				{
ARM GAS  C:\Users\86390\AppData\Local\Temp\cc0lOyie.s 			page 46


 502:E:/MCU_Project/stm32/Target_tracking/user/My_Peripheral/OLED\oled.c **** 						menu1_flag++;
 1895              		.loc 1 502 7 is_stmt 1 view .LVU454
 1896              		.loc 1 502 17 is_stmt 0 view .LVU455
 1897 0034 0134     		adds	r4, r4, #1
 1898              	.LVL220:
 503:E:/MCU_Project/stm32/Target_tracking/user/My_Peripheral/OLED\oled.c **** 						if(menu1_flag>=4) menu1_flag=1;
 1899              		.loc 1 503 7 is_stmt 1 view .LVU456
 1900              		.loc 1 503 9 is_stmt 0 view .LVU457
 1901 0036 032C     		cmp	r4, #3
 1902 0038 23DD     		ble	.L134
 1903              		.loc 1 503 35 view .LVU458
 1904 003a 0124     		movs	r4, #1
 1905              	.LVL221:
 1906              		.loc 1 503 35 view .LVU459
 1907 003c 21E0     		b	.L134
 1908              	.LVL222:
 1909              	.L146:
 504:E:/MCU_Project/stm32/Target_tracking/user/My_Peripheral/OLED\oled.c **** 				}
 505:E:/MCU_Project/stm32/Target_tracking/user/My_Peripheral/OLED\oled.c **** 				if(KeyNum == 2)		/* *向上移动 */
 506:E:/MCU_Project/stm32/Target_tracking/user/My_Peripheral/OLED\oled.c **** 				{
 507:E:/MCU_Project/stm32/Target_tracking/user/My_Peripheral/OLED\oled.c **** 						menu1_flag--;
 1910              		.loc 1 507 7 is_stmt 1 view .LVU460
 1911              		.loc 1 507 17 is_stmt 0 view .LVU461
 1912 003e 013C     		subs	r4, r4, #1
 1913              	.LVL223:
 508:E:/MCU_Project/stm32/Target_tracking/user/My_Peripheral/OLED\oled.c **** 						if(menu1_flag<=0) menu1_flag=1;		
 1914              		.loc 1 508 7 is_stmt 1 view .LVU462
 1915              		.loc 1 508 9 is_stmt 0 view .LVU463
 1916 0040 002C     		cmp	r4, #0
 1917 0042 20DC     		bgt	.L135
 1918              		.loc 1 508 35 view .LVU464
 1919 0044 0124     		movs	r4, #1
 1920              	.LVL224:
 1921              		.loc 1 508 35 view .LVU465
 1922 0046 1EE0     		b	.L135
 1923              	.LVL225:
 1924              	.L137:
 509:E:/MCU_Project/stm32/Target_tracking/user/My_Peripheral/OLED\oled.c **** 				}
 510:E:/MCU_Project/stm32/Target_tracking/user/My_Peripheral/OLED\oled.c **** 				if(KeyNum == 3)		/* 选择确认-->进入二级菜单 */
 511:E:/MCU_Project/stm32/Target_tracking/user/My_Peripheral/OLED\oled.c **** 				{
 512:E:/MCU_Project/stm32/Target_tracking/user/My_Peripheral/OLED\oled.c **** 						OLED_Clear();			/* 清除一级菜单内容(为进入二级菜单做准备) */
 513:E:/MCU_Project/stm32/Target_tracking/user/My_Peripheral/OLED\oled.c **** 						return(menu1_flag);			/* 根据返回值进行选择 */
 514:E:/MCU_Project/stm32/Target_tracking/user/My_Peripheral/OLED\oled.c **** 				}
 515:E:/MCU_Project/stm32/Target_tracking/user/My_Peripheral/OLED\oled.c **** 				
 516:E:/MCU_Project/stm32/Target_tracking/user/My_Peripheral/OLED\oled.c **** 				switch(menu1_flag)			/* 根据给到的标志位进行*的移动 */
 517:E:/MCU_Project/stm32/Target_tracking/user/My_Peripheral/OLED\oled.c **** 				{
 518:E:/MCU_Project/stm32/Target_tracking/user/My_Peripheral/OLED\oled.c **** 						case 1:
 519:E:/MCU_Project/stm32/Target_tracking/user/My_Peripheral/OLED\oled.c **** 						{
 520:E:/MCU_Project/stm32/Target_tracking/user/My_Peripheral/OLED\oled.c **** 								OLED_ShowChar(0,0,'*',16,0);
 521:E:/MCU_Project/stm32/Target_tracking/user/My_Peripheral/OLED\oled.c **** 								OLED_ShowChar(0,2,' ',16,0);
 522:E:/MCU_Project/stm32/Target_tracking/user/My_Peripheral/OLED\oled.c **** 								OLED_ShowChar(0,4,' ',16,0);
 523:E:/MCU_Project/stm32/Target_tracking/user/My_Peripheral/OLED\oled.c **** 								break;
 524:E:/MCU_Project/stm32/Target_tracking/user/My_Peripheral/OLED\oled.c **** 						}
 525:E:/MCU_Project/stm32/Target_tracking/user/My_Peripheral/OLED\oled.c **** 						
 526:E:/MCU_Project/stm32/Target_tracking/user/My_Peripheral/OLED\oled.c **** 						case 2:
 527:E:/MCU_Project/stm32/Target_tracking/user/My_Peripheral/OLED\oled.c **** 						{
 528:E:/MCU_Project/stm32/Target_tracking/user/My_Peripheral/OLED\oled.c **** 								OLED_ShowChar(0,0,' ',16,0);
ARM GAS  C:\Users\86390\AppData\Local\Temp\cc0lOyie.s 			page 47


 1925              		.loc 1 528 9 is_stmt 1 view .LVU466
 1926 0048 0025     		movs	r5, #0
 1927 004a 0095     		str	r5, [sp]
 1928 004c 1023     		movs	r3, #16
 1929 004e 2022     		movs	r2, #32
 1930 0050 2946     		mov	r1, r5
 1931 0052 2846     		mov	r0, r5
 1932 0054 FFF7FEFF 		bl	OLED_ShowChar
 1933              	.LVL226:
 529:E:/MCU_Project/stm32/Target_tracking/user/My_Peripheral/OLED\oled.c **** 								OLED_ShowChar(0,2,'*',16,0);
 1934              		.loc 1 529 9 view .LVU467
 1935 0058 0095     		str	r5, [sp]
 1936 005a 1023     		movs	r3, #16
 1937 005c 2A22     		movs	r2, #42
 1938 005e 0221     		movs	r1, #2
 1939 0060 2846     		mov	r0, r5
 1940 0062 FFF7FEFF 		bl	OLED_ShowChar
 1941              	.LVL227:
 530:E:/MCU_Project/stm32/Target_tracking/user/My_Peripheral/OLED\oled.c **** 								OLED_ShowChar(0,4,' ',16,0);	
 1942              		.loc 1 530 9 view .LVU468
 1943 0066 0095     		str	r5, [sp]
 1944 0068 1023     		movs	r3, #16
 1945 006a 2022     		movs	r2, #32
 1946 006c 0421     		movs	r1, #4
 1947 006e 2846     		mov	r0, r5
 1948 0070 FFF7FEFF 		bl	OLED_ShowChar
 1949              	.LVL228:
 531:E:/MCU_Project/stm32/Target_tracking/user/My_Peripheral/OLED\oled.c **** 								break;
 1950              		.loc 1 531 9 view .LVU469
 1951              	.L133:
 496:E:/MCU_Project/stm32/Target_tracking/user/My_Peripheral/OLED\oled.c **** 		{
 1952              		.loc 1 496 3 view .LVU470
 498:E:/MCU_Project/stm32/Target_tracking/user/My_Peripheral/OLED\oled.c **** 				
 1953              		.loc 1 498 5 view .LVU471
 1954 0074 244D     		ldr	r5, .L147+12
 1955 0076 2846     		mov	r0, r5
 1956 0078 FFF7FEFF 		bl	Key_Scan
 1957              	.LVL229:
 500:E:/MCU_Project/stm32/Target_tracking/user/My_Peripheral/OLED\oled.c **** 				{
 1958              		.loc 1 500 5 view .LVU472
 500:E:/MCU_Project/stm32/Target_tracking/user/My_Peripheral/OLED\oled.c **** 				{
 1959              		.loc 1 500 15 is_stmt 0 view .LVU473
 1960 007c 2B78     		ldrb	r3, [r5]	@ zero_extendqisi2
 500:E:/MCU_Project/stm32/Target_tracking/user/My_Peripheral/OLED\oled.c **** 				{
 1961              		.loc 1 500 7 view .LVU474
 1962 007e 012B     		cmp	r3, #1
 1963 0080 D8D0     		beq	.L145
 1964              	.LVL230:
 1965              	.L134:
 505:E:/MCU_Project/stm32/Target_tracking/user/My_Peripheral/OLED\oled.c **** 				{
 1966              		.loc 1 505 5 is_stmt 1 view .LVU475
 505:E:/MCU_Project/stm32/Target_tracking/user/My_Peripheral/OLED\oled.c **** 				{
 1967              		.loc 1 505 7 is_stmt 0 view .LVU476
 1968 0082 022B     		cmp	r3, #2
 1969 0084 DBD0     		beq	.L146
 1970              	.LVL231:
 1971              	.L135:
ARM GAS  C:\Users\86390\AppData\Local\Temp\cc0lOyie.s 			page 48


 510:E:/MCU_Project/stm32/Target_tracking/user/My_Peripheral/OLED\oled.c **** 				{
 1972              		.loc 1 510 5 is_stmt 1 view .LVU477
 510:E:/MCU_Project/stm32/Target_tracking/user/My_Peripheral/OLED\oled.c **** 				{
 1973              		.loc 1 510 7 is_stmt 0 view .LVU478
 1974 0086 032B     		cmp	r3, #3
 1975 0088 33D0     		beq	.L143
 516:E:/MCU_Project/stm32/Target_tracking/user/My_Peripheral/OLED\oled.c **** 				{
 1976              		.loc 1 516 5 is_stmt 1 view .LVU479
 1977 008a 022C     		cmp	r4, #2
 1978 008c DCD0     		beq	.L137
 1979 008e 032C     		cmp	r4, #3
 1980 0090 18D0     		beq	.L138
 1981 0092 012C     		cmp	r4, #1
 1982 0094 EED1     		bne	.L133
 520:E:/MCU_Project/stm32/Target_tracking/user/My_Peripheral/OLED\oled.c **** 								OLED_ShowChar(0,2,' ',16,0);
 1983              		.loc 1 520 9 view .LVU480
 1984 0096 0025     		movs	r5, #0
 1985 0098 0095     		str	r5, [sp]
 1986 009a 1023     		movs	r3, #16
 1987 009c 2A22     		movs	r2, #42
 1988 009e 2946     		mov	r1, r5
 1989 00a0 2846     		mov	r0, r5
 1990 00a2 FFF7FEFF 		bl	OLED_ShowChar
 1991              	.LVL232:
 521:E:/MCU_Project/stm32/Target_tracking/user/My_Peripheral/OLED\oled.c **** 								OLED_ShowChar(0,4,' ',16,0);
 1992              		.loc 1 521 9 view .LVU481
 1993 00a6 0095     		str	r5, [sp]
 1994 00a8 1023     		movs	r3, #16
 1995 00aa 2022     		movs	r2, #32
 1996 00ac 0221     		movs	r1, #2
 1997 00ae 2846     		mov	r0, r5
 1998 00b0 FFF7FEFF 		bl	OLED_ShowChar
 1999              	.LVL233:
 522:E:/MCU_Project/stm32/Target_tracking/user/My_Peripheral/OLED\oled.c **** 								break;
 2000              		.loc 1 522 9 view .LVU482
 2001 00b4 0095     		str	r5, [sp]
 2002 00b6 1023     		movs	r3, #16
 2003 00b8 2022     		movs	r2, #32
 2004 00ba 0421     		movs	r1, #4
 2005 00bc 2846     		mov	r0, r5
 2006 00be FFF7FEFF 		bl	OLED_ShowChar
 2007              	.LVL234:
 523:E:/MCU_Project/stm32/Target_tracking/user/My_Peripheral/OLED\oled.c **** 						}
 2008              		.loc 1 523 9 view .LVU483
 2009 00c2 D7E7     		b	.L133
 2010              	.L138:
 532:E:/MCU_Project/stm32/Target_tracking/user/My_Peripheral/OLED\oled.c **** 						}
 533:E:/MCU_Project/stm32/Target_tracking/user/My_Peripheral/OLED\oled.c **** 						case 3:
 534:E:/MCU_Project/stm32/Target_tracking/user/My_Peripheral/OLED\oled.c **** 						{
 535:E:/MCU_Project/stm32/Target_tracking/user/My_Peripheral/OLED\oled.c **** 								OLED_ShowChar(0,0,' ',16,0);
 2011              		.loc 1 535 9 view .LVU484
 2012 00c4 0025     		movs	r5, #0
 2013 00c6 0095     		str	r5, [sp]
 2014 00c8 1023     		movs	r3, #16
 2015 00ca 2022     		movs	r2, #32
 2016 00cc 2946     		mov	r1, r5
 2017 00ce 2846     		mov	r0, r5
ARM GAS  C:\Users\86390\AppData\Local\Temp\cc0lOyie.s 			page 49


 2018 00d0 FFF7FEFF 		bl	OLED_ShowChar
 2019              	.LVL235:
 536:E:/MCU_Project/stm32/Target_tracking/user/My_Peripheral/OLED\oled.c **** 								OLED_ShowChar(0,2,' ',16,0);
 2020              		.loc 1 536 9 view .LVU485
 2021 00d4 0095     		str	r5, [sp]
 2022 00d6 1023     		movs	r3, #16
 2023 00d8 2022     		movs	r2, #32
 2024 00da 0221     		movs	r1, #2
 2025 00dc 2846     		mov	r0, r5
 2026 00de FFF7FEFF 		bl	OLED_ShowChar
 2027              	.LVL236:
 537:E:/MCU_Project/stm32/Target_tracking/user/My_Peripheral/OLED\oled.c **** 								OLED_ShowChar(0,4,'*',16,0);
 2028              		.loc 1 537 9 view .LVU486
 2029 00e2 0095     		str	r5, [sp]
 2030 00e4 1023     		movs	r3, #16
 2031 00e6 2A22     		movs	r2, #42
 2032 00e8 0421     		movs	r1, #4
 2033 00ea 2846     		mov	r0, r5
 2034 00ec FFF7FEFF 		bl	OLED_ShowChar
 2035              	.LVL237:
 538:E:/MCU_Project/stm32/Target_tracking/user/My_Peripheral/OLED\oled.c **** 								break;
 2036              		.loc 1 538 9 view .LVU487
 2037 00f0 C0E7     		b	.L133
 2038              	.L143:
 512:E:/MCU_Project/stm32/Target_tracking/user/My_Peripheral/OLED\oled.c **** 						return(menu1_flag);			/* 根据返回值进行选择 */
 2039              		.loc 1 512 7 view .LVU488
 2040 00f2 FFF7FEFF 		bl	OLED_Clear
 2041              	.LVL238:
 513:E:/MCU_Project/stm32/Target_tracking/user/My_Peripheral/OLED\oled.c **** 				}
 2042              		.loc 1 513 7 view .LVU489
 539:E:/MCU_Project/stm32/Target_tracking/user/My_Peripheral/OLED\oled.c **** 						}					
 540:E:/MCU_Project/stm32/Target_tracking/user/My_Peripheral/OLED\oled.c **** 				}
 541:E:/MCU_Project/stm32/Target_tracking/user/My_Peripheral/OLED\oled.c **** 		}
 542:E:/MCU_Project/stm32/Target_tracking/user/My_Peripheral/OLED\oled.c **** }
 2043              		.loc 1 542 1 is_stmt 0 view .LVU490
 2044 00f6 2046     		mov	r0, r4
 2045 00f8 03B0     		add	sp, sp, #12
 2046              	.LCFI36:
 2047              		.cfi_def_cfa_offset 12
 2048              		@ sp needed
 2049 00fa 30BD     		pop	{r4, r5, pc}
 2050              	.LVL239:
 2051              	.L148:
 2052              		.loc 1 542 1 view .LVU491
 2053              		.align	2
 2054              	.L147:
 2055 00fc 00000000 		.word	.LC0
 2056 0100 0C000000 		.word	.LC1
 2057 0104 18000000 		.word	.LC2
 2058 0108 00000000 		.word	KeyNum
 2059              		.cfi_endproc
 2060              	.LFE155:
 2062              		.section	.rodata.LOCATE_MODE_Menu.str1.4,"aMS",%progbits,1
 2063              		.align	2
 2064              	.LC3:
 2065 0000 28253464 		.ascii	"(%4d,%4d)\000"
 2065      2C253464 
ARM GAS  C:\Users\86390\AppData\Local\Temp\cc0lOyie.s 			page 50


 2065      2900
 2066              		.section	.text.LOCATE_MODE_Menu,"ax",%progbits
 2067              		.align	1
 2068              		.global	LOCATE_MODE_Menu
 2069              		.syntax unified
 2070              		.thumb
 2071              		.thumb_func
 2073              	LOCATE_MODE_Menu:
 2074              	.LFB156:
 543:E:/MCU_Project/stm32/Target_tracking/user/My_Peripheral/OLED\oled.c **** 
 544:E:/MCU_Project/stm32/Target_tracking/user/My_Peripheral/OLED\oled.c **** /* 二级菜单部分 */
 545:E:/MCU_Project/stm32/Target_tracking/user/My_Peripheral/OLED\oled.c **** 
 546:E:/MCU_Project/stm32/Target_tracking/user/My_Peripheral/OLED\oled.c **** Show_pot point_1;
 547:E:/MCU_Project/stm32/Target_tracking/user/My_Peripheral/OLED\oled.c **** Show_pot point_2;
 548:E:/MCU_Project/stm32/Target_tracking/user/My_Peripheral/OLED\oled.c **** Show_pot point_3;
 549:E:/MCU_Project/stm32/Target_tracking/user/My_Peripheral/OLED\oled.c **** Show_pot point_4;
 550:E:/MCU_Project/stm32/Target_tracking/user/My_Peripheral/OLED\oled.c **** 
 551:E:/MCU_Project/stm32/Target_tracking/user/My_Peripheral/OLED\oled.c **** 
 552:E:/MCU_Project/stm32/Target_tracking/user/My_Peripheral/OLED\oled.c **** uint8_t GetOriginData_Flag;
 553:E:/MCU_Project/stm32/Target_tracking/user/My_Peripheral/OLED\oled.c **** 
 554:E:/MCU_Project/stm32/Target_tracking/user/My_Peripheral/OLED\oled.c **** /* 进入定位模式 */
 555:E:/MCU_Project/stm32/Target_tracking/user/My_Peripheral/OLED\oled.c **** 
 556:E:/MCU_Project/stm32/Target_tracking/user/My_Peripheral/OLED\oled.c **** void LOCATE_MODE_Menu(void)
 557:E:/MCU_Project/stm32/Target_tracking/user/My_Peripheral/OLED\oled.c **** {
 2075              		.loc 1 557 1 is_stmt 1 view -0
 2076              		.cfi_startproc
 2077              		@ args = 0, pretend = 0, frame = 0
 2078              		@ frame_needed = 0, uses_anonymous_args = 0
 2079 0000 2DE9F041 		push	{r4, r5, r6, r7, r8, lr}
 2080              	.LCFI37:
 2081              		.cfi_def_cfa_offset 24
 2082              		.cfi_offset 4, -24
 2083              		.cfi_offset 5, -20
 2084              		.cfi_offset 6, -16
 2085              		.cfi_offset 7, -12
 2086              		.cfi_offset 8, -8
 2087              		.cfi_offset 14, -4
 2088 0004 82B0     		sub	sp, sp, #8
 2089              	.LCFI38:
 2090              		.cfi_def_cfa_offset 32
 2091 0006 18E0     		b	.L150
 2092              	.L158:
 558:E:/MCU_Project/stm32/Target_tracking/user/My_Peripheral/OLED\oled.c **** 		while(1)
 559:E:/MCU_Project/stm32/Target_tracking/user/My_Peripheral/OLED\oled.c **** 		{
 560:E:/MCU_Project/stm32/Target_tracking/user/My_Peripheral/OLED\oled.c **** 				Penstring_Locate();		/* 取出四点对应XY角度 */			
 561:E:/MCU_Project/stm32/Target_tracking/user/My_Peripheral/OLED\oled.c **** 
 562:E:/MCU_Project/stm32/Target_tracking/user/My_Peripheral/OLED\oled.c **** 				/* 定点显示 */
 563:E:/MCU_Project/stm32/Target_tracking/user/My_Peripheral/OLED\oled.c **** 				memset(point_1.XY_Pos,'\0',9);
 564:E:/MCU_Project/stm32/Target_tracking/user/My_Peripheral/OLED\oled.c **** 				sprintf(point_1.XY_Pos,"(%4d,%4d)",Locate_angleX[0],Locate_angleY[0]);
 565:E:/MCU_Project/stm32/Target_tracking/user/My_Peripheral/OLED\oled.c **** 				OLED_ShowString(0,0,point_1.XY_Pos,16, 0);			
 566:E:/MCU_Project/stm32/Target_tracking/user/My_Peripheral/OLED\oled.c **** 
 567:E:/MCU_Project/stm32/Target_tracking/user/My_Peripheral/OLED\oled.c **** 				memset(point_2.XY_Pos,'\0',9);
 568:E:/MCU_Project/stm32/Target_tracking/user/My_Peripheral/OLED\oled.c **** 				sprintf(point_2.XY_Pos,"(%4d,%4d)",Locate_angleX[1],Locate_angleY[1]);
 569:E:/MCU_Project/stm32/Target_tracking/user/My_Peripheral/OLED\oled.c **** 				OLED_ShowString(0,2,point_2.XY_Pos,16, 0);
 570:E:/MCU_Project/stm32/Target_tracking/user/My_Peripheral/OLED\oled.c **** 
 571:E:/MCU_Project/stm32/Target_tracking/user/My_Peripheral/OLED\oled.c **** 				memset(point_3.XY_Pos,'\0',9);
 572:E:/MCU_Project/stm32/Target_tracking/user/My_Peripheral/OLED\oled.c **** 				sprintf(point_3.XY_Pos,"(%4d,%4d)",Locate_angleX[2],Locate_angleY[2]);
ARM GAS  C:\Users\86390\AppData\Local\Temp\cc0lOyie.s 			page 51


 573:E:/MCU_Project/stm32/Target_tracking/user/My_Peripheral/OLED\oled.c **** 				OLED_ShowString(0,4,point_3.XY_Pos,16, 0);
 574:E:/MCU_Project/stm32/Target_tracking/user/My_Peripheral/OLED\oled.c **** 
 575:E:/MCU_Project/stm32/Target_tracking/user/My_Peripheral/OLED\oled.c **** 				memset(point_4.XY_Pos,'\0',9);
 576:E:/MCU_Project/stm32/Target_tracking/user/My_Peripheral/OLED\oled.c **** 				sprintf(point_4.XY_Pos,"(%4d,%4d)",Locate_angleX[3],Locate_angleY[3]);
 577:E:/MCU_Project/stm32/Target_tracking/user/My_Peripheral/OLED\oled.c **** 				OLED_ShowString(0,6,point_4.XY_Pos,16, 0);			
 578:E:/MCU_Project/stm32/Target_tracking/user/My_Peripheral/OLED\oled.c **** 			
 579:E:/MCU_Project/stm32/Target_tracking/user/My_Peripheral/OLED\oled.c **** 			
 580:E:/MCU_Project/stm32/Target_tracking/user/My_Peripheral/OLED\oled.c **** 				Key_Scan(&KeyNum);			/* 获取键码值 */	
 581:E:/MCU_Project/stm32/Target_tracking/user/My_Peripheral/OLED\oled.c **** 			
 582:E:/MCU_Project/stm32/Target_tracking/user/My_Peripheral/OLED\oled.c **** 				if(KeyNum == 4)			/* 返回上级菜单按键 */
 583:E:/MCU_Project/stm32/Target_tracking/user/My_Peripheral/OLED\oled.c **** 				{
 584:E:/MCU_Project/stm32/Target_tracking/user/My_Peripheral/OLED\oled.c **** 						OLED_Clear();
 2093              		.loc 1 584 7 view .LVU493
 2094 0008 FFF7FEFF 		bl	OLED_Clear
 2095              	.LVL240:
 585:E:/MCU_Project/stm32/Target_tracking/user/My_Peripheral/OLED\oled.c **** 						break;					/* 回到主循环 */
 2096              		.loc 1 585 7 view .LVU494
 586:E:/MCU_Project/stm32/Target_tracking/user/My_Peripheral/OLED\oled.c **** 				}
 587:E:/MCU_Project/stm32/Target_tracking/user/My_Peripheral/OLED\oled.c **** 				
 588:E:/MCU_Project/stm32/Target_tracking/user/My_Peripheral/OLED\oled.c **** //				else if(KeyNum == 1)			/* 获取自定原始坐标坐标值 */
 589:E:/MCU_Project/stm32/Target_tracking/user/My_Peripheral/OLED\oled.c **** //				{
 590:E:/MCU_Project/stm32/Target_tracking/user/My_Peripheral/OLED\oled.c **** //						Servo_OriginAngle[0] = USL_GETPositionVal(servoUsart,sid_1);			/* 下舵机X轴 */
 591:E:/MCU_Project/stm32/Target_tracking/user/My_Peripheral/OLED\oled.c **** //						Servo_OriginAngle[1] = USL_GETPositionVal(servoUsart,sid_2);			/* 上舵机Y轴 */
 592:E:/MCU_Project/stm32/Target_tracking/user/My_Peripheral/OLED\oled.c **** //					
 593:E:/MCU_Project/stm32/Target_tracking/user/My_Peripheral/OLED\oled.c **** //						Data_StartGet=1;
 594:E:/MCU_Project/stm32/Target_tracking/user/My_Peripheral/OLED\oled.c **** //						GetOriginData_Flag=1;		/* 置原始数据获取标志位 */				
 595:E:/MCU_Project/stm32/Target_tracking/user/My_Peripheral/OLED\oled.c **** //				}
 596:E:/MCU_Project/stm32/Target_tracking/user/My_Peripheral/OLED\oled.c **** 				
 597:E:/MCU_Project/stm32/Target_tracking/user/My_Peripheral/OLED\oled.c **** 				else if(KeyNum == 9)		/* 下舵机+ */
 598:E:/MCU_Project/stm32/Target_tracking/user/My_Peripheral/OLED\oled.c **** 				{
 599:E:/MCU_Project/stm32/Target_tracking/user/My_Peripheral/OLED\oled.c **** 						uint16_t Now_Angle=USL_GETPositionVal(servoUsart,sid_1);		/* 下舵机旋转角度获取 */
 600:E:/MCU_Project/stm32/Target_tracking/user/My_Peripheral/OLED\oled.c **** 						Now_Angle=Now_Angle+17;
 601:E:/MCU_Project/stm32/Target_tracking/user/My_Peripheral/OLED\oled.c **** 						HAL_Delay(100);
 602:E:/MCU_Project/stm32/Target_tracking/user/My_Peripheral/OLED\oled.c **** 						USL_SetServoAngle(servoUsart,sid_1,Now_Angle,0);
 603:E:/MCU_Project/stm32/Target_tracking/user/My_Peripheral/OLED\oled.c **** 				}
 604:E:/MCU_Project/stm32/Target_tracking/user/My_Peripheral/OLED\oled.c **** 				else if(KeyNum == 10)		/* 下舵机- */
 605:E:/MCU_Project/stm32/Target_tracking/user/My_Peripheral/OLED\oled.c **** 				{
 606:E:/MCU_Project/stm32/Target_tracking/user/My_Peripheral/OLED\oled.c **** 						uint16_t Now_Angle=USL_GETPositionVal(servoUsart,sid_1);		/* 下舵机旋转角度获取 */
 607:E:/MCU_Project/stm32/Target_tracking/user/My_Peripheral/OLED\oled.c **** 						Now_Angle=Now_Angle-17;
 608:E:/MCU_Project/stm32/Target_tracking/user/My_Peripheral/OLED\oled.c **** 						HAL_Delay(100);
 609:E:/MCU_Project/stm32/Target_tracking/user/My_Peripheral/OLED\oled.c **** 						USL_SetServoAngle(servoUsart,sid_1,Now_Angle,0);
 610:E:/MCU_Project/stm32/Target_tracking/user/My_Peripheral/OLED\oled.c **** 				}
 611:E:/MCU_Project/stm32/Target_tracking/user/My_Peripheral/OLED\oled.c **** 				else if(KeyNum == 11)		/* 上舵机+ */
 612:E:/MCU_Project/stm32/Target_tracking/user/My_Peripheral/OLED\oled.c **** 				{
 613:E:/MCU_Project/stm32/Target_tracking/user/My_Peripheral/OLED\oled.c **** 						uint16_t Now_Angle=USL_GETPositionVal(servoUsart,sid_2);		/* 上舵机旋转角度获取 */
 614:E:/MCU_Project/stm32/Target_tracking/user/My_Peripheral/OLED\oled.c **** 						Now_Angle=Now_Angle+17;
 615:E:/MCU_Project/stm32/Target_tracking/user/My_Peripheral/OLED\oled.c **** 						HAL_Delay(100);
 616:E:/MCU_Project/stm32/Target_tracking/user/My_Peripheral/OLED\oled.c **** 						USL_SetServoAngle(servoUsart,sid_2,Now_Angle,0);
 617:E:/MCU_Project/stm32/Target_tracking/user/My_Peripheral/OLED\oled.c **** 				}
 618:E:/MCU_Project/stm32/Target_tracking/user/My_Peripheral/OLED\oled.c **** 				else if(KeyNum == 12)		/* 上舵机- */
 619:E:/MCU_Project/stm32/Target_tracking/user/My_Peripheral/OLED\oled.c **** 				{
 620:E:/MCU_Project/stm32/Target_tracking/user/My_Peripheral/OLED\oled.c **** 						uint16_t Now_Angle=USL_GETPositionVal(servoUsart,sid_2);		/* 上舵机旋转角度获取 */
 621:E:/MCU_Project/stm32/Target_tracking/user/My_Peripheral/OLED\oled.c **** 						Now_Angle=Now_Angle-17;
 622:E:/MCU_Project/stm32/Target_tracking/user/My_Peripheral/OLED\oled.c **** 						HAL_Delay(100);
 623:E:/MCU_Project/stm32/Target_tracking/user/My_Peripheral/OLED\oled.c **** 						USL_SetServoAngle(servoUsart,sid_2,Now_Angle,0);
 624:E:/MCU_Project/stm32/Target_tracking/user/My_Peripheral/OLED\oled.c **** 				}
 625:E:/MCU_Project/stm32/Target_tracking/user/My_Peripheral/OLED\oled.c **** 
ARM GAS  C:\Users\86390\AppData\Local\Temp\cc0lOyie.s 			page 52


 626:E:/MCU_Project/stm32/Target_tracking/user/My_Peripheral/OLED\oled.c **** //				if(Data_StartGet)
 627:E:/MCU_Project/stm32/Target_tracking/user/My_Peripheral/OLED\oled.c **** //				{
 628:E:/MCU_Project/stm32/Target_tracking/user/My_Peripheral/OLED\oled.c **** //						Servo_SetZeroAngle(&Servo_OriginXY[0],&Servo_OriginXY[1]);
 629:E:/MCU_Project/stm32/Target_tracking/user/My_Peripheral/OLED\oled.c **** //				}				
 630:E:/MCU_Project/stm32/Target_tracking/user/My_Peripheral/OLED\oled.c **** 				
 631:E:/MCU_Project/stm32/Target_tracking/user/My_Peripheral/OLED\oled.c **** 		}
 632:E:/MCU_Project/stm32/Target_tracking/user/My_Peripheral/OLED\oled.c **** 		
 633:E:/MCU_Project/stm32/Target_tracking/user/My_Peripheral/OLED\oled.c **** }
 2097              		.loc 1 633 1 is_stmt 0 view .LVU495
 2098 000c 02B0     		add	sp, sp, #8
 2099              	.LCFI39:
 2100              		.cfi_remember_state
 2101              		.cfi_def_cfa_offset 24
 2102              		@ sp needed
 2103 000e BDE8F081 		pop	{r4, r5, r6, r7, r8, pc}
 2104              	.L159:
 2105              	.LCFI40:
 2106              		.cfi_restore_state
 2107              	.LBB2:
 599:E:/MCU_Project/stm32/Target_tracking/user/My_Peripheral/OLED\oled.c **** 						Now_Angle=Now_Angle+17;
 2108              		.loc 1 599 7 is_stmt 1 view .LVU496
 599:E:/MCU_Project/stm32/Target_tracking/user/My_Peripheral/OLED\oled.c **** 						Now_Angle=Now_Angle+17;
 2109              		.loc 1 599 26 is_stmt 0 view .LVU497
 2110 0012 584E     		ldr	r6, .L162
 2111 0014 584D     		ldr	r5, .L162+4
 2112 0016 3178     		ldrb	r1, [r6]	@ zero_extendqisi2
 2113 0018 2868     		ldr	r0, [r5]
 2114 001a FFF7FEFF 		bl	USL_GETPositionVal
 2115              	.LVL241:
 600:E:/MCU_Project/stm32/Target_tracking/user/My_Peripheral/OLED\oled.c **** 						HAL_Delay(100);
 2116              		.loc 1 600 7 is_stmt 1 view .LVU498
 600:E:/MCU_Project/stm32/Target_tracking/user/My_Peripheral/OLED\oled.c **** 						HAL_Delay(100);
 2117              		.loc 1 600 16 is_stmt 0 view .LVU499
 2118 001e 1130     		adds	r0, r0, #17
 2119              	.LVL242:
 600:E:/MCU_Project/stm32/Target_tracking/user/My_Peripheral/OLED\oled.c **** 						HAL_Delay(100);
 2120              		.loc 1 600 16 view .LVU500
 2121 0020 84B2     		uxth	r4, r0
 2122              	.LVL243:
 601:E:/MCU_Project/stm32/Target_tracking/user/My_Peripheral/OLED\oled.c **** 						USL_SetServoAngle(servoUsart,sid_1,Now_Angle,0);
 2123              		.loc 1 601 7 is_stmt 1 view .LVU501
 2124 0022 6420     		movs	r0, #100
 2125 0024 FFF7FEFF 		bl	HAL_Delay
 2126              	.LVL244:
 602:E:/MCU_Project/stm32/Target_tracking/user/My_Peripheral/OLED\oled.c **** 				}
 2127              		.loc 1 602 7 view .LVU502
 2128 0028 0022     		movs	r2, #0
 2129 002a 07EE904A 		vmov	s15, r4	@ int
 2130 002e B8EE670A 		vcvt.f32.u32	s0, s15
 2131 0032 3178     		ldrb	r1, [r6]	@ zero_extendqisi2
 2132 0034 2868     		ldr	r0, [r5]
 2133 0036 FFF7FEFF 		bl	USL_SetServoAngle
 2134              	.LVL245:
 2135              	.L150:
 602:E:/MCU_Project/stm32/Target_tracking/user/My_Peripheral/OLED\oled.c **** 				}
 2136              		.loc 1 602 7 is_stmt 0 view .LVU503
 2137              	.LBE2:
ARM GAS  C:\Users\86390\AppData\Local\Temp\cc0lOyie.s 			page 53


 558:E:/MCU_Project/stm32/Target_tracking/user/My_Peripheral/OLED\oled.c **** 		{
 2138              		.loc 1 558 3 is_stmt 1 view .LVU504
 560:E:/MCU_Project/stm32/Target_tracking/user/My_Peripheral/OLED\oled.c **** 
 2139              		.loc 1 560 5 view .LVU505
 2140 003a FFF7FEFF 		bl	Penstring_Locate
 2141              	.LVL246:
 563:E:/MCU_Project/stm32/Target_tracking/user/My_Peripheral/OLED\oled.c **** 				sprintf(point_1.XY_Pos,"(%4d,%4d)",Locate_angleX[0],Locate_angleY[0]);
 2142              		.loc 1 563 5 view .LVU506
 2143 003e 4F4D     		ldr	r5, .L162+8
 2144 0040 0024     		movs	r4, #0
 2145 0042 2C60     		str	r4, [r5]
 2146 0044 6C60     		str	r4, [r5, #4]
 2147 0046 2C72     		strb	r4, [r5, #8]
 564:E:/MCU_Project/stm32/Target_tracking/user/My_Peripheral/OLED\oled.c **** 				OLED_ShowString(0,0,point_1.XY_Pos,16, 0);			
 2148              		.loc 1 564 5 view .LVU507
 564:E:/MCU_Project/stm32/Target_tracking/user/My_Peripheral/OLED\oled.c **** 				OLED_ShowString(0,0,point_1.XY_Pos,16, 0);			
 2149              		.loc 1 564 53 is_stmt 0 view .LVU508
 2150 0048 4D4F     		ldr	r7, .L162+12
 564:E:/MCU_Project/stm32/Target_tracking/user/My_Peripheral/OLED\oled.c **** 				OLED_ShowString(0,0,point_1.XY_Pos,16, 0);			
 2151              		.loc 1 564 70 view .LVU509
 2152 004a DFF85081 		ldr	r8, .L162+40
 564:E:/MCU_Project/stm32/Target_tracking/user/My_Peripheral/OLED\oled.c **** 				OLED_ShowString(0,0,point_1.XY_Pos,16, 0);			
 2153              		.loc 1 564 5 view .LVU510
 2154 004e 4D4E     		ldr	r6, .L162+16
 2155 0050 B8F80030 		ldrh	r3, [r8]
 2156 0054 3A88     		ldrh	r2, [r7]
 2157 0056 3146     		mov	r1, r6
 2158 0058 2846     		mov	r0, r5
 2159 005a FFF7FEFF 		bl	sprintf
 2160              	.LVL247:
 565:E:/MCU_Project/stm32/Target_tracking/user/My_Peripheral/OLED\oled.c **** 
 2161              		.loc 1 565 5 is_stmt 1 view .LVU511
 2162 005e 0094     		str	r4, [sp]
 2163 0060 1023     		movs	r3, #16
 2164 0062 2A46     		mov	r2, r5
 2165 0064 2146     		mov	r1, r4
 2166 0066 2046     		mov	r0, r4
 2167 0068 FFF7FEFF 		bl	OLED_ShowString
 2168              	.LVL248:
 567:E:/MCU_Project/stm32/Target_tracking/user/My_Peripheral/OLED\oled.c **** 				sprintf(point_2.XY_Pos,"(%4d,%4d)",Locate_angleX[1],Locate_angleY[1]);
 2169              		.loc 1 567 5 view .LVU512
 2170 006c 464D     		ldr	r5, .L162+20
 2171 006e 2C60     		str	r4, [r5]
 2172 0070 6C60     		str	r4, [r5, #4]
 2173 0072 2C72     		strb	r4, [r5, #8]
 568:E:/MCU_Project/stm32/Target_tracking/user/My_Peripheral/OLED\oled.c **** 				OLED_ShowString(0,2,point_2.XY_Pos,16, 0);
 2174              		.loc 1 568 5 view .LVU513
 2175 0074 B8F80230 		ldrh	r3, [r8, #2]
 2176 0078 7A88     		ldrh	r2, [r7, #2]
 2177 007a 3146     		mov	r1, r6
 2178 007c 2846     		mov	r0, r5
 2179 007e FFF7FEFF 		bl	sprintf
 2180              	.LVL249:
 569:E:/MCU_Project/stm32/Target_tracking/user/My_Peripheral/OLED\oled.c **** 
 2181              		.loc 1 569 5 view .LVU514
 2182 0082 0094     		str	r4, [sp]
 2183 0084 1023     		movs	r3, #16
ARM GAS  C:\Users\86390\AppData\Local\Temp\cc0lOyie.s 			page 54


 2184 0086 2A46     		mov	r2, r5
 2185 0088 0221     		movs	r1, #2
 2186 008a 2046     		mov	r0, r4
 2187 008c FFF7FEFF 		bl	OLED_ShowString
 2188              	.LVL250:
 571:E:/MCU_Project/stm32/Target_tracking/user/My_Peripheral/OLED\oled.c **** 				sprintf(point_3.XY_Pos,"(%4d,%4d)",Locate_angleX[2],Locate_angleY[2]);
 2189              		.loc 1 571 5 view .LVU515
 2190 0090 3E4D     		ldr	r5, .L162+24
 2191 0092 2C60     		str	r4, [r5]
 2192 0094 6C60     		str	r4, [r5, #4]
 2193 0096 2C72     		strb	r4, [r5, #8]
 572:E:/MCU_Project/stm32/Target_tracking/user/My_Peripheral/OLED\oled.c **** 				OLED_ShowString(0,4,point_3.XY_Pos,16, 0);
 2194              		.loc 1 572 5 view .LVU516
 2195 0098 B8F80430 		ldrh	r3, [r8, #4]
 2196 009c BA88     		ldrh	r2, [r7, #4]
 2197 009e 3146     		mov	r1, r6
 2198 00a0 2846     		mov	r0, r5
 2199 00a2 FFF7FEFF 		bl	sprintf
 2200              	.LVL251:
 573:E:/MCU_Project/stm32/Target_tracking/user/My_Peripheral/OLED\oled.c **** 
 2201              		.loc 1 573 5 view .LVU517
 2202 00a6 0094     		str	r4, [sp]
 2203 00a8 1023     		movs	r3, #16
 2204 00aa 2A46     		mov	r2, r5
 2205 00ac 0421     		movs	r1, #4
 2206 00ae 2046     		mov	r0, r4
 2207 00b0 FFF7FEFF 		bl	OLED_ShowString
 2208              	.LVL252:
 575:E:/MCU_Project/stm32/Target_tracking/user/My_Peripheral/OLED\oled.c **** 				sprintf(point_4.XY_Pos,"(%4d,%4d)",Locate_angleX[3],Locate_angleY[3]);
 2209              		.loc 1 575 5 view .LVU518
 2210 00b4 364D     		ldr	r5, .L162+28
 2211 00b6 2C60     		str	r4, [r5]
 2212 00b8 6C60     		str	r4, [r5, #4]
 2213 00ba 2C72     		strb	r4, [r5, #8]
 576:E:/MCU_Project/stm32/Target_tracking/user/My_Peripheral/OLED\oled.c **** 				OLED_ShowString(0,6,point_4.XY_Pos,16, 0);			
 2214              		.loc 1 576 5 view .LVU519
 2215 00bc B8F80630 		ldrh	r3, [r8, #6]
 2216 00c0 FA88     		ldrh	r2, [r7, #6]
 2217 00c2 3146     		mov	r1, r6
 2218 00c4 2846     		mov	r0, r5
 2219 00c6 FFF7FEFF 		bl	sprintf
 2220              	.LVL253:
 577:E:/MCU_Project/stm32/Target_tracking/user/My_Peripheral/OLED\oled.c **** 			
 2221              		.loc 1 577 5 view .LVU520
 2222 00ca 0094     		str	r4, [sp]
 2223 00cc 1023     		movs	r3, #16
 2224 00ce 2A46     		mov	r2, r5
 2225 00d0 0621     		movs	r1, #6
 2226 00d2 2046     		mov	r0, r4
 2227 00d4 FFF7FEFF 		bl	OLED_ShowString
 2228              	.LVL254:
 580:E:/MCU_Project/stm32/Target_tracking/user/My_Peripheral/OLED\oled.c **** 			
 2229              		.loc 1 580 5 view .LVU521
 2230 00d8 2E4C     		ldr	r4, .L162+32
 2231 00da 2046     		mov	r0, r4
 2232 00dc FFF7FEFF 		bl	Key_Scan
 2233              	.LVL255:
ARM GAS  C:\Users\86390\AppData\Local\Temp\cc0lOyie.s 			page 55


 582:E:/MCU_Project/stm32/Target_tracking/user/My_Peripheral/OLED\oled.c **** 				{
 2234              		.loc 1 582 5 view .LVU522
 582:E:/MCU_Project/stm32/Target_tracking/user/My_Peripheral/OLED\oled.c **** 				{
 2235              		.loc 1 582 15 is_stmt 0 view .LVU523
 2236 00e0 2378     		ldrb	r3, [r4]	@ zero_extendqisi2
 582:E:/MCU_Project/stm32/Target_tracking/user/My_Peripheral/OLED\oled.c **** 				{
 2237              		.loc 1 582 7 view .LVU524
 2238 00e2 042B     		cmp	r3, #4
 2239 00e4 90D0     		beq	.L158
 597:E:/MCU_Project/stm32/Target_tracking/user/My_Peripheral/OLED\oled.c **** 				{
 2240              		.loc 1 597 10 is_stmt 1 view .LVU525
 597:E:/MCU_Project/stm32/Target_tracking/user/My_Peripheral/OLED\oled.c **** 				{
 2241              		.loc 1 597 12 is_stmt 0 view .LVU526
 2242 00e6 092B     		cmp	r3, #9
 2243 00e8 93D0     		beq	.L159
 604:E:/MCU_Project/stm32/Target_tracking/user/My_Peripheral/OLED\oled.c **** 				{
 2244              		.loc 1 604 10 is_stmt 1 view .LVU527
 604:E:/MCU_Project/stm32/Target_tracking/user/My_Peripheral/OLED\oled.c **** 				{
 2245              		.loc 1 604 12 is_stmt 0 view .LVU528
 2246 00ea 0A2B     		cmp	r3, #10
 2247 00ec 18D0     		beq	.L160
 611:E:/MCU_Project/stm32/Target_tracking/user/My_Peripheral/OLED\oled.c **** 				{
 2248              		.loc 1 611 10 is_stmt 1 view .LVU529
 611:E:/MCU_Project/stm32/Target_tracking/user/My_Peripheral/OLED\oled.c **** 				{
 2249              		.loc 1 611 12 is_stmt 0 view .LVU530
 2250 00ee 0B2B     		cmp	r3, #11
 2251 00f0 2BD0     		beq	.L161
 618:E:/MCU_Project/stm32/Target_tracking/user/My_Peripheral/OLED\oled.c **** 				{
 2252              		.loc 1 618 10 is_stmt 1 view .LVU531
 618:E:/MCU_Project/stm32/Target_tracking/user/My_Peripheral/OLED\oled.c **** 				{
 2253              		.loc 1 618 12 is_stmt 0 view .LVU532
 2254 00f2 0C2B     		cmp	r3, #12
 2255 00f4 A1D1     		bne	.L150
 2256              	.LBB3:
 620:E:/MCU_Project/stm32/Target_tracking/user/My_Peripheral/OLED\oled.c **** 						Now_Angle=Now_Angle-17;
 2257              		.loc 1 620 7 is_stmt 1 view .LVU533
 620:E:/MCU_Project/stm32/Target_tracking/user/My_Peripheral/OLED\oled.c **** 						Now_Angle=Now_Angle-17;
 2258              		.loc 1 620 26 is_stmt 0 view .LVU534
 2259 00f6 284E     		ldr	r6, .L162+36
 2260 00f8 1F4D     		ldr	r5, .L162+4
 2261 00fa 3178     		ldrb	r1, [r6]	@ zero_extendqisi2
 2262 00fc 2868     		ldr	r0, [r5]
 2263 00fe FFF7FEFF 		bl	USL_GETPositionVal
 2264              	.LVL256:
 621:E:/MCU_Project/stm32/Target_tracking/user/My_Peripheral/OLED\oled.c **** 						HAL_Delay(100);
 2265              		.loc 1 621 7 is_stmt 1 view .LVU535
 621:E:/MCU_Project/stm32/Target_tracking/user/My_Peripheral/OLED\oled.c **** 						HAL_Delay(100);
 2266              		.loc 1 621 16 is_stmt 0 view .LVU536
 2267 0102 1138     		subs	r0, r0, #17
 2268              	.LVL257:
 621:E:/MCU_Project/stm32/Target_tracking/user/My_Peripheral/OLED\oled.c **** 						HAL_Delay(100);
 2269              		.loc 1 621 16 view .LVU537
 2270 0104 84B2     		uxth	r4, r0
 2271              	.LVL258:
 622:E:/MCU_Project/stm32/Target_tracking/user/My_Peripheral/OLED\oled.c **** 						USL_SetServoAngle(servoUsart,sid_2,Now_Angle,0);
 2272              		.loc 1 622 7 is_stmt 1 view .LVU538
 2273 0106 6420     		movs	r0, #100
ARM GAS  C:\Users\86390\AppData\Local\Temp\cc0lOyie.s 			page 56


 2274 0108 FFF7FEFF 		bl	HAL_Delay
 2275              	.LVL259:
 623:E:/MCU_Project/stm32/Target_tracking/user/My_Peripheral/OLED\oled.c **** 				}
 2276              		.loc 1 623 7 view .LVU539
 2277 010c 0022     		movs	r2, #0
 2278 010e 07EE904A 		vmov	s15, r4	@ int
 2279 0112 B8EE670A 		vcvt.f32.u32	s0, s15
 2280 0116 3178     		ldrb	r1, [r6]	@ zero_extendqisi2
 2281 0118 2868     		ldr	r0, [r5]
 2282 011a FFF7FEFF 		bl	USL_SetServoAngle
 2283              	.LVL260:
 2284 011e 8CE7     		b	.L150
 2285              	.LVL261:
 2286              	.L160:
 623:E:/MCU_Project/stm32/Target_tracking/user/My_Peripheral/OLED\oled.c **** 				}
 2287              		.loc 1 623 7 is_stmt 0 view .LVU540
 2288              	.LBE3:
 2289              	.LBB4:
 606:E:/MCU_Project/stm32/Target_tracking/user/My_Peripheral/OLED\oled.c **** 						Now_Angle=Now_Angle-17;
 2290              		.loc 1 606 7 is_stmt 1 view .LVU541
 606:E:/MCU_Project/stm32/Target_tracking/user/My_Peripheral/OLED\oled.c **** 						Now_Angle=Now_Angle-17;
 2291              		.loc 1 606 26 is_stmt 0 view .LVU542
 2292 0120 144E     		ldr	r6, .L162
 2293 0122 154D     		ldr	r5, .L162+4
 2294 0124 3178     		ldrb	r1, [r6]	@ zero_extendqisi2
 2295 0126 2868     		ldr	r0, [r5]
 2296 0128 FFF7FEFF 		bl	USL_GETPositionVal
 2297              	.LVL262:
 607:E:/MCU_Project/stm32/Target_tracking/user/My_Peripheral/OLED\oled.c **** 						HAL_Delay(100);
 2298              		.loc 1 607 7 is_stmt 1 view .LVU543
 607:E:/MCU_Project/stm32/Target_tracking/user/My_Peripheral/OLED\oled.c **** 						HAL_Delay(100);
 2299              		.loc 1 607 16 is_stmt 0 view .LVU544
 2300 012c 1138     		subs	r0, r0, #17
 2301              	.LVL263:
 607:E:/MCU_Project/stm32/Target_tracking/user/My_Peripheral/OLED\oled.c **** 						HAL_Delay(100);
 2302              		.loc 1 607 16 view .LVU545
 2303 012e 84B2     		uxth	r4, r0
 2304              	.LVL264:
 608:E:/MCU_Project/stm32/Target_tracking/user/My_Peripheral/OLED\oled.c **** 						USL_SetServoAngle(servoUsart,sid_1,Now_Angle,0);
 2305              		.loc 1 608 7 is_stmt 1 view .LVU546
 2306 0130 6420     		movs	r0, #100
 2307 0132 FFF7FEFF 		bl	HAL_Delay
 2308              	.LVL265:
 609:E:/MCU_Project/stm32/Target_tracking/user/My_Peripheral/OLED\oled.c **** 				}
 2309              		.loc 1 609 7 view .LVU547
 2310 0136 0022     		movs	r2, #0
 2311 0138 07EE904A 		vmov	s15, r4	@ int
 2312 013c B8EE670A 		vcvt.f32.u32	s0, s15
 2313 0140 3178     		ldrb	r1, [r6]	@ zero_extendqisi2
 2314 0142 2868     		ldr	r0, [r5]
 2315 0144 FFF7FEFF 		bl	USL_SetServoAngle
 2316              	.LVL266:
 2317              	.LBE4:
 2318 0148 77E7     		b	.L150
 2319              	.LVL267:
 2320              	.L161:
 2321              	.LBB5:
ARM GAS  C:\Users\86390\AppData\Local\Temp\cc0lOyie.s 			page 57


 613:E:/MCU_Project/stm32/Target_tracking/user/My_Peripheral/OLED\oled.c **** 						Now_Angle=Now_Angle+17;
 2322              		.loc 1 613 7 view .LVU548
 613:E:/MCU_Project/stm32/Target_tracking/user/My_Peripheral/OLED\oled.c **** 						Now_Angle=Now_Angle+17;
 2323              		.loc 1 613 26 is_stmt 0 view .LVU549
 2324 014a 134E     		ldr	r6, .L162+36
 2325 014c 0A4D     		ldr	r5, .L162+4
 2326 014e 3178     		ldrb	r1, [r6]	@ zero_extendqisi2
 2327 0150 2868     		ldr	r0, [r5]
 2328 0152 FFF7FEFF 		bl	USL_GETPositionVal
 2329              	.LVL268:
 614:E:/MCU_Project/stm32/Target_tracking/user/My_Peripheral/OLED\oled.c **** 						HAL_Delay(100);
 2330              		.loc 1 614 7 is_stmt 1 view .LVU550
 614:E:/MCU_Project/stm32/Target_tracking/user/My_Peripheral/OLED\oled.c **** 						HAL_Delay(100);
 2331              		.loc 1 614 16 is_stmt 0 view .LVU551
 2332 0156 1130     		adds	r0, r0, #17
 2333              	.LVL269:
 614:E:/MCU_Project/stm32/Target_tracking/user/My_Peripheral/OLED\oled.c **** 						HAL_Delay(100);
 2334              		.loc 1 614 16 view .LVU552
 2335 0158 84B2     		uxth	r4, r0
 2336              	.LVL270:
 615:E:/MCU_Project/stm32/Target_tracking/user/My_Peripheral/OLED\oled.c **** 						USL_SetServoAngle(servoUsart,sid_2,Now_Angle,0);
 2337              		.loc 1 615 7 is_stmt 1 view .LVU553
 2338 015a 6420     		movs	r0, #100
 2339 015c FFF7FEFF 		bl	HAL_Delay
 2340              	.LVL271:
 616:E:/MCU_Project/stm32/Target_tracking/user/My_Peripheral/OLED\oled.c **** 				}
 2341              		.loc 1 616 7 view .LVU554
 2342 0160 0022     		movs	r2, #0
 2343 0162 07EE904A 		vmov	s15, r4	@ int
 2344 0166 B8EE670A 		vcvt.f32.u32	s0, s15
 2345 016a 3178     		ldrb	r1, [r6]	@ zero_extendqisi2
 2346 016c 2868     		ldr	r0, [r5]
 2347 016e FFF7FEFF 		bl	USL_SetServoAngle
 2348              	.LVL272:
 2349              	.LBE5:
 2350 0172 62E7     		b	.L150
 2351              	.L163:
 2352              		.align	2
 2353              	.L162:
 2354 0174 00000000 		.word	sid_1
 2355 0178 00000000 		.word	servoUsart
 2356 017c 00000000 		.word	.LANCHOR1
 2357 0180 00000000 		.word	Locate_angleX
 2358 0184 00000000 		.word	.LC3
 2359 0188 00000000 		.word	.LANCHOR2
 2360 018c 00000000 		.word	.LANCHOR3
 2361 0190 00000000 		.word	.LANCHOR4
 2362 0194 00000000 		.word	KeyNum
 2363 0198 00000000 		.word	sid_2
 2364 019c 00000000 		.word	Locate_angleY
 2365              		.cfi_endproc
 2366              	.LFE156:
 2368              		.global	__aeabi_i2d
 2369              		.global	__aeabi_dmul
 2370              		.global	__aeabi_d2uiz
 2371              		.section	.text.LASER_RESET,"ax",%progbits
 2372              		.align	1
ARM GAS  C:\Users\86390\AppData\Local\Temp\cc0lOyie.s 			page 58


 2373              		.global	LASER_RESET
 2374              		.syntax unified
 2375              		.thumb
 2376              		.thumb_func
 2378              	LASER_RESET:
 2379              	.LFB157:
 634:E:/MCU_Project/stm32/Target_tracking/user/My_Peripheral/OLED\oled.c **** 
 635:E:/MCU_Project/stm32/Target_tracking/user/My_Peripheral/OLED\oled.c **** uint16_t My_ResetXY[2];
 636:E:/MCU_Project/stm32/Target_tracking/user/My_Peripheral/OLED\oled.c **** 
 637:E:/MCU_Project/stm32/Target_tracking/user/My_Peripheral/OLED\oled.c **** 
 638:E:/MCU_Project/stm32/Target_tracking/user/My_Peripheral/OLED\oled.c **** void LASER_RESET(void)
 639:E:/MCU_Project/stm32/Target_tracking/user/My_Peripheral/OLED\oled.c **** {
 2380              		.loc 1 639 1 view -0
 2381              		.cfi_startproc
 2382              		@ args = 0, pretend = 0, frame = 0
 2383              		@ frame_needed = 0, uses_anonymous_args = 0
 2384 0000 70B5     		push	{r4, r5, r6, lr}
 2385              	.LCFI41:
 2386              		.cfi_def_cfa_offset 16
 2387              		.cfi_offset 4, -16
 2388              		.cfi_offset 5, -12
 2389              		.cfi_offset 6, -8
 2390              		.cfi_offset 14, -4
 640:E:/MCU_Project/stm32/Target_tracking/user/My_Peripheral/OLED\oled.c **** 		My_ResetXY[0] = 0.5*(Locate_angleX[0]+Locate_angleX[3]);
 2391              		.loc 1 640 3 view .LVU556
 2392              		.loc 1 640 37 is_stmt 0 view .LVU557
 2393 0002 194B     		ldr	r3, .L166
 2394 0004 1888     		ldrh	r0, [r3]
 2395              		.loc 1 640 54 view .LVU558
 2396 0006 DB88     		ldrh	r3, [r3, #6]
 2397              		.loc 1 640 22 view .LVU559
 2398 0008 1844     		add	r0, r0, r3
 2399 000a FFF7FEFF 		bl	__aeabi_i2d
 2400              	.LVL273:
 2401 000e 0022     		movs	r2, #0
 2402 0010 164B     		ldr	r3, .L166+4
 2403 0012 FFF7FEFF 		bl	__aeabi_dmul
 2404              	.LVL274:
 2405              		.loc 1 640 17 view .LVU560
 2406 0016 FFF7FEFF 		bl	__aeabi_d2uiz
 2407              	.LVL275:
 2408 001a 84B2     		uxth	r4, r0
 2409 001c 144D     		ldr	r5, .L166+8
 2410 001e 2C80     		strh	r4, [r5]	@ movhi
 641:E:/MCU_Project/stm32/Target_tracking/user/My_Peripheral/OLED\oled.c **** 		My_ResetXY[1] = 0.5*(Locate_angleY[0]+Locate_angleY[1]);
 2411              		.loc 1 641 3 is_stmt 1 view .LVU561
 2412              		.loc 1 641 37 is_stmt 0 view .LVU562
 2413 0020 144B     		ldr	r3, .L166+12
 2414 0022 1888     		ldrh	r0, [r3]
 2415              		.loc 1 641 54 view .LVU563
 2416 0024 5B88     		ldrh	r3, [r3, #2]
 2417              		.loc 1 641 22 view .LVU564
 2418 0026 1844     		add	r0, r0, r3
 2419 0028 FFF7FEFF 		bl	__aeabi_i2d
 2420              	.LVL276:
 2421 002c 0022     		movs	r2, #0
 2422 002e 0F4B     		ldr	r3, .L166+4
ARM GAS  C:\Users\86390\AppData\Local\Temp\cc0lOyie.s 			page 59


 2423 0030 FFF7FEFF 		bl	__aeabi_dmul
 2424              	.LVL277:
 2425              		.loc 1 641 17 view .LVU565
 2426 0034 FFF7FEFF 		bl	__aeabi_d2uiz
 2427              	.LVL278:
 2428 0038 6880     		strh	r0, [r5, #2]	@ movhi
 642:E:/MCU_Project/stm32/Target_tracking/user/My_Peripheral/OLED\oled.c **** 	
 643:E:/MCU_Project/stm32/Target_tracking/user/My_Peripheral/OLED\oled.c **** 		USL_SetServoAngle(servoUsart,sid_1,My_ResetXY[0],0);
 2429              		.loc 1 643 3 is_stmt 1 view .LVU566
 2430 003a 0F4E     		ldr	r6, .L166+16
 2431 003c 0022     		movs	r2, #0
 2432 003e 07EE904A 		vmov	s15, r4	@ int
 2433 0042 B8EE670A 		vcvt.f32.u32	s0, s15
 2434 0046 0D4B     		ldr	r3, .L166+20
 2435 0048 1978     		ldrb	r1, [r3]	@ zero_extendqisi2
 2436 004a 3068     		ldr	r0, [r6]
 2437 004c FFF7FEFF 		bl	USL_SetServoAngle
 2438              	.LVL279:
 644:E:/MCU_Project/stm32/Target_tracking/user/My_Peripheral/OLED\oled.c **** 		USL_SetServoAngle(servoUsart,sid_2,My_ResetXY[1],0);		
 2439              		.loc 1 644 3 view .LVU567
 2440              		.loc 1 644 48 is_stmt 0 view .LVU568
 2441 0050 6B88     		ldrh	r3, [r5, #2]
 2442 0052 00EE103A 		vmov	s0, r3	@ int
 2443              		.loc 1 644 3 view .LVU569
 2444 0056 0022     		movs	r2, #0
 2445 0058 B8EE400A 		vcvt.f32.u32	s0, s0
 2446 005c 084B     		ldr	r3, .L166+24
 2447 005e 1978     		ldrb	r1, [r3]	@ zero_extendqisi2
 2448 0060 3068     		ldr	r0, [r6]
 2449 0062 FFF7FEFF 		bl	USL_SetServoAngle
 2450              	.LVL280:
 645:E:/MCU_Project/stm32/Target_tracking/user/My_Peripheral/OLED\oled.c **** }
 2451              		.loc 1 645 1 view .LVU570
 2452 0066 70BD     		pop	{r4, r5, r6, pc}
 2453              	.L167:
 2454              		.align	2
 2455              	.L166:
 2456 0068 00000000 		.word	Locate_angleX
 2457 006c 0000E03F 		.word	1071644672
 2458 0070 00000000 		.word	.LANCHOR5
 2459 0074 00000000 		.word	Locate_angleY
 2460 0078 00000000 		.word	servoUsart
 2461 007c 00000000 		.word	sid_1
 2462 0080 00000000 		.word	sid_2
 2463              		.cfi_endproc
 2464              	.LFE157:
 2466              		.section	.text.LASER_RESET_Start,"ax",%progbits
 2467              		.align	1
 2468              		.global	LASER_RESET_Start
 2469              		.syntax unified
 2470              		.thumb
 2471              		.thumb_func
 2473              	LASER_RESET_Start:
 2474              	.LFB158:
 646:E:/MCU_Project/stm32/Target_tracking/user/My_Peripheral/OLED\oled.c **** 
 647:E:/MCU_Project/stm32/Target_tracking/user/My_Peripheral/OLED\oled.c **** void LASER_RESET_Start(void)
 648:E:/MCU_Project/stm32/Target_tracking/user/My_Peripheral/OLED\oled.c **** {
ARM GAS  C:\Users\86390\AppData\Local\Temp\cc0lOyie.s 			page 60


 2475              		.loc 1 648 1 is_stmt 1 view -0
 2476              		.cfi_startproc
 2477              		@ args = 0, pretend = 0, frame = 0
 2478              		@ frame_needed = 0, uses_anonymous_args = 0
 2479 0000 10B5     		push	{r4, lr}
 2480              	.LCFI42:
 2481              		.cfi_def_cfa_offset 8
 2482              		.cfi_offset 4, -8
 2483              		.cfi_offset 14, -4
 649:E:/MCU_Project/stm32/Target_tracking/user/My_Peripheral/OLED\oled.c **** 		if(Monitor_Flag)			/* 判断复位功能标志位是否使能 */
 2484              		.loc 1 649 3 view .LVU572
 2485              		.loc 1 649 6 is_stmt 0 view .LVU573
 2486 0002 104B     		ldr	r3, .L179
 2487 0004 1B78     		ldrb	r3, [r3]	@ zero_extendqisi2
 2488              		.loc 1 649 5 view .LVU574
 2489 0006 6BB9     		cbnz	r3, .L169
 650:E:/MCU_Project/stm32/Target_tracking/user/My_Peripheral/OLED\oled.c **** 		{
 651:E:/MCU_Project/stm32/Target_tracking/user/My_Peripheral/OLED\oled.c **** 				while(1)
 652:E:/MCU_Project/stm32/Target_tracking/user/My_Peripheral/OLED\oled.c **** 				{
 653:E:/MCU_Project/stm32/Target_tracking/user/My_Peripheral/OLED\oled.c **** 						static uint8_t Restart_Flag;
 654:E:/MCU_Project/stm32/Target_tracking/user/My_Peripheral/OLED\oled.c **** 						Key_Scan(&KeyNum);			/* 获取键码值 */	
 655:E:/MCU_Project/stm32/Target_tracking/user/My_Peripheral/OLED\oled.c **** 						if(KeyNum == 13)
 656:E:/MCU_Project/stm32/Target_tracking/user/My_Peripheral/OLED\oled.c **** 						{
 657:E:/MCU_Project/stm32/Target_tracking/user/My_Peripheral/OLED\oled.c **** 								MovingReset_flag = ~MovingReset_flag;
 658:E:/MCU_Project/stm32/Target_tracking/user/My_Peripheral/OLED\oled.c **** 								if(!MovingReset_flag) 
 659:E:/MCU_Project/stm32/Target_tracking/user/My_Peripheral/OLED\oled.c **** 								{
 660:E:/MCU_Project/stm32/Target_tracking/user/My_Peripheral/OLED\oled.c **** 										Restart_Flag=0;
 661:E:/MCU_Project/stm32/Target_tracking/user/My_Peripheral/OLED\oled.c **** 										break;
 662:E:/MCU_Project/stm32/Target_tracking/user/My_Peripheral/OLED\oled.c **** 								}
 663:E:/MCU_Project/stm32/Target_tracking/user/My_Peripheral/OLED\oled.c **** 								else 
 664:E:/MCU_Project/stm32/Target_tracking/user/My_Peripheral/OLED\oled.c **** 								{
 665:E:/MCU_Project/stm32/Target_tracking/user/My_Peripheral/OLED\oled.c **** 										LASER_RESET();
 666:E:/MCU_Project/stm32/Target_tracking/user/My_Peripheral/OLED\oled.c **** 										Restart_Flag=1;
 667:E:/MCU_Project/stm32/Target_tracking/user/My_Peripheral/OLED\oled.c **** 								}
 668:E:/MCU_Project/stm32/Target_tracking/user/My_Peripheral/OLED\oled.c **** 						}
 669:E:/MCU_Project/stm32/Target_tracking/user/My_Peripheral/OLED\oled.c **** 						else 
 670:E:/MCU_Project/stm32/Target_tracking/user/My_Peripheral/OLED\oled.c **** 						{
 671:E:/MCU_Project/stm32/Target_tracking/user/My_Peripheral/OLED\oled.c **** 								if(!Restart_Flag) break;
 672:E:/MCU_Project/stm32/Target_tracking/user/My_Peripheral/OLED\oled.c **** 						}
 673:E:/MCU_Project/stm32/Target_tracking/user/My_Peripheral/OLED\oled.c **** 				}
 674:E:/MCU_Project/stm32/Target_tracking/user/My_Peripheral/OLED\oled.c **** 		}
 675:E:/MCU_Project/stm32/Target_tracking/user/My_Peripheral/OLED\oled.c **** 		else LASER_RESET();
 2490              		.loc 1 675 8 is_stmt 1 view .LVU575
 2491 0008 FFF7FEFF 		bl	LASER_RESET
 2492              	.LVL281:
 676:E:/MCU_Project/stm32/Target_tracking/user/My_Peripheral/OLED\oled.c **** }
 2493              		.loc 1 676 1 is_stmt 0 view .LVU576
 2494 000c 15E0     		b	.L168
 2495              	.L178:
 2496              	.LBB6:
 657:E:/MCU_Project/stm32/Target_tracking/user/My_Peripheral/OLED\oled.c **** 								if(!MovingReset_flag) 
 2497              		.loc 1 657 9 is_stmt 1 view .LVU577
 657:E:/MCU_Project/stm32/Target_tracking/user/My_Peripheral/OLED\oled.c **** 								if(!MovingReset_flag) 
 2498              		.loc 1 657 26 is_stmt 0 view .LVU578
 2499 000e 0E4A     		ldr	r2, .L179+4
 2500 0010 1378     		ldrb	r3, [r2]	@ zero_extendqisi2
 2501 0012 DB43     		mvns	r3, r3
ARM GAS  C:\Users\86390\AppData\Local\Temp\cc0lOyie.s 			page 61


 2502 0014 DBB2     		uxtb	r3, r3
 2503 0016 1370     		strb	r3, [r2]
 658:E:/MCU_Project/stm32/Target_tracking/user/My_Peripheral/OLED\oled.c **** 								{
 2504              		.loc 1 658 9 is_stmt 1 view .LVU579
 658:E:/MCU_Project/stm32/Target_tracking/user/My_Peripheral/OLED\oled.c **** 								{
 2505              		.loc 1 658 11 is_stmt 0 view .LVU580
 2506 0018 83B1     		cbz	r3, .L177
 665:E:/MCU_Project/stm32/Target_tracking/user/My_Peripheral/OLED\oled.c **** 										Restart_Flag=1;
 2507              		.loc 1 665 11 is_stmt 1 view .LVU581
 2508 001a FFF7FEFF 		bl	LASER_RESET
 2509              	.LVL282:
 666:E:/MCU_Project/stm32/Target_tracking/user/My_Peripheral/OLED\oled.c **** 								}
 2510              		.loc 1 666 11 view .LVU582
 666:E:/MCU_Project/stm32/Target_tracking/user/My_Peripheral/OLED\oled.c **** 								}
 2511              		.loc 1 666 23 is_stmt 0 view .LVU583
 2512 001e 0B4B     		ldr	r3, .L179+8
 2513 0020 0122     		movs	r2, #1
 2514 0022 1A70     		strb	r2, [r3]
 2515              	.L169:
 2516              	.LBE6:
 651:E:/MCU_Project/stm32/Target_tracking/user/My_Peripheral/OLED\oled.c **** 				{
 2517              		.loc 1 651 5 is_stmt 1 view .LVU584
 2518              	.LBB7:
 653:E:/MCU_Project/stm32/Target_tracking/user/My_Peripheral/OLED\oled.c **** 						Key_Scan(&KeyNum);			/* 获取键码值 */	
 2519              		.loc 1 653 7 view .LVU585
 654:E:/MCU_Project/stm32/Target_tracking/user/My_Peripheral/OLED\oled.c **** 						if(KeyNum == 13)
 2520              		.loc 1 654 7 view .LVU586
 2521 0024 0A4C     		ldr	r4, .L179+12
 2522 0026 2046     		mov	r0, r4
 2523 0028 FFF7FEFF 		bl	Key_Scan
 2524              	.LVL283:
 655:E:/MCU_Project/stm32/Target_tracking/user/My_Peripheral/OLED\oled.c **** 						{
 2525              		.loc 1 655 7 view .LVU587
 655:E:/MCU_Project/stm32/Target_tracking/user/My_Peripheral/OLED\oled.c **** 						{
 2526              		.loc 1 655 17 is_stmt 0 view .LVU588
 2527 002c 2378     		ldrb	r3, [r4]	@ zero_extendqisi2
 655:E:/MCU_Project/stm32/Target_tracking/user/My_Peripheral/OLED\oled.c **** 						{
 2528              		.loc 1 655 9 view .LVU589
 2529 002e 0D2B     		cmp	r3, #13
 2530 0030 EDD0     		beq	.L178
 671:E:/MCU_Project/stm32/Target_tracking/user/My_Peripheral/OLED\oled.c **** 						}
 2531              		.loc 1 671 9 is_stmt 1 view .LVU590
 671:E:/MCU_Project/stm32/Target_tracking/user/My_Peripheral/OLED\oled.c **** 						}
 2532              		.loc 1 671 12 is_stmt 0 view .LVU591
 2533 0032 064B     		ldr	r3, .L179+8
 2534 0034 1B78     		ldrb	r3, [r3]	@ zero_extendqisi2
 671:E:/MCU_Project/stm32/Target_tracking/user/My_Peripheral/OLED\oled.c **** 						}
 2535              		.loc 1 671 11 view .LVU592
 2536 0036 002B     		cmp	r3, #0
 2537 0038 F4D1     		bne	.L169
 2538              	.L168:
 2539              	.LBE7:
 2540              		.loc 1 676 1 view .LVU593
 2541 003a 10BD     		pop	{r4, pc}
 2542              	.L177:
 2543              	.LBB8:
 660:E:/MCU_Project/stm32/Target_tracking/user/My_Peripheral/OLED\oled.c **** 										break;
ARM GAS  C:\Users\86390\AppData\Local\Temp\cc0lOyie.s 			page 62


 2544              		.loc 1 660 11 is_stmt 1 view .LVU594
 660:E:/MCU_Project/stm32/Target_tracking/user/My_Peripheral/OLED\oled.c **** 										break;
 2545              		.loc 1 660 23 is_stmt 0 view .LVU595
 2546 003c 034B     		ldr	r3, .L179+8
 2547 003e 0022     		movs	r2, #0
 2548 0040 1A70     		strb	r2, [r3]
 661:E:/MCU_Project/stm32/Target_tracking/user/My_Peripheral/OLED\oled.c **** 								}
 2549              		.loc 1 661 11 is_stmt 1 view .LVU596
 2550 0042 FAE7     		b	.L168
 2551              	.L180:
 2552              		.align	2
 2553              	.L179:
 2554 0044 00000000 		.word	Monitor_Flag
 2555 0048 00000000 		.word	MovingReset_flag
 2556 004c 00000000 		.word	.LANCHOR6
 2557 0050 00000000 		.word	KeyNum
 2558              	.LBE8:
 2559              		.cfi_endproc
 2560              	.LFE158:
 2562              		.section	.rodata.LASER_RESET_Menu.str1.4,"aMS",%progbits,1
 2563              		.align	2
 2564              	.LC4:
 2565 0000 52657365 		.ascii	"Reset_Point:\000"
 2565      745F506F 
 2565      696E743A 
 2565      00
 2566              		.section	.text.LASER_RESET_Menu,"ax",%progbits
 2567              		.align	1
 2568              		.global	LASER_RESET_Menu
 2569              		.syntax unified
 2570              		.thumb
 2571              		.thumb_func
 2573              	LASER_RESET_Menu:
 2574              	.LFB159:
 677:E:/MCU_Project/stm32/Target_tracking/user/My_Peripheral/OLED\oled.c ****  
 678:E:/MCU_Project/stm32/Target_tracking/user/My_Peripheral/OLED\oled.c **** 
 679:E:/MCU_Project/stm32/Target_tracking/user/My_Peripheral/OLED\oled.c **** /* 进入激光复位模式 */
 680:E:/MCU_Project/stm32/Target_tracking/user/My_Peripheral/OLED\oled.c **** void LASER_RESET_Menu(void)
 681:E:/MCU_Project/stm32/Target_tracking/user/My_Peripheral/OLED\oled.c **** {
 2575              		.loc 1 681 1 view -0
 2576              		.cfi_startproc
 2577              		@ args = 0, pretend = 0, frame = 16
 2578              		@ frame_needed = 0, uses_anonymous_args = 0
 2579 0000 10B5     		push	{r4, lr}
 2580              	.LCFI43:
 2581              		.cfi_def_cfa_offset 8
 2582              		.cfi_offset 4, -8
 2583              		.cfi_offset 14, -4
 2584 0002 86B0     		sub	sp, sp, #24
 2585              	.LCFI44:
 2586              		.cfi_def_cfa_offset 32
 682:E:/MCU_Project/stm32/Target_tracking/user/My_Peripheral/OLED\oled.c **** 		char Reset_Point[10];
 2587              		.loc 1 682 3 view .LVU598
 683:E:/MCU_Project/stm32/Target_tracking/user/My_Peripheral/OLED\oled.c **** 	
 684:E:/MCU_Project/stm32/Target_tracking/user/My_Peripheral/OLED\oled.c **** 		LASER_RESET_Start();
 2588              		.loc 1 684 3 view .LVU599
 2589 0004 FFF7FEFF 		bl	LASER_RESET_Start
ARM GAS  C:\Users\86390\AppData\Local\Temp\cc0lOyie.s 			page 63


 2590              	.LVL284:
 2591              	.L182:
 685:E:/MCU_Project/stm32/Target_tracking/user/My_Peripheral/OLED\oled.c **** 	
 686:E:/MCU_Project/stm32/Target_tracking/user/My_Peripheral/OLED\oled.c **** 		while(1)
 2592              		.loc 1 686 3 view .LVU600
 687:E:/MCU_Project/stm32/Target_tracking/user/My_Peripheral/OLED\oled.c **** 		{
 688:E:/MCU_Project/stm32/Target_tracking/user/My_Peripheral/OLED\oled.c **** 				OLED_ShowString(0,0,"Reset_Point:",16,0);
 2593              		.loc 1 688 5 view .LVU601
 2594 0008 0024     		movs	r4, #0
 2595 000a 0094     		str	r4, [sp]
 2596 000c 1023     		movs	r3, #16
 2597 000e 114A     		ldr	r2, .L184
 2598 0010 2146     		mov	r1, r4
 2599 0012 2046     		mov	r0, r4
 2600 0014 FFF7FEFF 		bl	OLED_ShowString
 2601              	.LVL285:
 689:E:/MCU_Project/stm32/Target_tracking/user/My_Peripheral/OLED\oled.c **** 			
 690:E:/MCU_Project/stm32/Target_tracking/user/My_Peripheral/OLED\oled.c **** 				memset(Reset_Point,'\0',10);
 2602              		.loc 1 690 5 view .LVU602
 2603 0018 0394     		str	r4, [sp, #12]
 2604 001a 0494     		str	r4, [sp, #16]
 2605 001c ADF81440 		strh	r4, [sp, #20]	@ movhi
 691:E:/MCU_Project/stm32/Target_tracking/user/My_Peripheral/OLED\oled.c **** 				sprintf(Reset_Point,"(%4d,%4d)",My_ResetXY[0],My_ResetXY[1]);
 2606              		.loc 1 691 5 view .LVU603
 2607              		.loc 1 691 47 is_stmt 0 view .LVU604
 2608 0020 0D4A     		ldr	r2, .L184+4
 2609              		.loc 1 691 5 view .LVU605
 2610 0022 5388     		ldrh	r3, [r2, #2]
 2611 0024 1288     		ldrh	r2, [r2]
 2612 0026 0D49     		ldr	r1, .L184+8
 2613 0028 03A8     		add	r0, sp, #12
 2614 002a FFF7FEFF 		bl	sprintf
 2615              	.LVL286:
 692:E:/MCU_Project/stm32/Target_tracking/user/My_Peripheral/OLED\oled.c **** 				OLED_ShowString(0,2,Reset_Point,16, 0);
 2616              		.loc 1 692 5 is_stmt 1 view .LVU606
 2617 002e 0094     		str	r4, [sp]
 2618 0030 1023     		movs	r3, #16
 2619 0032 03AA     		add	r2, sp, #12
 2620 0034 0221     		movs	r1, #2
 2621 0036 2046     		mov	r0, r4
 2622 0038 FFF7FEFF 		bl	OLED_ShowString
 2623              	.LVL287:
 693:E:/MCU_Project/stm32/Target_tracking/user/My_Peripheral/OLED\oled.c **** 
 694:E:/MCU_Project/stm32/Target_tracking/user/My_Peripheral/OLED\oled.c **** 				Key_Scan(&KeyNum);			/* 获取键码值 */				
 2624              		.loc 1 694 5 view .LVU607
 2625 003c 084C     		ldr	r4, .L184+12
 2626 003e 2046     		mov	r0, r4
 2627 0040 FFF7FEFF 		bl	Key_Scan
 2628              	.LVL288:
 695:E:/MCU_Project/stm32/Target_tracking/user/My_Peripheral/OLED\oled.c **** 			
 696:E:/MCU_Project/stm32/Target_tracking/user/My_Peripheral/OLED\oled.c **** 				if(KeyNum == 4)		/* 返回上级菜单 */
 2629              		.loc 1 696 5 view .LVU608
 2630              		.loc 1 696 15 is_stmt 0 view .LVU609
 2631 0044 2378     		ldrb	r3, [r4]	@ zero_extendqisi2
 2632              		.loc 1 696 7 view .LVU610
 2633 0046 042B     		cmp	r3, #4
 2634 0048 DED1     		bne	.L182
ARM GAS  C:\Users\86390\AppData\Local\Temp\cc0lOyie.s 			page 64


 697:E:/MCU_Project/stm32/Target_tracking/user/My_Peripheral/OLED\oled.c **** 				{
 698:E:/MCU_Project/stm32/Target_tracking/user/My_Peripheral/OLED\oled.c **** 						OLED_Clear();
 2635              		.loc 1 698 7 is_stmt 1 view .LVU611
 2636 004a FFF7FEFF 		bl	OLED_Clear
 2637              	.LVL289:
 699:E:/MCU_Project/stm32/Target_tracking/user/My_Peripheral/OLED\oled.c **** 						break;
 2638              		.loc 1 699 7 view .LVU612
 700:E:/MCU_Project/stm32/Target_tracking/user/My_Peripheral/OLED\oled.c **** 				}
 701:E:/MCU_Project/stm32/Target_tracking/user/My_Peripheral/OLED\oled.c **** 		}	
 702:E:/MCU_Project/stm32/Target_tracking/user/My_Peripheral/OLED\oled.c **** 		
 703:E:/MCU_Project/stm32/Target_tracking/user/My_Peripheral/OLED\oled.c **** }
 2639              		.loc 1 703 1 is_stmt 0 view .LVU613
 2640 004e 06B0     		add	sp, sp, #24
 2641              	.LCFI45:
 2642              		.cfi_def_cfa_offset 8
 2643              		@ sp needed
 2644 0050 10BD     		pop	{r4, pc}
 2645              	.L185:
 2646 0052 00BF     		.align	2
 2647              	.L184:
 2648 0054 00000000 		.word	.LC4
 2649 0058 00000000 		.word	.LANCHOR5
 2650 005c 00000000 		.word	.LC3
 2651 0060 00000000 		.word	KeyNum
 2652              		.cfi_endproc
 2653              	.LFE159:
 2655              		.section	.rodata.LASER_MOVE_Menu.str1.4,"aMS",%progbits,1
 2656              		.align	2
 2657              	.LC5:
 2658 0000 50454E53 		.ascii	"PENSTRING_MOVE\000"
 2658      5452494E 
 2658      475F4D4F 
 2658      564500
 2659 000f 00       		.align	2
 2660              	.LC6:
 2661 0010 52454354 		.ascii	"RECTANGLE_MOVE\000"
 2661      414E474C 
 2661      455F4D4F 
 2661      564500
 2662              		.section	.text.LASER_MOVE_Menu,"ax",%progbits
 2663              		.align	1
 2664              		.global	LASER_MOVE_Menu
 2665              		.syntax unified
 2666              		.thumb
 2667              		.thumb_func
 2669              	LASER_MOVE_Menu:
 2670              	.LFB160:
 704:E:/MCU_Project/stm32/Target_tracking/user/My_Peripheral/OLED\oled.c **** 
 705:E:/MCU_Project/stm32/Target_tracking/user/My_Peripheral/OLED\oled.c **** /* 进入运动菜单选择 */
 706:E:/MCU_Project/stm32/Target_tracking/user/My_Peripheral/OLED\oled.c **** int LASER_MOVE_Menu(void)
 707:E:/MCU_Project/stm32/Target_tracking/user/My_Peripheral/OLED\oled.c **** {
 2671              		.loc 1 707 1 is_stmt 1 view -0
 2672              		.cfi_startproc
 2673              		@ args = 0, pretend = 0, frame = 0
 2674              		@ frame_needed = 0, uses_anonymous_args = 0
 2675 0000 30B5     		push	{r4, r5, lr}
 2676              	.LCFI46:
ARM GAS  C:\Users\86390\AppData\Local\Temp\cc0lOyie.s 			page 65


 2677              		.cfi_def_cfa_offset 12
 2678              		.cfi_offset 4, -12
 2679              		.cfi_offset 5, -8
 2680              		.cfi_offset 14, -4
 2681 0002 83B0     		sub	sp, sp, #12
 2682              	.LCFI47:
 2683              		.cfi_def_cfa_offset 24
 708:E:/MCU_Project/stm32/Target_tracking/user/My_Peripheral/OLED\oled.c **** 		int menu2_flag=1;			/* 模式选择标志 */
 2684              		.loc 1 708 3 view .LVU615
 2685              	.LVL290:
 709:E:/MCU_Project/stm32/Target_tracking/user/My_Peripheral/OLED\oled.c **** 	
 710:E:/MCU_Project/stm32/Target_tracking/user/My_Peripheral/OLED\oled.c **** 		OLED_ShowString(16,0,"PENSTRING_MOVE",16,0);
 2686              		.loc 1 710 3 view .LVU616
 2687 0004 0024     		movs	r4, #0
 2688 0006 0094     		str	r4, [sp]
 2689 0008 1023     		movs	r3, #16
 2690 000a 244A     		ldr	r2, .L199
 2691 000c 2146     		mov	r1, r4
 2692 000e 1846     		mov	r0, r3
 2693 0010 FFF7FEFF 		bl	OLED_ShowString
 2694              	.LVL291:
 711:E:/MCU_Project/stm32/Target_tracking/user/My_Peripheral/OLED\oled.c **** 		OLED_ShowString(16,2,"RECTANGLE_MOVE",16,0);
 2695              		.loc 1 711 3 view .LVU617
 2696 0014 0094     		str	r4, [sp]
 2697 0016 1023     		movs	r3, #16
 2698 0018 214A     		ldr	r2, .L199+4
 2699 001a 0221     		movs	r1, #2
 2700 001c 1846     		mov	r0, r3
 2701 001e FFF7FEFF 		bl	OLED_ShowString
 2702              	.LVL292:
 708:E:/MCU_Project/stm32/Target_tracking/user/My_Peripheral/OLED\oled.c **** 		int menu2_flag=1;			/* 模式选择标志 */
 2703              		.loc 1 708 7 is_stmt 0 view .LVU618
 2704 0022 0124     		movs	r4, #1
 2705 0024 1BE0     		b	.L187
 2706              	.LVL293:
 2707              	.L196:
 712:E:/MCU_Project/stm32/Target_tracking/user/My_Peripheral/OLED\oled.c **** 
 713:E:/MCU_Project/stm32/Target_tracking/user/My_Peripheral/OLED\oled.c **** 		while(1)
 714:E:/MCU_Project/stm32/Target_tracking/user/My_Peripheral/OLED\oled.c **** 		{
 715:E:/MCU_Project/stm32/Target_tracking/user/My_Peripheral/OLED\oled.c **** 			Key_Scan(&KeyNum);			/* 获取键码值 */	
 716:E:/MCU_Project/stm32/Target_tracking/user/My_Peripheral/OLED\oled.c **** 		
 717:E:/MCU_Project/stm32/Target_tracking/user/My_Peripheral/OLED\oled.c **** 			if(KeyNum == 1)			/* *下移 */
 718:E:/MCU_Project/stm32/Target_tracking/user/My_Peripheral/OLED\oled.c **** 			{
 719:E:/MCU_Project/stm32/Target_tracking/user/My_Peripheral/OLED\oled.c **** 					menu2_flag++;
 2708              		.loc 1 719 6 is_stmt 1 view .LVU619
 2709              		.loc 1 719 16 is_stmt 0 view .LVU620
 2710 0026 0134     		adds	r4, r4, #1
 2711              	.LVL294:
 720:E:/MCU_Project/stm32/Target_tracking/user/My_Peripheral/OLED\oled.c **** 					if(menu2_flag>=3) menu2_flag=1;
 2712              		.loc 1 720 6 is_stmt 1 view .LVU621
 2713              		.loc 1 720 8 is_stmt 0 view .LVU622
 2714 0028 022C     		cmp	r4, #2
 2715 002a 1FDD     		ble	.L188
 2716              		.loc 1 720 34 view .LVU623
 2717 002c 0124     		movs	r4, #1
 2718              	.LVL295:
 2719              		.loc 1 720 34 view .LVU624
ARM GAS  C:\Users\86390\AppData\Local\Temp\cc0lOyie.s 			page 66


 2720 002e 1DE0     		b	.L188
 2721              	.LVL296:
 2722              	.L197:
 721:E:/MCU_Project/stm32/Target_tracking/user/My_Peripheral/OLED\oled.c **** 			}
 722:E:/MCU_Project/stm32/Target_tracking/user/My_Peripheral/OLED\oled.c **** 			
 723:E:/MCU_Project/stm32/Target_tracking/user/My_Peripheral/OLED\oled.c **** 			if(KeyNum == 3)			/* 选择确定 */
 724:E:/MCU_Project/stm32/Target_tracking/user/My_Peripheral/OLED\oled.c **** 			{
 725:E:/MCU_Project/stm32/Target_tracking/user/My_Peripheral/OLED\oled.c **** 					OLED_Clear();
 2723              		.loc 1 725 6 is_stmt 1 view .LVU625
 2724 0030 FFF7FEFF 		bl	OLED_Clear
 2725              	.LVL297:
 726:E:/MCU_Project/stm32/Target_tracking/user/My_Peripheral/OLED\oled.c **** 					return(menu2_flag);
 2726              		.loc 1 726 6 view .LVU626
 2727              	.L186:
 727:E:/MCU_Project/stm32/Target_tracking/user/My_Peripheral/OLED\oled.c **** 			}
 728:E:/MCU_Project/stm32/Target_tracking/user/My_Peripheral/OLED\oled.c **** 			
 729:E:/MCU_Project/stm32/Target_tracking/user/My_Peripheral/OLED\oled.c **** 			if(KeyNum == 4)			/* 返回上一级菜单 */
 730:E:/MCU_Project/stm32/Target_tracking/user/My_Peripheral/OLED\oled.c **** 			{
 731:E:/MCU_Project/stm32/Target_tracking/user/My_Peripheral/OLED\oled.c **** 					OLED_Clear();
 732:E:/MCU_Project/stm32/Target_tracking/user/My_Peripheral/OLED\oled.c **** 					break;
 733:E:/MCU_Project/stm32/Target_tracking/user/My_Peripheral/OLED\oled.c **** 			}
 734:E:/MCU_Project/stm32/Target_tracking/user/My_Peripheral/OLED\oled.c **** 			
 735:E:/MCU_Project/stm32/Target_tracking/user/My_Peripheral/OLED\oled.c **** 			switch(menu2_flag)
 736:E:/MCU_Project/stm32/Target_tracking/user/My_Peripheral/OLED\oled.c **** 			{
 737:E:/MCU_Project/stm32/Target_tracking/user/My_Peripheral/OLED\oled.c **** 				case 1:
 738:E:/MCU_Project/stm32/Target_tracking/user/My_Peripheral/OLED\oled.c **** 				{
 739:E:/MCU_Project/stm32/Target_tracking/user/My_Peripheral/OLED\oled.c **** 						OLED_ShowChar(0,0,'*',16,0);
 740:E:/MCU_Project/stm32/Target_tracking/user/My_Peripheral/OLED\oled.c **** 						OLED_ShowChar(0,2,' ',16,0);	
 741:E:/MCU_Project/stm32/Target_tracking/user/My_Peripheral/OLED\oled.c **** 						break;
 742:E:/MCU_Project/stm32/Target_tracking/user/My_Peripheral/OLED\oled.c **** 				}
 743:E:/MCU_Project/stm32/Target_tracking/user/My_Peripheral/OLED\oled.c **** 				case 2:
 744:E:/MCU_Project/stm32/Target_tracking/user/My_Peripheral/OLED\oled.c **** 				{
 745:E:/MCU_Project/stm32/Target_tracking/user/My_Peripheral/OLED\oled.c **** 						OLED_ShowChar(0,0,' ',16,0);
 746:E:/MCU_Project/stm32/Target_tracking/user/My_Peripheral/OLED\oled.c **** 						OLED_ShowChar(0,2,'*',16,0);	
 747:E:/MCU_Project/stm32/Target_tracking/user/My_Peripheral/OLED\oled.c **** 						break;						
 748:E:/MCU_Project/stm32/Target_tracking/user/My_Peripheral/OLED\oled.c **** 				}
 749:E:/MCU_Project/stm32/Target_tracking/user/My_Peripheral/OLED\oled.c **** 			}
 750:E:/MCU_Project/stm32/Target_tracking/user/My_Peripheral/OLED\oled.c **** 		}
 751:E:/MCU_Project/stm32/Target_tracking/user/My_Peripheral/OLED\oled.c **** }
 2728              		.loc 1 751 1 is_stmt 0 view .LVU627
 2729 0034 2046     		mov	r0, r4
 2730 0036 03B0     		add	sp, sp, #12
 2731              	.LCFI48:
 2732              		.cfi_remember_state
 2733              		.cfi_def_cfa_offset 12
 2734              		@ sp needed
 2735 0038 30BD     		pop	{r4, r5, pc}
 2736              	.LVL298:
 2737              	.L198:
 2738              	.LCFI49:
 2739              		.cfi_restore_state
 731:E:/MCU_Project/stm32/Target_tracking/user/My_Peripheral/OLED\oled.c **** 					break;
 2740              		.loc 1 731 6 is_stmt 1 view .LVU628
 2741 003a FFF7FEFF 		bl	OLED_Clear
 2742              	.LVL299:
 732:E:/MCU_Project/stm32/Target_tracking/user/My_Peripheral/OLED\oled.c **** 			}
 2743              		.loc 1 732 6 view .LVU629
ARM GAS  C:\Users\86390\AppData\Local\Temp\cc0lOyie.s 			page 67


 2744              	.LVL300:
 2745              		.loc 1 751 1 is_stmt 0 view .LVU630
 2746 003e F9E7     		b	.L186
 2747              	.LVL301:
 2748              	.L191:
 739:E:/MCU_Project/stm32/Target_tracking/user/My_Peripheral/OLED\oled.c **** 						OLED_ShowChar(0,2,' ',16,0);	
 2749              		.loc 1 739 7 is_stmt 1 view .LVU631
 2750 0040 0025     		movs	r5, #0
 2751 0042 0095     		str	r5, [sp]
 2752 0044 1023     		movs	r3, #16
 2753 0046 2A22     		movs	r2, #42
 2754 0048 2946     		mov	r1, r5
 2755 004a 2846     		mov	r0, r5
 2756 004c FFF7FEFF 		bl	OLED_ShowChar
 2757              	.LVL302:
 740:E:/MCU_Project/stm32/Target_tracking/user/My_Peripheral/OLED\oled.c **** 						break;
 2758              		.loc 1 740 7 view .LVU632
 2759 0050 0095     		str	r5, [sp]
 2760 0052 1023     		movs	r3, #16
 2761 0054 2022     		movs	r2, #32
 2762 0056 0221     		movs	r1, #2
 2763 0058 2846     		mov	r0, r5
 2764 005a FFF7FEFF 		bl	OLED_ShowChar
 2765              	.LVL303:
 741:E:/MCU_Project/stm32/Target_tracking/user/My_Peripheral/OLED\oled.c **** 				}
 2766              		.loc 1 741 7 view .LVU633
 2767              	.L187:
 713:E:/MCU_Project/stm32/Target_tracking/user/My_Peripheral/OLED\oled.c **** 		{
 2768              		.loc 1 713 3 view .LVU634
 715:E:/MCU_Project/stm32/Target_tracking/user/My_Peripheral/OLED\oled.c **** 		
 2769              		.loc 1 715 4 view .LVU635
 2770 005e 114D     		ldr	r5, .L199+8
 2771 0060 2846     		mov	r0, r5
 2772 0062 FFF7FEFF 		bl	Key_Scan
 2773              	.LVL304:
 717:E:/MCU_Project/stm32/Target_tracking/user/My_Peripheral/OLED\oled.c **** 			{
 2774              		.loc 1 717 4 view .LVU636
 717:E:/MCU_Project/stm32/Target_tracking/user/My_Peripheral/OLED\oled.c **** 			{
 2775              		.loc 1 717 14 is_stmt 0 view .LVU637
 2776 0066 2B78     		ldrb	r3, [r5]	@ zero_extendqisi2
 717:E:/MCU_Project/stm32/Target_tracking/user/My_Peripheral/OLED\oled.c **** 			{
 2777              		.loc 1 717 6 view .LVU638
 2778 0068 012B     		cmp	r3, #1
 2779 006a DCD0     		beq	.L196
 2780              	.LVL305:
 2781              	.L188:
 723:E:/MCU_Project/stm32/Target_tracking/user/My_Peripheral/OLED\oled.c **** 			{
 2782              		.loc 1 723 4 is_stmt 1 view .LVU639
 723:E:/MCU_Project/stm32/Target_tracking/user/My_Peripheral/OLED\oled.c **** 			{
 2783              		.loc 1 723 6 is_stmt 0 view .LVU640
 2784 006c 032B     		cmp	r3, #3
 2785 006e DFD0     		beq	.L197
 729:E:/MCU_Project/stm32/Target_tracking/user/My_Peripheral/OLED\oled.c **** 			{
 2786              		.loc 1 729 4 is_stmt 1 view .LVU641
 729:E:/MCU_Project/stm32/Target_tracking/user/My_Peripheral/OLED\oled.c **** 			{
 2787              		.loc 1 729 6 is_stmt 0 view .LVU642
 2788 0070 042B     		cmp	r3, #4
ARM GAS  C:\Users\86390\AppData\Local\Temp\cc0lOyie.s 			page 68


 2789 0072 E2D0     		beq	.L198
 735:E:/MCU_Project/stm32/Target_tracking/user/My_Peripheral/OLED\oled.c **** 			{
 2790              		.loc 1 735 4 is_stmt 1 view .LVU643
 2791 0074 012C     		cmp	r4, #1
 2792 0076 E3D0     		beq	.L191
 2793 0078 022C     		cmp	r4, #2
 2794 007a F0D1     		bne	.L187
 745:E:/MCU_Project/stm32/Target_tracking/user/My_Peripheral/OLED\oled.c **** 						OLED_ShowChar(0,2,'*',16,0);	
 2795              		.loc 1 745 7 view .LVU644
 2796 007c 0025     		movs	r5, #0
 2797 007e 0095     		str	r5, [sp]
 2798 0080 1023     		movs	r3, #16
 2799 0082 2022     		movs	r2, #32
 2800 0084 2946     		mov	r1, r5
 2801 0086 2846     		mov	r0, r5
 2802 0088 FFF7FEFF 		bl	OLED_ShowChar
 2803              	.LVL306:
 746:E:/MCU_Project/stm32/Target_tracking/user/My_Peripheral/OLED\oled.c **** 						break;						
 2804              		.loc 1 746 7 view .LVU645
 2805 008c 0095     		str	r5, [sp]
 2806 008e 1023     		movs	r3, #16
 2807 0090 2A22     		movs	r2, #42
 2808 0092 0221     		movs	r1, #2
 2809 0094 2846     		mov	r0, r5
 2810 0096 FFF7FEFF 		bl	OLED_ShowChar
 2811              	.LVL307:
 747:E:/MCU_Project/stm32/Target_tracking/user/My_Peripheral/OLED\oled.c **** 				}
 2812              		.loc 1 747 7 view .LVU646
 2813 009a E0E7     		b	.L187
 2814              	.L200:
 2815              		.align	2
 2816              	.L199:
 2817 009c 00000000 		.word	.LC5
 2818 00a0 10000000 		.word	.LC6
 2819 00a4 00000000 		.word	KeyNum
 2820              		.cfi_endproc
 2821              	.LFE160:
 2823              		.section	.rodata.RECTANGLE_MOVE_Menu.str1.4,"aMS",%progbits,1
 2824              		.align	2
 2825              	.LC7:
 2826 0000 5345545F 		.ascii	"SET_RECTANGLE\000"
 2826      52454354 
 2826      414E474C 
 2826      4500
 2827 000e 0000     		.align	2
 2828              	.LC8:
 2829 0010 53544152 		.ascii	"START_MOVE\000"
 2829      545F4D4F 
 2829      564500
 2830              		.section	.text.RECTANGLE_MOVE_Menu,"ax",%progbits
 2831              		.align	1
 2832              		.global	RECTANGLE_MOVE_Menu
 2833              		.syntax unified
 2834              		.thumb
 2835              		.thumb_func
 2837              	RECTANGLE_MOVE_Menu:
 2838              	.LFB161:
ARM GAS  C:\Users\86390\AppData\Local\Temp\cc0lOyie.s 			page 69


 752:E:/MCU_Project/stm32/Target_tracking/user/My_Peripheral/OLED\oled.c **** 
 753:E:/MCU_Project/stm32/Target_tracking/user/My_Peripheral/OLED\oled.c **** 
 754:E:/MCU_Project/stm32/Target_tracking/user/My_Peripheral/OLED\oled.c **** 
 755:E:/MCU_Project/stm32/Target_tracking/user/My_Peripheral/OLED\oled.c **** /* 三级菜单部分 */
 756:E:/MCU_Project/stm32/Target_tracking/user/My_Peripheral/OLED\oled.c **** 
 757:E:/MCU_Project/stm32/Target_tracking/user/My_Peripheral/OLED\oled.c **** /* 矩形框运动控制菜单 */
 758:E:/MCU_Project/stm32/Target_tracking/user/My_Peripheral/OLED\oled.c **** int RECTANGLE_MOVE_Menu(void)			
 759:E:/MCU_Project/stm32/Target_tracking/user/My_Peripheral/OLED\oled.c **** {
 2839              		.loc 1 759 1 view -0
 2840              		.cfi_startproc
 2841              		@ args = 0, pretend = 0, frame = 0
 2842              		@ frame_needed = 0, uses_anonymous_args = 0
 2843 0000 30B5     		push	{r4, r5, lr}
 2844              	.LCFI50:
 2845              		.cfi_def_cfa_offset 12
 2846              		.cfi_offset 4, -12
 2847              		.cfi_offset 5, -8
 2848              		.cfi_offset 14, -4
 2849 0002 83B0     		sub	sp, sp, #12
 2850              	.LCFI51:
 2851              		.cfi_def_cfa_offset 24
 760:E:/MCU_Project/stm32/Target_tracking/user/My_Peripheral/OLED\oled.c **** 		int menu3_flag=1;			/* 模式选择标志 */ 
 2852              		.loc 1 760 3 view .LVU648
 2853              	.LVL308:
 761:E:/MCU_Project/stm32/Target_tracking/user/My_Peripheral/OLED\oled.c **** 
 762:E:/MCU_Project/stm32/Target_tracking/user/My_Peripheral/OLED\oled.c **** 		OLED_ShowString(16,0,"SET_RECTANGLE",16,0);
 2854              		.loc 1 762 3 view .LVU649
 2855 0004 0024     		movs	r4, #0
 2856 0006 0094     		str	r4, [sp]
 2857 0008 1023     		movs	r3, #16
 2858 000a 244A     		ldr	r2, .L214
 2859 000c 2146     		mov	r1, r4
 2860 000e 1846     		mov	r0, r3
 2861 0010 FFF7FEFF 		bl	OLED_ShowString
 2862              	.LVL309:
 763:E:/MCU_Project/stm32/Target_tracking/user/My_Peripheral/OLED\oled.c **** 		OLED_ShowString(16,2,"START_MOVE",16,0);
 2863              		.loc 1 763 3 view .LVU650
 2864 0014 0094     		str	r4, [sp]
 2865 0016 1023     		movs	r3, #16
 2866 0018 214A     		ldr	r2, .L214+4
 2867 001a 0221     		movs	r1, #2
 2868 001c 1846     		mov	r0, r3
 2869 001e FFF7FEFF 		bl	OLED_ShowString
 2870              	.LVL310:
 760:E:/MCU_Project/stm32/Target_tracking/user/My_Peripheral/OLED\oled.c **** 		int menu3_flag=1;			/* 模式选择标志 */ 
 2871              		.loc 1 760 7 is_stmt 0 view .LVU651
 2872 0022 0124     		movs	r4, #1
 2873 0024 1BE0     		b	.L202
 2874              	.LVL311:
 2875              	.L211:
 764:E:/MCU_Project/stm32/Target_tracking/user/My_Peripheral/OLED\oled.c **** 
 765:E:/MCU_Project/stm32/Target_tracking/user/My_Peripheral/OLED\oled.c **** 		while(1)
 766:E:/MCU_Project/stm32/Target_tracking/user/My_Peripheral/OLED\oled.c **** 		{
 767:E:/MCU_Project/stm32/Target_tracking/user/My_Peripheral/OLED\oled.c **** 			Key_Scan(&KeyNum);			/* 获取键码值 */	
 768:E:/MCU_Project/stm32/Target_tracking/user/My_Peripheral/OLED\oled.c **** 		
 769:E:/MCU_Project/stm32/Target_tracking/user/My_Peripheral/OLED\oled.c **** 			if(KeyNum == 1)			/* *下移 */
 770:E:/MCU_Project/stm32/Target_tracking/user/My_Peripheral/OLED\oled.c **** 			{
ARM GAS  C:\Users\86390\AppData\Local\Temp\cc0lOyie.s 			page 70


 771:E:/MCU_Project/stm32/Target_tracking/user/My_Peripheral/OLED\oled.c **** 					menu3_flag++;
 2876              		.loc 1 771 6 is_stmt 1 view .LVU652
 2877              		.loc 1 771 16 is_stmt 0 view .LVU653
 2878 0026 0134     		adds	r4, r4, #1
 2879              	.LVL312:
 772:E:/MCU_Project/stm32/Target_tracking/user/My_Peripheral/OLED\oled.c **** 					if(menu3_flag>=3) menu3_flag=1;
 2880              		.loc 1 772 6 is_stmt 1 view .LVU654
 2881              		.loc 1 772 8 is_stmt 0 view .LVU655
 2882 0028 022C     		cmp	r4, #2
 2883 002a 1FDD     		ble	.L203
 2884              		.loc 1 772 34 view .LVU656
 2885 002c 0124     		movs	r4, #1
 2886              	.LVL313:
 2887              		.loc 1 772 34 view .LVU657
 2888 002e 1DE0     		b	.L203
 2889              	.LVL314:
 2890              	.L212:
 773:E:/MCU_Project/stm32/Target_tracking/user/My_Peripheral/OLED\oled.c **** 			}
 774:E:/MCU_Project/stm32/Target_tracking/user/My_Peripheral/OLED\oled.c **** 			
 775:E:/MCU_Project/stm32/Target_tracking/user/My_Peripheral/OLED\oled.c **** 			if(KeyNum == 3)			/* 选择确定 */
 776:E:/MCU_Project/stm32/Target_tracking/user/My_Peripheral/OLED\oled.c **** 			{
 777:E:/MCU_Project/stm32/Target_tracking/user/My_Peripheral/OLED\oled.c **** 					OLED_Clear();
 2891              		.loc 1 777 6 is_stmt 1 view .LVU658
 2892 0030 FFF7FEFF 		bl	OLED_Clear
 2893              	.LVL315:
 778:E:/MCU_Project/stm32/Target_tracking/user/My_Peripheral/OLED\oled.c **** 					return(menu3_flag);
 2894              		.loc 1 778 6 view .LVU659
 2895              	.L201:
 779:E:/MCU_Project/stm32/Target_tracking/user/My_Peripheral/OLED\oled.c **** 			}
 780:E:/MCU_Project/stm32/Target_tracking/user/My_Peripheral/OLED\oled.c **** 			
 781:E:/MCU_Project/stm32/Target_tracking/user/My_Peripheral/OLED\oled.c **** 			if(KeyNum == 4)			/* 返回上一级菜单 */
 782:E:/MCU_Project/stm32/Target_tracking/user/My_Peripheral/OLED\oled.c **** 			{
 783:E:/MCU_Project/stm32/Target_tracking/user/My_Peripheral/OLED\oled.c **** 					OLED_Clear();
 784:E:/MCU_Project/stm32/Target_tracking/user/My_Peripheral/OLED\oled.c **** 					break;
 785:E:/MCU_Project/stm32/Target_tracking/user/My_Peripheral/OLED\oled.c **** 			}			
 786:E:/MCU_Project/stm32/Target_tracking/user/My_Peripheral/OLED\oled.c **** 			
 787:E:/MCU_Project/stm32/Target_tracking/user/My_Peripheral/OLED\oled.c **** 			switch(menu3_flag)
 788:E:/MCU_Project/stm32/Target_tracking/user/My_Peripheral/OLED\oled.c **** 			{
 789:E:/MCU_Project/stm32/Target_tracking/user/My_Peripheral/OLED\oled.c **** 				case 1:
 790:E:/MCU_Project/stm32/Target_tracking/user/My_Peripheral/OLED\oled.c **** 				{
 791:E:/MCU_Project/stm32/Target_tracking/user/My_Peripheral/OLED\oled.c **** 						OLED_ShowChar(0,0,'*',16,0);
 792:E:/MCU_Project/stm32/Target_tracking/user/My_Peripheral/OLED\oled.c **** 						OLED_ShowChar(0,2,' ',16,0);	
 793:E:/MCU_Project/stm32/Target_tracking/user/My_Peripheral/OLED\oled.c **** 						break;
 794:E:/MCU_Project/stm32/Target_tracking/user/My_Peripheral/OLED\oled.c **** 				}
 795:E:/MCU_Project/stm32/Target_tracking/user/My_Peripheral/OLED\oled.c **** 				case 2:
 796:E:/MCU_Project/stm32/Target_tracking/user/My_Peripheral/OLED\oled.c **** 				{
 797:E:/MCU_Project/stm32/Target_tracking/user/My_Peripheral/OLED\oled.c **** 						OLED_ShowChar(0,0,' ',16,0);
 798:E:/MCU_Project/stm32/Target_tracking/user/My_Peripheral/OLED\oled.c **** 						OLED_ShowChar(0,2,'*',16,0);	
 799:E:/MCU_Project/stm32/Target_tracking/user/My_Peripheral/OLED\oled.c **** 						break;						
 800:E:/MCU_Project/stm32/Target_tracking/user/My_Peripheral/OLED\oled.c **** 				}
 801:E:/MCU_Project/stm32/Target_tracking/user/My_Peripheral/OLED\oled.c **** 			}
 802:E:/MCU_Project/stm32/Target_tracking/user/My_Peripheral/OLED\oled.c **** 		}	
 803:E:/MCU_Project/stm32/Target_tracking/user/My_Peripheral/OLED\oled.c **** 		
 804:E:/MCU_Project/stm32/Target_tracking/user/My_Peripheral/OLED\oled.c **** }
 2896              		.loc 1 804 1 is_stmt 0 view .LVU660
 2897 0034 2046     		mov	r0, r4
 2898 0036 03B0     		add	sp, sp, #12
ARM GAS  C:\Users\86390\AppData\Local\Temp\cc0lOyie.s 			page 71


 2899              	.LCFI52:
 2900              		.cfi_remember_state
 2901              		.cfi_def_cfa_offset 12
 2902              		@ sp needed
 2903 0038 30BD     		pop	{r4, r5, pc}
 2904              	.LVL316:
 2905              	.L213:
 2906              	.LCFI53:
 2907              		.cfi_restore_state
 783:E:/MCU_Project/stm32/Target_tracking/user/My_Peripheral/OLED\oled.c **** 					break;
 2908              		.loc 1 783 6 is_stmt 1 view .LVU661
 2909 003a FFF7FEFF 		bl	OLED_Clear
 2910              	.LVL317:
 784:E:/MCU_Project/stm32/Target_tracking/user/My_Peripheral/OLED\oled.c **** 			}			
 2911              		.loc 1 784 6 view .LVU662
 2912              	.LVL318:
 2913              		.loc 1 804 1 is_stmt 0 view .LVU663
 2914 003e F9E7     		b	.L201
 2915              	.LVL319:
 2916              	.L206:
 791:E:/MCU_Project/stm32/Target_tracking/user/My_Peripheral/OLED\oled.c **** 						OLED_ShowChar(0,2,' ',16,0);	
 2917              		.loc 1 791 7 is_stmt 1 view .LVU664
 2918 0040 0025     		movs	r5, #0
 2919 0042 0095     		str	r5, [sp]
 2920 0044 1023     		movs	r3, #16
 2921 0046 2A22     		movs	r2, #42
 2922 0048 2946     		mov	r1, r5
 2923 004a 2846     		mov	r0, r5
 2924 004c FFF7FEFF 		bl	OLED_ShowChar
 2925              	.LVL320:
 792:E:/MCU_Project/stm32/Target_tracking/user/My_Peripheral/OLED\oled.c **** 						break;
 2926              		.loc 1 792 7 view .LVU665
 2927 0050 0095     		str	r5, [sp]
 2928 0052 1023     		movs	r3, #16
 2929 0054 2022     		movs	r2, #32
 2930 0056 0221     		movs	r1, #2
 2931 0058 2846     		mov	r0, r5
 2932 005a FFF7FEFF 		bl	OLED_ShowChar
 2933              	.LVL321:
 793:E:/MCU_Project/stm32/Target_tracking/user/My_Peripheral/OLED\oled.c **** 				}
 2934              		.loc 1 793 7 view .LVU666
 2935              	.L202:
 765:E:/MCU_Project/stm32/Target_tracking/user/My_Peripheral/OLED\oled.c **** 		{
 2936              		.loc 1 765 3 view .LVU667
 767:E:/MCU_Project/stm32/Target_tracking/user/My_Peripheral/OLED\oled.c **** 		
 2937              		.loc 1 767 4 view .LVU668
 2938 005e 114D     		ldr	r5, .L214+8
 2939 0060 2846     		mov	r0, r5
 2940 0062 FFF7FEFF 		bl	Key_Scan
 2941              	.LVL322:
 769:E:/MCU_Project/stm32/Target_tracking/user/My_Peripheral/OLED\oled.c **** 			{
 2942              		.loc 1 769 4 view .LVU669
 769:E:/MCU_Project/stm32/Target_tracking/user/My_Peripheral/OLED\oled.c **** 			{
 2943              		.loc 1 769 14 is_stmt 0 view .LVU670
 2944 0066 2B78     		ldrb	r3, [r5]	@ zero_extendqisi2
 769:E:/MCU_Project/stm32/Target_tracking/user/My_Peripheral/OLED\oled.c **** 			{
 2945              		.loc 1 769 6 view .LVU671
ARM GAS  C:\Users\86390\AppData\Local\Temp\cc0lOyie.s 			page 72


 2946 0068 012B     		cmp	r3, #1
 2947 006a DCD0     		beq	.L211
 2948              	.LVL323:
 2949              	.L203:
 775:E:/MCU_Project/stm32/Target_tracking/user/My_Peripheral/OLED\oled.c **** 			{
 2950              		.loc 1 775 4 is_stmt 1 view .LVU672
 775:E:/MCU_Project/stm32/Target_tracking/user/My_Peripheral/OLED\oled.c **** 			{
 2951              		.loc 1 775 6 is_stmt 0 view .LVU673
 2952 006c 032B     		cmp	r3, #3
 2953 006e DFD0     		beq	.L212
 781:E:/MCU_Project/stm32/Target_tracking/user/My_Peripheral/OLED\oled.c **** 			{
 2954              		.loc 1 781 4 is_stmt 1 view .LVU674
 781:E:/MCU_Project/stm32/Target_tracking/user/My_Peripheral/OLED\oled.c **** 			{
 2955              		.loc 1 781 6 is_stmt 0 view .LVU675
 2956 0070 042B     		cmp	r3, #4
 2957 0072 E2D0     		beq	.L213
 787:E:/MCU_Project/stm32/Target_tracking/user/My_Peripheral/OLED\oled.c **** 			{
 2958              		.loc 1 787 4 is_stmt 1 view .LVU676
 2959 0074 012C     		cmp	r4, #1
 2960 0076 E3D0     		beq	.L206
 2961 0078 022C     		cmp	r4, #2
 2962 007a F0D1     		bne	.L202
 797:E:/MCU_Project/stm32/Target_tracking/user/My_Peripheral/OLED\oled.c **** 						OLED_ShowChar(0,2,'*',16,0);	
 2963              		.loc 1 797 7 view .LVU677
 2964 007c 0025     		movs	r5, #0
 2965 007e 0095     		str	r5, [sp]
 2966 0080 1023     		movs	r3, #16
 2967 0082 2022     		movs	r2, #32
 2968 0084 2946     		mov	r1, r5
 2969 0086 2846     		mov	r0, r5
 2970 0088 FFF7FEFF 		bl	OLED_ShowChar
 2971              	.LVL324:
 798:E:/MCU_Project/stm32/Target_tracking/user/My_Peripheral/OLED\oled.c **** 						break;						
 2972              		.loc 1 798 7 view .LVU678
 2973 008c 0095     		str	r5, [sp]
 2974 008e 1023     		movs	r3, #16
 2975 0090 2A22     		movs	r2, #42
 2976 0092 0221     		movs	r1, #2
 2977 0094 2846     		mov	r0, r5
 2978 0096 FFF7FEFF 		bl	OLED_ShowChar
 2979              	.LVL325:
 799:E:/MCU_Project/stm32/Target_tracking/user/My_Peripheral/OLED\oled.c **** 				}
 2980              		.loc 1 799 7 view .LVU679
 2981 009a E0E7     		b	.L202
 2982              	.L215:
 2983              		.align	2
 2984              	.L214:
 2985 009c 00000000 		.word	.LC7
 2986 00a0 10000000 		.word	.LC8
 2987 00a4 00000000 		.word	KeyNum
 2988              		.cfi_endproc
 2989              	.LFE161:
 2991              		.section	.text.GET_RECTANGLE_menu,"ax",%progbits
 2992              		.align	1
 2993              		.global	GET_RECTANGLE_menu
 2994              		.syntax unified
 2995              		.thumb
ARM GAS  C:\Users\86390\AppData\Local\Temp\cc0lOyie.s 			page 73


 2996              		.thumb_func
 2998              	GET_RECTANGLE_menu:
 2999              	.LFB162:
 805:E:/MCU_Project/stm32/Target_tracking/user/My_Peripheral/OLED\oled.c **** 
 806:E:/MCU_Project/stm32/Target_tracking/user/My_Peripheral/OLED\oled.c **** /* 四级菜单部分 */
 807:E:/MCU_Project/stm32/Target_tracking/user/My_Peripheral/OLED\oled.c **** 
 808:E:/MCU_Project/stm32/Target_tracking/user/My_Peripheral/OLED\oled.c **** void GET_RECTANGLE_menu(void)
 809:E:/MCU_Project/stm32/Target_tracking/user/My_Peripheral/OLED\oled.c **** {
 3000              		.loc 1 809 1 view -0
 3001              		.cfi_startproc
 3002              		@ args = 0, pretend = 0, frame = 48
 3003              		@ frame_needed = 0, uses_anonymous_args = 0
 3004 0000 70B5     		push	{r4, r5, r6, lr}
 3005              	.LCFI54:
 3006              		.cfi_def_cfa_offset 16
 3007              		.cfi_offset 4, -16
 3008              		.cfi_offset 5, -12
 3009              		.cfi_offset 6, -8
 3010              		.cfi_offset 14, -4
 3011 0002 8EB0     		sub	sp, sp, #56
 3012              	.LCFI55:
 3013              		.cfi_def_cfa_offset 72
 810:E:/MCU_Project/stm32/Target_tracking/user/My_Peripheral/OLED\oled.c **** 	
 811:E:/MCU_Project/stm32/Target_tracking/user/My_Peripheral/OLED\oled.c **** 		char Point1_XY[10],Point2_XY[10],Point3_XY[10],Point4_XY[10];	
 3014              		.loc 1 811 3 view .LVU681
 812:E:/MCU_Project/stm32/Target_tracking/user/My_Peripheral/OLED\oled.c **** 		
 813:E:/MCU_Project/stm32/Target_tracking/user/My_Peripheral/OLED\oled.c **** 		Data_StartGet=1;
 3015              		.loc 1 813 3 view .LVU682
 3016              		.loc 1 813 16 is_stmt 0 view .LVU683
 3017 0004 334B     		ldr	r3, .L220
 3018 0006 0122     		movs	r2, #1
 3019 0008 1A70     		strb	r2, [r3]
 3020              	.L217:
 814:E:/MCU_Project/stm32/Target_tracking/user/My_Peripheral/OLED\oled.c **** 		
 815:E:/MCU_Project/stm32/Target_tracking/user/My_Peripheral/OLED\oled.c **** 		while(1)
 3021              		.loc 1 815 3 is_stmt 1 view .LVU684
 816:E:/MCU_Project/stm32/Target_tracking/user/My_Peripheral/OLED\oled.c **** 		{
 817:E:/MCU_Project/stm32/Target_tracking/user/My_Peripheral/OLED\oled.c **** 				Get_RectangleXY(rectangle_XY);			/* 获取四点原始坐标 */
 3022              		.loc 1 817 5 view .LVU685
 3023 000a 3348     		ldr	r0, .L220+4
 3024 000c FFF7FEFF 		bl	Get_RectangleXY
 3025              	.LVL326:
 818:E:/MCU_Project/stm32/Target_tracking/user/My_Peripheral/OLED\oled.c **** 					
 819:E:/MCU_Project/stm32/Target_tracking/user/My_Peripheral/OLED\oled.c **** 				if(Data_FinishGet == 0 && Data_StartGet == 0)		/* 接收完成后 */
 3026              		.loc 1 819 5 view .LVU686
 3027              		.loc 1 819 23 is_stmt 0 view .LVU687
 3028 0010 324B     		ldr	r3, .L220+8
 3029 0012 1B78     		ldrb	r3, [r3]	@ zero_extendqisi2
 3030              		.loc 1 819 7 view .LVU688
 3031 0014 002B     		cmp	r3, #0
 3032 0016 F8D1     		bne	.L217
 3033              		.loc 1 819 45 discriminator 1 view .LVU689
 3034 0018 2E4B     		ldr	r3, .L220
 3035 001a 1B78     		ldrb	r3, [r3]	@ zero_extendqisi2
 3036              		.loc 1 819 28 discriminator 1 view .LVU690
 3037 001c 002B     		cmp	r3, #0
 3038 001e F4D1     		bne	.L217
ARM GAS  C:\Users\86390\AppData\Local\Temp\cc0lOyie.s 			page 74


 820:E:/MCU_Project/stm32/Target_tracking/user/My_Peripheral/OLED\oled.c **** 				{
 821:E:/MCU_Project/stm32/Target_tracking/user/My_Peripheral/OLED\oled.c **** 						HAL_UART_Transmit(&huart3,(uint8_t*)&Rectangle_Send,sizeof(Rectangle_Send),HAL_MAX_DELAY);		/
 3039              		.loc 1 821 7 is_stmt 1 view .LVU691
 3040 0020 4FF0FF33 		mov	r3, #-1
 3041 0024 0122     		movs	r2, #1
 3042 0026 2E49     		ldr	r1, .L220+12
 3043 0028 2E48     		ldr	r0, .L220+16
 3044 002a FFF7FEFF 		bl	HAL_UART_Transmit
 3045              	.LVL327:
 822:E:/MCU_Project/stm32/Target_tracking/user/My_Peripheral/OLED\oled.c **** 					
 823:E:/MCU_Project/stm32/Target_tracking/user/My_Peripheral/OLED\oled.c **** 						memset(Point1_XY,'\0',10);
 3046              		.loc 1 823 7 view .LVU692
 3047 002e 0024     		movs	r4, #0
 3048 0030 0B94     		str	r4, [sp, #44]
 3049 0032 0C94     		str	r4, [sp, #48]
 3050 0034 ADF83440 		strh	r4, [sp, #52]	@ movhi
 824:E:/MCU_Project/stm32/Target_tracking/user/My_Peripheral/OLED\oled.c **** 						sprintf(Point1_XY,"(%4d,%4d)",rectangle_XY[0],rectangle_XY[1]);
 3051              		.loc 1 824 7 view .LVU693
 3052 0038 274D     		ldr	r5, .L220+4
 3053 003a 2B4E     		ldr	r6, .L220+20
 3054 003c 6B68     		ldr	r3, [r5, #4]
 3055 003e 2A68     		ldr	r2, [r5]
 3056 0040 3146     		mov	r1, r6
 3057 0042 0BA8     		add	r0, sp, #44
 3058 0044 FFF7FEFF 		bl	sprintf
 3059              	.LVL328:
 825:E:/MCU_Project/stm32/Target_tracking/user/My_Peripheral/OLED\oled.c **** 						OLED_ShowString(0,0,Point1_XY,16,0);	
 3060              		.loc 1 825 7 view .LVU694
 3061 0048 0094     		str	r4, [sp]
 3062 004a 1023     		movs	r3, #16
 3063 004c 0BAA     		add	r2, sp, #44
 3064 004e 2146     		mov	r1, r4
 3065 0050 2046     		mov	r0, r4
 3066 0052 FFF7FEFF 		bl	OLED_ShowString
 3067              	.LVL329:
 826:E:/MCU_Project/stm32/Target_tracking/user/My_Peripheral/OLED\oled.c **** 					
 827:E:/MCU_Project/stm32/Target_tracking/user/My_Peripheral/OLED\oled.c **** 						memset(Point2_XY,'\0',10);
 3068              		.loc 1 827 7 view .LVU695
 3069 0056 0894     		str	r4, [sp, #32]
 3070 0058 0994     		str	r4, [sp, #36]
 3071 005a ADF82840 		strh	r4, [sp, #40]	@ movhi
 828:E:/MCU_Project/stm32/Target_tracking/user/My_Peripheral/OLED\oled.c **** 						sprintf(Point2_XY,"(%4d,%4d)",rectangle_XY[2],rectangle_XY[3]);
 3072              		.loc 1 828 7 view .LVU696
 3073 005e EB68     		ldr	r3, [r5, #12]
 3074 0060 AA68     		ldr	r2, [r5, #8]
 3075 0062 3146     		mov	r1, r6
 3076 0064 08A8     		add	r0, sp, #32
 3077 0066 FFF7FEFF 		bl	sprintf
 3078              	.LVL330:
 829:E:/MCU_Project/stm32/Target_tracking/user/My_Peripheral/OLED\oled.c **** 						OLED_ShowString(0,2,Point2_XY,16,0);
 3079              		.loc 1 829 7 view .LVU697
 3080 006a 0094     		str	r4, [sp]
 3081 006c 1023     		movs	r3, #16
 3082 006e 08AA     		add	r2, sp, #32
 3083 0070 0221     		movs	r1, #2
 3084 0072 2046     		mov	r0, r4
 3085 0074 FFF7FEFF 		bl	OLED_ShowString
ARM GAS  C:\Users\86390\AppData\Local\Temp\cc0lOyie.s 			page 75


 3086              	.LVL331:
 830:E:/MCU_Project/stm32/Target_tracking/user/My_Peripheral/OLED\oled.c **** 		
 831:E:/MCU_Project/stm32/Target_tracking/user/My_Peripheral/OLED\oled.c **** 						memset(Point3_XY,'\0',10);
 3087              		.loc 1 831 7 view .LVU698
 3088 0078 0594     		str	r4, [sp, #20]
 3089 007a 0694     		str	r4, [sp, #24]
 3090 007c ADF81C40 		strh	r4, [sp, #28]	@ movhi
 832:E:/MCU_Project/stm32/Target_tracking/user/My_Peripheral/OLED\oled.c **** 						sprintf(Point3_XY,"(%4d,%4d)",rectangle_XY[4],rectangle_XY[5]);
 3091              		.loc 1 832 7 view .LVU699
 3092 0080 6B69     		ldr	r3, [r5, #20]
 3093 0082 2A69     		ldr	r2, [r5, #16]
 3094 0084 3146     		mov	r1, r6
 3095 0086 05A8     		add	r0, sp, #20
 3096 0088 FFF7FEFF 		bl	sprintf
 3097              	.LVL332:
 833:E:/MCU_Project/stm32/Target_tracking/user/My_Peripheral/OLED\oled.c **** 						OLED_ShowString(0,4,Point3_XY,16,0);
 3098              		.loc 1 833 7 view .LVU700
 3099 008c 0094     		str	r4, [sp]
 3100 008e 1023     		movs	r3, #16
 3101 0090 05AA     		add	r2, sp, #20
 3102 0092 0421     		movs	r1, #4
 3103 0094 2046     		mov	r0, r4
 3104 0096 FFF7FEFF 		bl	OLED_ShowString
 3105              	.LVL333:
 834:E:/MCU_Project/stm32/Target_tracking/user/My_Peripheral/OLED\oled.c **** 		
 835:E:/MCU_Project/stm32/Target_tracking/user/My_Peripheral/OLED\oled.c **** 						memset(Point4_XY,'\0',10);
 3106              		.loc 1 835 7 view .LVU701
 3107 009a 0294     		str	r4, [sp, #8]
 3108 009c 0394     		str	r4, [sp, #12]
 3109 009e ADF81040 		strh	r4, [sp, #16]	@ movhi
 836:E:/MCU_Project/stm32/Target_tracking/user/My_Peripheral/OLED\oled.c **** 						sprintf(Point4_XY,"(%4d,%4d)",rectangle_XY[6],rectangle_XY[7]);
 3110              		.loc 1 836 7 view .LVU702
 3111 00a2 EB69     		ldr	r3, [r5, #28]
 3112 00a4 AA69     		ldr	r2, [r5, #24]
 3113 00a6 3146     		mov	r1, r6
 3114 00a8 02A8     		add	r0, sp, #8
 3115 00aa FFF7FEFF 		bl	sprintf
 3116              	.LVL334:
 837:E:/MCU_Project/stm32/Target_tracking/user/My_Peripheral/OLED\oled.c **** 						OLED_ShowString(0,6,Point4_XY,16,0);			
 3117              		.loc 1 837 7 view .LVU703
 3118 00ae 0094     		str	r4, [sp]
 3119 00b0 1023     		movs	r3, #16
 3120 00b2 02AA     		add	r2, sp, #8
 3121 00b4 0621     		movs	r1, #6
 3122 00b6 2046     		mov	r0, r4
 3123 00b8 FFF7FEFF 		bl	OLED_ShowString
 3124              	.LVL335:
 838:E:/MCU_Project/stm32/Target_tracking/user/My_Peripheral/OLED\oled.c **** 		
 839:E:/MCU_Project/stm32/Target_tracking/user/My_Peripheral/OLED\oled.c **** 						Key_Scan(&KeyNum);			/* 获取键码值 */
 3125              		.loc 1 839 7 view .LVU704
 3126 00bc 0B4C     		ldr	r4, .L220+24
 3127 00be 2046     		mov	r0, r4
 3128 00c0 FFF7FEFF 		bl	Key_Scan
 3129              	.LVL336:
 840:E:/MCU_Project/stm32/Target_tracking/user/My_Peripheral/OLED\oled.c **** 					
 841:E:/MCU_Project/stm32/Target_tracking/user/My_Peripheral/OLED\oled.c **** 						if(KeyNum == 4)
 3130              		.loc 1 841 7 view .LVU705
ARM GAS  C:\Users\86390\AppData\Local\Temp\cc0lOyie.s 			page 76


 3131              		.loc 1 841 17 is_stmt 0 view .LVU706
 3132 00c4 2378     		ldrb	r3, [r4]	@ zero_extendqisi2
 3133              		.loc 1 841 9 view .LVU707
 3134 00c6 042B     		cmp	r3, #4
 3135 00c8 9FD1     		bne	.L217
 842:E:/MCU_Project/stm32/Target_tracking/user/My_Peripheral/OLED\oled.c **** 						{
 843:E:/MCU_Project/stm32/Target_tracking/user/My_Peripheral/OLED\oled.c **** 								OLED_Clear();
 3136              		.loc 1 843 9 is_stmt 1 view .LVU708
 3137 00ca FFF7FEFF 		bl	OLED_Clear
 3138              	.LVL337:
 844:E:/MCU_Project/stm32/Target_tracking/user/My_Peripheral/OLED\oled.c **** 								break;
 3139              		.loc 1 844 9 view .LVU709
 845:E:/MCU_Project/stm32/Target_tracking/user/My_Peripheral/OLED\oled.c **** 						}
 846:E:/MCU_Project/stm32/Target_tracking/user/My_Peripheral/OLED\oled.c **** 				}
 847:E:/MCU_Project/stm32/Target_tracking/user/My_Peripheral/OLED\oled.c **** 			
 848:E:/MCU_Project/stm32/Target_tracking/user/My_Peripheral/OLED\oled.c **** 		}
 849:E:/MCU_Project/stm32/Target_tracking/user/My_Peripheral/OLED\oled.c **** }
 3140              		.loc 1 849 1 is_stmt 0 view .LVU710
 3141 00ce 0EB0     		add	sp, sp, #56
 3142              	.LCFI56:
 3143              		.cfi_def_cfa_offset 16
 3144              		@ sp needed
 3145 00d0 70BD     		pop	{r4, r5, r6, pc}
 3146              	.L221:
 3147 00d2 00BF     		.align	2
 3148              	.L220:
 3149 00d4 00000000 		.word	Data_StartGet
 3150 00d8 00000000 		.word	rectangle_XY
 3151 00dc 00000000 		.word	Data_FinishGet
 3152 00e0 00000000 		.word	Rectangle_Send
 3153 00e4 00000000 		.word	huart3
 3154 00e8 00000000 		.word	.LC3
 3155 00ec 00000000 		.word	KeyNum
 3156              		.cfi_endproc
 3157              	.LFE162:
 3159              		.global	My_ResetXY
 3160              		.global	GetOriginData_Flag
 3161              		.global	point_4
 3162              		.global	point_3
 3163              		.global	point_2
 3164              		.global	point_1
 3165              		.global	menu4
 3166              		.global	menu3
 3167              		.global	menu2
 3168              		.global	CMD_Data
 3169              		.section	.bss.GetOriginData_Flag,"aw",%nobits
 3172              	GetOriginData_Flag:
 3173 0000 00       		.space	1
 3174              		.section	.bss.My_ResetXY,"aw",%nobits
 3175              		.align	2
 3176              		.set	.LANCHOR5,. + 0
 3179              	My_ResetXY:
 3180 0000 00000000 		.space	4
 3181              		.section	.bss.Restart_Flag.0,"aw",%nobits
 3182              		.set	.LANCHOR6,. + 0
 3185              	Restart_Flag.0:
 3186 0000 00       		.space	1
ARM GAS  C:\Users\86390\AppData\Local\Temp\cc0lOyie.s 			page 77


 3187              		.section	.bss.menu2,"aw",%nobits
 3188              		.align	2
 3191              	menu2:
 3192 0000 00000000 		.space	4
 3193              		.section	.bss.menu3,"aw",%nobits
 3194              		.align	2
 3197              	menu3:
 3198 0000 00000000 		.space	4
 3199              		.section	.bss.menu4,"aw",%nobits
 3200              		.align	2
 3203              	menu4:
 3204 0000 00000000 		.space	4
 3205              		.section	.bss.point_1,"aw",%nobits
 3206              		.align	2
 3207              		.set	.LANCHOR1,. + 0
 3210              	point_1:
 3211 0000 00000000 		.space	9
 3211      00000000 
 3211      00
 3212              		.section	.bss.point_2,"aw",%nobits
 3213              		.align	2
 3214              		.set	.LANCHOR2,. + 0
 3217              	point_2:
 3218 0000 00000000 		.space	9
 3218      00000000 
 3218      00
 3219              		.section	.bss.point_3,"aw",%nobits
 3220              		.align	2
 3221              		.set	.LANCHOR3,. + 0
 3224              	point_3:
 3225 0000 00000000 		.space	9
 3225      00000000 
 3225      00
 3226              		.section	.bss.point_4,"aw",%nobits
 3227              		.align	2
 3228              		.set	.LANCHOR4,. + 0
 3231              	point_4:
 3232 0000 00000000 		.space	9
 3232      00000000 
 3232      00
 3233              		.section	.data.CMD_Data,"aw"
 3234              		.align	2
 3235              		.set	.LANCHOR0,. + 0
 3238              	CMD_Data:
 3239 0000 AED580A8 		.ascii	"\256\325\200\250?\323\000@\241\310\332\022\201\317\331"
 3239      3FD30040 
 3239      A1C8DA12 
 3239      81CFD9
 3240 000f F1DB40A4 		.ascii	"\361\333@\244\246\215\024\257"
 3240      A68D14AF 
 3241              		.text
 3242              	.Letext0:
 3243              		.file 2 "d:\\stm32_vscode_bag\\gnu\\arm-none-eabi\\include\\machine\\_default_types.h"
 3244              		.file 3 "d:\\stm32_vscode_bag\\gnu\\arm-none-eabi\\include\\sys\\_stdint.h"
 3245              		.file 4 "Drivers/CMSIS/Device/ST/STM32G4xx/Include/stm32g431xx.h"
 3246              		.file 5 "Drivers/STM32G4xx_HAL_Driver/Inc/stm32g4xx_hal_def.h"
 3247              		.file 6 "Drivers/STM32G4xx_HAL_Driver/Inc/stm32g4xx_hal_dma.h"
ARM GAS  C:\Users\86390\AppData\Local\Temp\cc0lOyie.s 			page 78


 3248              		.file 7 "Drivers/STM32G4xx_HAL_Driver/Inc/stm32g4xx_hal_i2c.h"
 3249              		.file 8 "Drivers/STM32G4xx_HAL_Driver/Inc/stm32g4xx_hal_uart.h"
 3250              		.file 9 "Core/Inc/main.h"
 3251              		.file 10 "E:/MCU_Project/stm32/Target_tracking/user/My_Peripheral/OLED/oledfont.h"
 3252              		.file 11 "E:/MCU_Project/stm32/Target_tracking/user/My_Peripheral/Servo/ring_buffer.h"
 3253              		.file 12 "E:/MCU_Project/stm32/Target_tracking/user/My_Peripheral/Servo/uart_servo_lite.h"
 3254              		.file 13 "E:/MCU_Project/stm32/Target_tracking/user/Laser_Move/Servo_Move.h"
 3255              		.file 14 "Core/Inc/usart.h"
 3256              		.file 15 "E:/MCU_Project/stm32/Target_tracking/user/My_Peripheral/OLED/oled.h"
 3257              		.file 16 "d:\\stm32_vscode_bag\\gnu\\arm-none-eabi\\include\\stdio.h"
 3258              		.file 17 "E:/MCU_Project/stm32/Target_tracking/user/My_Peripheral/KeyBoard/My_KeyBoard.h"
 3259              		.file 18 "Drivers/STM32G4xx_HAL_Driver/Inc/stm32g4xx_hal.h"
ARM GAS  C:\Users\86390\AppData\Local\Temp\cc0lOyie.s 			page 79

