ARM GAS  C:\Users\86390\AppData\Local\Temp\cc4iGm64.s 			page 1


   1              		.cpu cortex-m4
   2              		.arch armv7e-m
   3              		.fpu fpv4-sp-d16
   4              		.eabi_attribute 27, 1
   5              		.eabi_attribute 28, 1
   6              		.eabi_attribute 20, 1
   7              		.eabi_attribute 21, 1
   8              		.eabi_attribute 23, 3
   9              		.eabi_attribute 24, 1
  10              		.eabi_attribute 25, 1
  11              		.eabi_attribute 26, 1
  12              		.eabi_attribute 30, 1
  13              		.eabi_attribute 34, 1
  14              		.eabi_attribute 18, 4
  15              		.file	"Servo_Move.c"
  16              		.text
  17              	.Ltext0:
  18              		.cfi_sections	.debug_frame
  19              		.section	.text.Penstring_Locate,"ax",%progbits
  20              		.align	1
  21              		.global	Penstring_Locate
  22              		.syntax unified
  23              		.thumb
  24              		.thumb_func
  26              	Penstring_Locate:
  27              	.LFB135:
  28              		.file 1 "E:/MCU_Project/stm32/Target_tracking/user/Laser_Move/Servo_Move.c"
   1:E:/MCU_Project/stm32/Target_tracking/user/Laser_Move\Servo_Move.c **** #include "Servo_Move.h"
   2:E:/MCU_Project/stm32/Target_tracking/user/Laser_Move\Servo_Move.c **** 
   3:E:/MCU_Project/stm32/Target_tracking/user/Laser_Move\Servo_Move.c **** 
   4:E:/MCU_Project/stm32/Target_tracking/user/Laser_Move\Servo_Move.c **** uint16_t Locate_angleX[4],Locate_angleY[4];
   5:E:/MCU_Project/stm32/Target_tracking/user/Laser_Move\Servo_Move.c **** 
   6:E:/MCU_Project/stm32/Target_tracking/user/Laser_Move\Servo_Move.c **** uint16_t CenterLocate_angleX[4],CenterLocate_angleY[4];
   7:E:/MCU_Project/stm32/Target_tracking/user/Laser_Move\Servo_Move.c **** 
   8:E:/MCU_Project/stm32/Target_tracking/user/Laser_Move\Servo_Move.c **** uint16_t Delay_time,MoveStop_Flag=0,MoveStart_Flag=0;
   9:E:/MCU_Project/stm32/Target_tracking/user/Laser_Move\Servo_Move.c **** 
  10:E:/MCU_Project/stm32/Target_tracking/user/Laser_Move\Servo_Move.c **** posi_pid X_Pid;		/* 下舵机pid */
  11:E:/MCU_Project/stm32/Target_tracking/user/Laser_Move\Servo_Move.c **** posi_pid Y_Pid;		/* 上舵机pid */
  12:E:/MCU_Project/stm32/Target_tracking/user/Laser_Move\Servo_Move.c **** 
  13:E:/MCU_Project/stm32/Target_tracking/user/Laser_Move\Servo_Move.c **** float RelaServo_Angle[2];
  14:E:/MCU_Project/stm32/Target_tracking/user/Laser_Move\Servo_Move.c **** 
  15:E:/MCU_Project/stm32/Target_tracking/user/Laser_Move\Servo_Move.c **** 
  16:E:/MCU_Project/stm32/Target_tracking/user/Laser_Move\Servo_Move.c **** /* 铅笔线框四点记录 */
  17:E:/MCU_Project/stm32/Target_tracking/user/Laser_Move\Servo_Move.c **** void Penstring_Locate(void)
  18:E:/MCU_Project/stm32/Target_tracking/user/Laser_Move\Servo_Move.c **** {
  29              		.loc 1 18 1 view -0
  30              		.cfi_startproc
  31              		@ args = 0, pretend = 0, frame = 0
  32              		@ frame_needed = 0, uses_anonymous_args = 0
  33 0000 38B5     		push	{r3, r4, r5, lr}
  34              	.LCFI0:
  35              		.cfi_def_cfa_offset 16
  36              		.cfi_offset 3, -16
  37              		.cfi_offset 4, -12
  38              		.cfi_offset 5, -8
  39              		.cfi_offset 14, -4
  19:E:/MCU_Project/stm32/Target_tracking/user/Laser_Move\Servo_Move.c **** //		Key_Scan(&KeyNum);			/* 获取键码值 */
ARM GAS  C:\Users\86390\AppData\Local\Temp\cc4iGm64.s 			page 2


  20:E:/MCU_Project/stm32/Target_tracking/user/Laser_Move\Servo_Move.c **** 		
  21:E:/MCU_Project/stm32/Target_tracking/user/Laser_Move\Servo_Move.c **** 		if(KeyNum>=5 && KeyNum<=8)		
  40              		.loc 1 21 3 view .LVU1
  41              		.loc 1 21 16 is_stmt 0 view .LVU2
  42 0002 1D4B     		ldr	r3, .L7
  43 0004 1A78     		ldrb	r2, [r3]	@ zero_extendqisi2
  44 0006 531F     		subs	r3, r2, #5
  45 0008 DBB2     		uxtb	r3, r3
  46              		.loc 1 21 5 view .LVU3
  47 000a 032B     		cmp	r3, #3
  48 000c 07D9     		bls	.L5
  49              	.L2:
  22:E:/MCU_Project/stm32/Target_tracking/user/Laser_Move\Servo_Move.c **** 		{
  23:E:/MCU_Project/stm32/Target_tracking/user/Laser_Move\Servo_Move.c **** 				Locate_angleX[KeyNum-5] = USL_GETPositionVal(servoUsart,sid_1);		/* 下舵机旋转角度获取 */
  24:E:/MCU_Project/stm32/Target_tracking/user/Laser_Move\Servo_Move.c **** 				Locate_angleY[KeyNum-5] = USL_GETPositionVal(servoUsart,sid_2);		/* 上舵机旋转角度获取 */
  25:E:/MCU_Project/stm32/Target_tracking/user/Laser_Move\Servo_Move.c **** 		}
  26:E:/MCU_Project/stm32/Target_tracking/user/Laser_Move\Servo_Move.c **** 		
  27:E:/MCU_Project/stm32/Target_tracking/user/Laser_Move\Servo_Move.c **** 		if(KeyNum>=13 && KeyNum<=16)
  50              		.loc 1 27 3 is_stmt 1 view .LVU4
  51              		.loc 1 27 17 is_stmt 0 view .LVU5
  52 000e 1A4B     		ldr	r3, .L7
  53 0010 1A78     		ldrb	r2, [r3]	@ zero_extendqisi2
  54 0012 A2F10D03 		sub	r3, r2, #13
  55 0016 DBB2     		uxtb	r3, r3
  56              		.loc 1 27 5 view .LVU6
  57 0018 032B     		cmp	r3, #3
  58 001a 16D9     		bls	.L6
  59              	.L1:
  28:E:/MCU_Project/stm32/Target_tracking/user/Laser_Move\Servo_Move.c **** 		{
  29:E:/MCU_Project/stm32/Target_tracking/user/Laser_Move\Servo_Move.c **** 				CenterLocate_angleX[KeyNum-13] = USL_GETPositionVal(servoUsart,sid_1);		/* 下舵机旋转角度获取 *
  30:E:/MCU_Project/stm32/Target_tracking/user/Laser_Move\Servo_Move.c **** 				CenterLocate_angleY[KeyNum-13] = USL_GETPositionVal(servoUsart,sid_2);		/* 上舵机旋转角度获取 *
  31:E:/MCU_Project/stm32/Target_tracking/user/Laser_Move\Servo_Move.c **** 		}
  32:E:/MCU_Project/stm32/Target_tracking/user/Laser_Move\Servo_Move.c **** }
  60              		.loc 1 32 1 view .LVU7
  61 001c 38BD     		pop	{r3, r4, r5, pc}
  62              	.L5:
  23:E:/MCU_Project/stm32/Target_tracking/user/Laser_Move\Servo_Move.c **** 				Locate_angleY[KeyNum-5] = USL_GETPositionVal(servoUsart,sid_2);		/* 上舵机旋转角度获取 */
  63              		.loc 1 23 5 is_stmt 1 view .LVU8
  23:E:/MCU_Project/stm32/Target_tracking/user/Laser_Move\Servo_Move.c **** 				Locate_angleY[KeyNum-5] = USL_GETPositionVal(servoUsart,sid_2);		/* 上舵机旋转角度获取 */
  64              		.loc 1 23 25 is_stmt 0 view .LVU9
  65 001e 541F     		subs	r4, r2, #5
  23:E:/MCU_Project/stm32/Target_tracking/user/Laser_Move\Servo_Move.c **** 				Locate_angleY[KeyNum-5] = USL_GETPositionVal(servoUsart,sid_2);		/* 上舵机旋转角度获取 */
  66              		.loc 1 23 31 view .LVU10
  67 0020 164D     		ldr	r5, .L7+4
  68 0022 174B     		ldr	r3, .L7+8
  69 0024 1978     		ldrb	r1, [r3]	@ zero_extendqisi2
  70 0026 2868     		ldr	r0, [r5]
  71 0028 FFF7FEFF 		bl	USL_GETPositionVal
  72              	.LVL0:
  23:E:/MCU_Project/stm32/Target_tracking/user/Laser_Move\Servo_Move.c **** 				Locate_angleY[KeyNum-5] = USL_GETPositionVal(servoUsart,sid_2);		/* 上舵机旋转角度获取 */
  73              		.loc 1 23 29 view .LVU11
  74 002c 154B     		ldr	r3, .L7+12
  75 002e 23F81400 		strh	r0, [r3, r4, lsl #1]	@ movhi
  24:E:/MCU_Project/stm32/Target_tracking/user/Laser_Move\Servo_Move.c **** 		}
  76              		.loc 1 24 5 is_stmt 1 view .LVU12
  24:E:/MCU_Project/stm32/Target_tracking/user/Laser_Move\Servo_Move.c **** 		}
  77              		.loc 1 24 25 is_stmt 0 view .LVU13
ARM GAS  C:\Users\86390\AppData\Local\Temp\cc4iGm64.s 			page 3


  78 0032 114B     		ldr	r3, .L7
  79 0034 1C78     		ldrb	r4, [r3]	@ zero_extendqisi2
  80 0036 053C     		subs	r4, r4, #5
  24:E:/MCU_Project/stm32/Target_tracking/user/Laser_Move\Servo_Move.c **** 		}
  81              		.loc 1 24 31 view .LVU14
  82 0038 134B     		ldr	r3, .L7+16
  83 003a 1978     		ldrb	r1, [r3]	@ zero_extendqisi2
  84 003c 2868     		ldr	r0, [r5]
  85 003e FFF7FEFF 		bl	USL_GETPositionVal
  86              	.LVL1:
  24:E:/MCU_Project/stm32/Target_tracking/user/Laser_Move\Servo_Move.c **** 		}
  87              		.loc 1 24 29 view .LVU15
  88 0042 124B     		ldr	r3, .L7+20
  89 0044 23F81400 		strh	r0, [r3, r4, lsl #1]	@ movhi
  90 0048 E1E7     		b	.L2
  91              	.L6:
  29:E:/MCU_Project/stm32/Target_tracking/user/Laser_Move\Servo_Move.c **** 				CenterLocate_angleY[KeyNum-13] = USL_GETPositionVal(servoUsart,sid_2);		/* 上舵机旋转角度获取 *
  92              		.loc 1 29 5 is_stmt 1 view .LVU16
  29:E:/MCU_Project/stm32/Target_tracking/user/Laser_Move\Servo_Move.c **** 				CenterLocate_angleY[KeyNum-13] = USL_GETPositionVal(servoUsart,sid_2);		/* 上舵机旋转角度获取 *
  93              		.loc 1 29 31 is_stmt 0 view .LVU17
  94 004a A2F10D04 		sub	r4, r2, #13
  29:E:/MCU_Project/stm32/Target_tracking/user/Laser_Move\Servo_Move.c **** 				CenterLocate_angleY[KeyNum-13] = USL_GETPositionVal(servoUsart,sid_2);		/* 上舵机旋转角度获取 *
  95              		.loc 1 29 38 view .LVU18
  96 004e 0B4D     		ldr	r5, .L7+4
  97 0050 0B4B     		ldr	r3, .L7+8
  98 0052 1978     		ldrb	r1, [r3]	@ zero_extendqisi2
  99 0054 2868     		ldr	r0, [r5]
 100 0056 FFF7FEFF 		bl	USL_GETPositionVal
 101              	.LVL2:
  29:E:/MCU_Project/stm32/Target_tracking/user/Laser_Move\Servo_Move.c **** 				CenterLocate_angleY[KeyNum-13] = USL_GETPositionVal(servoUsart,sid_2);		/* 上舵机旋转角度获取 *
 102              		.loc 1 29 36 view .LVU19
 103 005a 0D4B     		ldr	r3, .L7+24
 104 005c 23F81400 		strh	r0, [r3, r4, lsl #1]	@ movhi
  30:E:/MCU_Project/stm32/Target_tracking/user/Laser_Move\Servo_Move.c **** 		}
 105              		.loc 1 30 5 is_stmt 1 view .LVU20
  30:E:/MCU_Project/stm32/Target_tracking/user/Laser_Move\Servo_Move.c **** 		}
 106              		.loc 1 30 31 is_stmt 0 view .LVU21
 107 0060 054B     		ldr	r3, .L7
 108 0062 1C78     		ldrb	r4, [r3]	@ zero_extendqisi2
 109 0064 0D3C     		subs	r4, r4, #13
  30:E:/MCU_Project/stm32/Target_tracking/user/Laser_Move\Servo_Move.c **** 		}
 110              		.loc 1 30 38 view .LVU22
 111 0066 084B     		ldr	r3, .L7+16
 112 0068 1978     		ldrb	r1, [r3]	@ zero_extendqisi2
 113 006a 2868     		ldr	r0, [r5]
 114 006c FFF7FEFF 		bl	USL_GETPositionVal
 115              	.LVL3:
  30:E:/MCU_Project/stm32/Target_tracking/user/Laser_Move\Servo_Move.c **** 		}
 116              		.loc 1 30 36 view .LVU23
 117 0070 084B     		ldr	r3, .L7+28
 118 0072 23F81400 		strh	r0, [r3, r4, lsl #1]	@ movhi
 119              		.loc 1 32 1 view .LVU24
 120 0076 D1E7     		b	.L1
 121              	.L8:
 122              		.align	2
 123              	.L7:
 124 0078 00000000 		.word	KeyNum
ARM GAS  C:\Users\86390\AppData\Local\Temp\cc4iGm64.s 			page 4


 125 007c 00000000 		.word	servoUsart
 126 0080 00000000 		.word	sid_1
 127 0084 00000000 		.word	.LANCHOR0
 128 0088 00000000 		.word	sid_2
 129 008c 00000000 		.word	.LANCHOR1
 130 0090 00000000 		.word	.LANCHOR2
 131 0094 00000000 		.word	.LANCHOR3
 132              		.cfi_endproc
 133              	.LFE135:
 135              		.global	__aeabi_i2d
 136              		.global	__aeabi_dmul
 137              		.global	__aeabi_dcmplt
 138              		.section	.text.Penstring_Moving_1,"ax",%progbits
 139              		.align	1
 140              		.global	Penstring_Moving_1
 141              		.syntax unified
 142              		.thumb
 143              		.thumb_func
 145              	Penstring_Moving_1:
 146              	.LFB136:
  33:E:/MCU_Project/stm32/Target_tracking/user/Laser_Move\Servo_Move.c **** 
  34:E:/MCU_Project/stm32/Target_tracking/user/Laser_Move\Servo_Move.c **** /* 铅笔线运动-方案一(四对角采点)*/
  35:E:/MCU_Project/stm32/Target_tracking/user/Laser_Move\Servo_Move.c **** void Penstring_Moving_1(void)
  36:E:/MCU_Project/stm32/Target_tracking/user/Laser_Move\Servo_Move.c **** {
 147              		.loc 1 36 1 is_stmt 1 view -0
 148              		.cfi_startproc
 149              		@ args = 0, pretend = 0, frame = 0
 150              		@ frame_needed = 0, uses_anonymous_args = 0
 151 0000 F8B5     		push	{r3, r4, r5, r6, r7, lr}
 152              	.LCFI1:
 153              		.cfi_def_cfa_offset 24
 154              		.cfi_offset 3, -24
 155              		.cfi_offset 4, -20
 156              		.cfi_offset 5, -16
 157              		.cfi_offset 6, -12
 158              		.cfi_offset 7, -8
 159              		.cfi_offset 14, -4
  37:E:/MCU_Project/stm32/Target_tracking/user/Laser_Move\Servo_Move.c **** 			for(uint16_t cnt=0;cnt<(Locate_angleY[1]-Locate_angleY[0])*0.2;cnt++)		/* 左边框 */
 160              		.loc 1 37 4 view .LVU26
 161              	.LBB2:
 162              		.loc 1 37 8 view .LVU27
 163              	.LVL4:
 164              		.loc 1 37 17 is_stmt 0 view .LVU28
 165 0002 0024     		movs	r4, #0
 166              		.loc 1 37 4 view .LVU29
 167 0004 04E0     		b	.L10
 168              	.LVL5:
 169              	.L11:
  38:E:/MCU_Project/stm32/Target_tracking/user/Laser_Move\Servo_Move.c **** 			{
  39:E:/MCU_Project/stm32/Target_tracking/user/Laser_Move\Servo_Move.c **** 					USL_SetServoAngle(servoUsart, sid_1, (Locate_angleX[0]+Locate_angleX[1]+CenterLocate_angleX[0]
  40:E:/MCU_Project/stm32/Target_tracking/user/Laser_Move\Servo_Move.c **** 				  USL_SetServoAngle(servoUsart, sid_2, Locate_angleY[0]+5*(cnt+1), 0);
  41:E:/MCU_Project/stm32/Target_tracking/user/Laser_Move\Servo_Move.c **** 					LASER_RESET_Start();
  42:E:/MCU_Project/stm32/Target_tracking/user/Laser_Move\Servo_Move.c **** 					if(cnt<=0) HAL_Delay(250);
  43:E:/MCU_Project/stm32/Target_tracking/user/Laser_Move\Servo_Move.c **** 					else HAL_Delay(50);
 170              		.loc 1 43 11 is_stmt 1 view .LVU30
 171 0006 3220     		movs	r0, #50
 172 0008 FFF7FEFF 		bl	HAL_Delay
ARM GAS  C:\Users\86390\AppData\Local\Temp\cc4iGm64.s 			page 5


 173              	.LVL6:
 174              	.L12:
  37:E:/MCU_Project/stm32/Target_tracking/user/Laser_Move\Servo_Move.c **** 			for(uint16_t cnt=0;cnt<(Locate_angleY[1]-Locate_angleY[0])*0.2;cnt++)		/* 左边框 */
 175              		.loc 1 37 67 discriminator 2 view .LVU31
  37:E:/MCU_Project/stm32/Target_tracking/user/Laser_Move\Servo_Move.c **** 			for(uint16_t cnt=0;cnt<(Locate_angleY[1]-Locate_angleY[0])*0.2;cnt++)		/* 左边框 */
 176              		.loc 1 37 70 is_stmt 0 discriminator 2 view .LVU32
 177 000c 0134     		adds	r4, r4, #1
 178              	.LVL7:
  37:E:/MCU_Project/stm32/Target_tracking/user/Laser_Move\Servo_Move.c **** 			for(uint16_t cnt=0;cnt<(Locate_angleY[1]-Locate_angleY[0])*0.2;cnt++)		/* 左边框 */
 179              		.loc 1 37 70 discriminator 2 view .LVU33
 180 000e A4B2     		uxth	r4, r4
 181              	.LVL8:
 182              	.L10:
  37:E:/MCU_Project/stm32/Target_tracking/user/Laser_Move\Servo_Move.c **** 			for(uint16_t cnt=0;cnt<(Locate_angleY[1]-Locate_angleY[0])*0.2;cnt++)		/* 左边框 */
 183              		.loc 1 37 23 is_stmt 1 discriminator 1 view .LVU34
  37:E:/MCU_Project/stm32/Target_tracking/user/Laser_Move\Servo_Move.c **** 			for(uint16_t cnt=0;cnt<(Locate_angleY[1]-Locate_angleY[0])*0.2;cnt++)		/* 左边框 */
 184              		.loc 1 37 26 is_stmt 0 discriminator 1 view .LVU35
 185 0010 2046     		mov	r0, r4
 186 0012 FFF7FEFF 		bl	__aeabi_i2d
 187              	.LVL9:
 188 0016 0646     		mov	r6, r0
 189 0018 0F46     		mov	r7, r1
  37:E:/MCU_Project/stm32/Target_tracking/user/Laser_Move\Servo_Move.c **** 			for(uint16_t cnt=0;cnt<(Locate_angleY[1]-Locate_angleY[0])*0.2;cnt++)		/* 左边框 */
 190              		.loc 1 37 41 discriminator 1 view .LVU36
 191 001a 934B     		ldr	r3, .L31+8
 192 001c 5888     		ldrh	r0, [r3, #2]
  37:E:/MCU_Project/stm32/Target_tracking/user/Laser_Move\Servo_Move.c **** 			for(uint16_t cnt=0;cnt<(Locate_angleY[1]-Locate_angleY[0])*0.2;cnt++)		/* 左边框 */
 193              		.loc 1 37 58 discriminator 1 view .LVU37
 194 001e 1B88     		ldrh	r3, [r3]
  37:E:/MCU_Project/stm32/Target_tracking/user/Laser_Move\Servo_Move.c **** 			for(uint16_t cnt=0;cnt<(Locate_angleY[1]-Locate_angleY[0])*0.2;cnt++)		/* 左边框 */
 195              		.loc 1 37 62 discriminator 1 view .LVU38
 196 0020 C01A     		subs	r0, r0, r3
 197 0022 FFF7FEFF 		bl	__aeabi_i2d
 198              	.LVL10:
 199 0026 8EA3     		adr	r3, .L31
 200 0028 D3E90023 		ldrd	r2, [r3]
 201 002c FFF7FEFF 		bl	__aeabi_dmul
 202              	.LVL11:
 203 0030 0246     		mov	r2, r0
 204 0032 0B46     		mov	r3, r1
  37:E:/MCU_Project/stm32/Target_tracking/user/Laser_Move\Servo_Move.c **** 			for(uint16_t cnt=0;cnt<(Locate_angleY[1]-Locate_angleY[0])*0.2;cnt++)		/* 左边框 */
 205              		.loc 1 37 4 discriminator 1 view .LVU39
 206 0034 3046     		mov	r0, r6
 207 0036 3946     		mov	r1, r7
 208 0038 FFF7FEFF 		bl	__aeabi_dcmplt
 209              	.LVL12:
 210 003c 60B3     		cbz	r0, .L27
  39:E:/MCU_Project/stm32/Target_tracking/user/Laser_Move\Servo_Move.c **** 				  USL_SetServoAngle(servoUsart, sid_2, Locate_angleY[0]+5*(cnt+1), 0);
 211              		.loc 1 39 6 is_stmt 1 view .LVU40
  39:E:/MCU_Project/stm32/Target_tracking/user/Laser_Move\Servo_Move.c **** 				  USL_SetServoAngle(servoUsart, sid_2, Locate_angleY[0]+5*(cnt+1), 0);
 212              		.loc 1 39 57 is_stmt 0 view .LVU41
 213 003e 8B4A     		ldr	r2, .L31+12
 214 0040 1388     		ldrh	r3, [r2]
  39:E:/MCU_Project/stm32/Target_tracking/user/Laser_Move\Servo_Move.c **** 				  USL_SetServoAngle(servoUsart, sid_2, Locate_angleY[0]+5*(cnt+1), 0);
 215              		.loc 1 39 74 view .LVU42
 216 0042 5288     		ldrh	r2, [r2, #2]
  39:E:/MCU_Project/stm32/Target_tracking/user/Laser_Move\Servo_Move.c **** 				  USL_SetServoAngle(servoUsart, sid_2, Locate_angleY[0]+5*(cnt+1), 0);
ARM GAS  C:\Users\86390\AppData\Local\Temp\cc4iGm64.s 			page 6


 217              		.loc 1 39 60 view .LVU43
 218 0044 1344     		add	r3, r3, r2
  39:E:/MCU_Project/stm32/Target_tracking/user/Laser_Move\Servo_Move.c **** 				  USL_SetServoAngle(servoUsart, sid_2, Locate_angleY[0]+5*(cnt+1), 0);
 219              		.loc 1 39 97 view .LVU44
 220 0046 8A4A     		ldr	r2, .L31+16
 221 0048 1288     		ldrh	r2, [r2]
  39:E:/MCU_Project/stm32/Target_tracking/user/Laser_Move\Servo_Move.c **** 				  USL_SetServoAngle(servoUsart, sid_2, Locate_angleY[0]+5*(cnt+1), 0);
 222              		.loc 1 39 77 view .LVU45
 223 004a 1344     		add	r3, r3, r2
  39:E:/MCU_Project/stm32/Target_tracking/user/Laser_Move\Servo_Move.c **** 				  USL_SetServoAngle(servoUsart, sid_2, Locate_angleY[0]+5*(cnt+1), 0);
 224              		.loc 1 39 101 view .LVU46
 225 004c 894A     		ldr	r2, .L31+20
 226 004e 82FB0323 		smull	r2, r3, r2, r3
 227 0052 00EE103A 		vmov	s0, r3	@ int
  39:E:/MCU_Project/stm32/Target_tracking/user/Laser_Move\Servo_Move.c **** 				  USL_SetServoAngle(servoUsart, sid_2, Locate_angleY[0]+5*(cnt+1), 0);
 228              		.loc 1 39 6 view .LVU47
 229 0056 884D     		ldr	r5, .L31+24
 230 0058 0022     		movs	r2, #0
 231 005a B8EEC00A 		vcvt.f32.s32	s0, s0
 232 005e 874B     		ldr	r3, .L31+28
 233 0060 1978     		ldrb	r1, [r3]	@ zero_extendqisi2
 234 0062 2868     		ldr	r0, [r5]
 235 0064 FFF7FEFF 		bl	USL_SetServoAngle
 236              	.LVL13:
  40:E:/MCU_Project/stm32/Target_tracking/user/Laser_Move\Servo_Move.c **** 					LASER_RESET_Start();
 237              		.loc 1 40 7 is_stmt 1 view .LVU48
  40:E:/MCU_Project/stm32/Target_tracking/user/Laser_Move\Servo_Move.c **** 					LASER_RESET_Start();
 238              		.loc 1 40 57 is_stmt 0 view .LVU49
 239 0068 7F4B     		ldr	r3, .L31+8
 240 006a 1A88     		ldrh	r2, [r3]
  40:E:/MCU_Project/stm32/Target_tracking/user/Laser_Move\Servo_Move.c **** 					LASER_RESET_Start();
 241              		.loc 1 40 67 view .LVU50
 242 006c 631C     		adds	r3, r4, #1
  40:E:/MCU_Project/stm32/Target_tracking/user/Laser_Move\Servo_Move.c **** 					LASER_RESET_Start();
 243              		.loc 1 40 62 view .LVU51
 244 006e 03EB8303 		add	r3, r3, r3, lsl #2
  40:E:/MCU_Project/stm32/Target_tracking/user/Laser_Move\Servo_Move.c **** 					LASER_RESET_Start();
 245              		.loc 1 40 60 view .LVU52
 246 0072 D318     		adds	r3, r2, r3
 247 0074 00EE103A 		vmov	s0, r3	@ int
  40:E:/MCU_Project/stm32/Target_tracking/user/Laser_Move\Servo_Move.c **** 					LASER_RESET_Start();
 248              		.loc 1 40 7 view .LVU53
 249 0078 0022     		movs	r2, #0
 250 007a B8EEC00A 		vcvt.f32.s32	s0, s0
 251 007e 804B     		ldr	r3, .L31+32
 252 0080 1978     		ldrb	r1, [r3]	@ zero_extendqisi2
 253 0082 2868     		ldr	r0, [r5]
 254 0084 FFF7FEFF 		bl	USL_SetServoAngle
 255              	.LVL14:
  41:E:/MCU_Project/stm32/Target_tracking/user/Laser_Move\Servo_Move.c **** 					if(cnt<=0) HAL_Delay(250);
 256              		.loc 1 41 6 is_stmt 1 view .LVU54
 257 0088 FFF7FEFF 		bl	LASER_RESET_Start
 258              	.LVL15:
  42:E:/MCU_Project/stm32/Target_tracking/user/Laser_Move\Servo_Move.c **** 					else HAL_Delay(50);
 259              		.loc 1 42 6 view .LVU55
  42:E:/MCU_Project/stm32/Target_tracking/user/Laser_Move\Servo_Move.c **** 					else HAL_Delay(50);
 260              		.loc 1 42 8 is_stmt 0 view .LVU56
ARM GAS  C:\Users\86390\AppData\Local\Temp\cc4iGm64.s 			page 7


 261 008c 002C     		cmp	r4, #0
 262 008e BAD1     		bne	.L11
  42:E:/MCU_Project/stm32/Target_tracking/user/Laser_Move\Servo_Move.c **** 					else HAL_Delay(50);
 263              		.loc 1 42 17 is_stmt 1 discriminator 1 view .LVU57
 264 0090 FA20     		movs	r0, #250
 265 0092 FFF7FEFF 		bl	HAL_Delay
 266              	.LVL16:
 267 0096 B9E7     		b	.L12
 268              	.L27:
 269              	.LBE2:
 270              	.LBB3:
  44:E:/MCU_Project/stm32/Target_tracking/user/Laser_Move\Servo_Move.c **** 			}
  45:E:/MCU_Project/stm32/Target_tracking/user/Laser_Move\Servo_Move.c **** 			for(uint16_t cnt=0;cnt<(Locate_angleX[1]-Locate_angleX[2])*0.2;cnt++)		/* 上边框 */		
 271              		.loc 1 45 17 is_stmt 0 view .LVU58
 272 0098 0024     		movs	r4, #0
 273              	.LVL17:
 274              		.loc 1 45 17 view .LVU59
 275 009a 04E0     		b	.L14
 276              	.LVL18:
 277              	.L15:
  46:E:/MCU_Project/stm32/Target_tracking/user/Laser_Move\Servo_Move.c **** 			{
  47:E:/MCU_Project/stm32/Target_tracking/user/Laser_Move\Servo_Move.c **** 					USL_SetServoAngle(servoUsart, sid_1, Locate_angleX[1]-5*(cnt+1), 0);										
  48:E:/MCU_Project/stm32/Target_tracking/user/Laser_Move\Servo_Move.c **** 				  USL_SetServoAngle(servoUsart, sid_2, (Locate_angleY[1]+Locate_angleY[2]+CenterLocate_angleY[1
  49:E:/MCU_Project/stm32/Target_tracking/user/Laser_Move\Servo_Move.c **** 					LASER_RESET_Start();
  50:E:/MCU_Project/stm32/Target_tracking/user/Laser_Move\Servo_Move.c **** 					if(cnt<=0) HAL_Delay(250);
  51:E:/MCU_Project/stm32/Target_tracking/user/Laser_Move\Servo_Move.c **** 					else HAL_Delay(50);
 278              		.loc 1 51 11 is_stmt 1 view .LVU60
 279 009c 3220     		movs	r0, #50
 280 009e FFF7FEFF 		bl	HAL_Delay
 281              	.LVL19:
 282              	.L16:
  45:E:/MCU_Project/stm32/Target_tracking/user/Laser_Move\Servo_Move.c **** 			{
 283              		.loc 1 45 67 discriminator 2 view .LVU61
  45:E:/MCU_Project/stm32/Target_tracking/user/Laser_Move\Servo_Move.c **** 			{
 284              		.loc 1 45 70 is_stmt 0 discriminator 2 view .LVU62
 285 00a2 0134     		adds	r4, r4, #1
 286              	.LVL20:
  45:E:/MCU_Project/stm32/Target_tracking/user/Laser_Move\Servo_Move.c **** 			{
 287              		.loc 1 45 70 discriminator 2 view .LVU63
 288 00a4 A4B2     		uxth	r4, r4
 289              	.LVL21:
 290              	.L14:
  45:E:/MCU_Project/stm32/Target_tracking/user/Laser_Move\Servo_Move.c **** 			{
 291              		.loc 1 45 23 is_stmt 1 discriminator 1 view .LVU64
  45:E:/MCU_Project/stm32/Target_tracking/user/Laser_Move\Servo_Move.c **** 			{
 292              		.loc 1 45 26 is_stmt 0 discriminator 1 view .LVU65
 293 00a6 2046     		mov	r0, r4
 294 00a8 FFF7FEFF 		bl	__aeabi_i2d
 295              	.LVL22:
 296 00ac 0646     		mov	r6, r0
 297 00ae 0F46     		mov	r7, r1
  45:E:/MCU_Project/stm32/Target_tracking/user/Laser_Move\Servo_Move.c **** 			{
 298              		.loc 1 45 41 discriminator 1 view .LVU66
 299 00b0 6E4B     		ldr	r3, .L31+12
 300 00b2 5D88     		ldrh	r5, [r3, #2]
  45:E:/MCU_Project/stm32/Target_tracking/user/Laser_Move\Servo_Move.c **** 			{
 301              		.loc 1 45 58 discriminator 1 view .LVU67
ARM GAS  C:\Users\86390\AppData\Local\Temp\cc4iGm64.s 			page 8


 302 00b4 9888     		ldrh	r0, [r3, #4]
  45:E:/MCU_Project/stm32/Target_tracking/user/Laser_Move\Servo_Move.c **** 			{
 303              		.loc 1 45 62 discriminator 1 view .LVU68
 304 00b6 281A     		subs	r0, r5, r0
 305 00b8 FFF7FEFF 		bl	__aeabi_i2d
 306              	.LVL23:
 307 00bc 68A3     		adr	r3, .L31
 308 00be D3E90023 		ldrd	r2, [r3]
 309 00c2 FFF7FEFF 		bl	__aeabi_dmul
 310              	.LVL24:
 311 00c6 0246     		mov	r2, r0
 312 00c8 0B46     		mov	r3, r1
  45:E:/MCU_Project/stm32/Target_tracking/user/Laser_Move\Servo_Move.c **** 			{
 313              		.loc 1 45 4 discriminator 1 view .LVU69
 314 00ca 3046     		mov	r0, r6
 315 00cc 3946     		mov	r1, r7
 316 00ce FFF7FEFF 		bl	__aeabi_dcmplt
 317              	.LVL25:
 318 00d2 60B3     		cbz	r0, .L28
  47:E:/MCU_Project/stm32/Target_tracking/user/Laser_Move\Servo_Move.c **** 				  USL_SetServoAngle(servoUsart, sid_2, (Locate_angleY[1]+Locate_angleY[2]+CenterLocate_angleY[1
 319              		.loc 1 47 6 is_stmt 1 view .LVU70
  47:E:/MCU_Project/stm32/Target_tracking/user/Laser_Move\Servo_Move.c **** 				  USL_SetServoAngle(servoUsart, sid_2, (Locate_angleY[1]+Locate_angleY[2]+CenterLocate_angleY[1
 320              		.loc 1 47 66 is_stmt 0 view .LVU71
 321 00d4 631C     		adds	r3, r4, #1
  47:E:/MCU_Project/stm32/Target_tracking/user/Laser_Move\Servo_Move.c **** 				  USL_SetServoAngle(servoUsart, sid_2, (Locate_angleY[1]+Locate_angleY[2]+CenterLocate_angleY[1
 322              		.loc 1 47 61 view .LVU72
 323 00d6 C3EB8372 		rsb	r2, r3, r3, lsl #30
 324 00da C3EB8203 		rsb	r3, r3, r2, lsl #2
  47:E:/MCU_Project/stm32/Target_tracking/user/Laser_Move\Servo_Move.c **** 				  USL_SetServoAngle(servoUsart, sid_2, (Locate_angleY[1]+Locate_angleY[2]+CenterLocate_angleY[1
 325              		.loc 1 47 59 view .LVU73
 326 00de 2B44     		add	r3, r3, r5
 327 00e0 00EE103A 		vmov	s0, r3	@ int
  47:E:/MCU_Project/stm32/Target_tracking/user/Laser_Move\Servo_Move.c **** 				  USL_SetServoAngle(servoUsart, sid_2, (Locate_angleY[1]+Locate_angleY[2]+CenterLocate_angleY[1
 328              		.loc 1 47 6 view .LVU74
 329 00e4 644D     		ldr	r5, .L31+24
 330 00e6 0022     		movs	r2, #0
 331 00e8 B8EEC00A 		vcvt.f32.s32	s0, s0
 332 00ec 634B     		ldr	r3, .L31+28
 333 00ee 1978     		ldrb	r1, [r3]	@ zero_extendqisi2
 334 00f0 2868     		ldr	r0, [r5]
 335 00f2 FFF7FEFF 		bl	USL_SetServoAngle
 336              	.LVL26:
  48:E:/MCU_Project/stm32/Target_tracking/user/Laser_Move\Servo_Move.c **** 					LASER_RESET_Start();
 337              		.loc 1 48 7 is_stmt 1 view .LVU75
  48:E:/MCU_Project/stm32/Target_tracking/user/Laser_Move\Servo_Move.c **** 					LASER_RESET_Start();
 338              		.loc 1 48 58 is_stmt 0 view .LVU76
 339 00f6 5C4A     		ldr	r2, .L31+8
 340 00f8 5388     		ldrh	r3, [r2, #2]
  48:E:/MCU_Project/stm32/Target_tracking/user/Laser_Move\Servo_Move.c **** 					LASER_RESET_Start();
 341              		.loc 1 48 75 view .LVU77
 342 00fa 9288     		ldrh	r2, [r2, #4]
  48:E:/MCU_Project/stm32/Target_tracking/user/Laser_Move\Servo_Move.c **** 					LASER_RESET_Start();
 343              		.loc 1 48 61 view .LVU78
 344 00fc 1344     		add	r3, r3, r2
  48:E:/MCU_Project/stm32/Target_tracking/user/Laser_Move\Servo_Move.c **** 					LASER_RESET_Start();
 345              		.loc 1 48 98 view .LVU79
 346 00fe 614A     		ldr	r2, .L31+36
ARM GAS  C:\Users\86390\AppData\Local\Temp\cc4iGm64.s 			page 9


 347 0100 5288     		ldrh	r2, [r2, #2]
  48:E:/MCU_Project/stm32/Target_tracking/user/Laser_Move\Servo_Move.c **** 					LASER_RESET_Start();
 348              		.loc 1 48 78 view .LVU80
 349 0102 1344     		add	r3, r3, r2
  48:E:/MCU_Project/stm32/Target_tracking/user/Laser_Move\Servo_Move.c **** 					LASER_RESET_Start();
 350              		.loc 1 48 102 view .LVU81
 351 0104 5B4A     		ldr	r2, .L31+20
 352 0106 82FB0323 		smull	r2, r3, r2, r3
 353 010a 00EE103A 		vmov	s0, r3	@ int
  48:E:/MCU_Project/stm32/Target_tracking/user/Laser_Move\Servo_Move.c **** 					LASER_RESET_Start();
 354              		.loc 1 48 7 view .LVU82
 355 010e 0022     		movs	r2, #0
 356 0110 B8EEC00A 		vcvt.f32.s32	s0, s0
 357 0114 5A4B     		ldr	r3, .L31+32
 358 0116 1978     		ldrb	r1, [r3]	@ zero_extendqisi2
 359 0118 2868     		ldr	r0, [r5]
 360 011a FFF7FEFF 		bl	USL_SetServoAngle
 361              	.LVL27:
  49:E:/MCU_Project/stm32/Target_tracking/user/Laser_Move\Servo_Move.c **** 					if(cnt<=0) HAL_Delay(250);
 362              		.loc 1 49 6 is_stmt 1 view .LVU83
 363 011e FFF7FEFF 		bl	LASER_RESET_Start
 364              	.LVL28:
  50:E:/MCU_Project/stm32/Target_tracking/user/Laser_Move\Servo_Move.c **** 					else HAL_Delay(50);
 365              		.loc 1 50 6 view .LVU84
  50:E:/MCU_Project/stm32/Target_tracking/user/Laser_Move\Servo_Move.c **** 					else HAL_Delay(50);
 366              		.loc 1 50 8 is_stmt 0 view .LVU85
 367 0122 002C     		cmp	r4, #0
 368 0124 BAD1     		bne	.L15
  50:E:/MCU_Project/stm32/Target_tracking/user/Laser_Move\Servo_Move.c **** 					else HAL_Delay(50);
 369              		.loc 1 50 17 is_stmt 1 discriminator 1 view .LVU86
 370 0126 FA20     		movs	r0, #250
 371 0128 FFF7FEFF 		bl	HAL_Delay
 372              	.LVL29:
 373 012c B9E7     		b	.L16
 374              	.L28:
 375              	.LBE3:
 376              	.LBB4:
  52:E:/MCU_Project/stm32/Target_tracking/user/Laser_Move\Servo_Move.c **** 			}	
  53:E:/MCU_Project/stm32/Target_tracking/user/Laser_Move\Servo_Move.c **** 			for(uint16_t cnt=0;cnt<(Locate_angleY[2]-Locate_angleY[3])*0.2;cnt++)		/* 右边框 */
 377              		.loc 1 53 17 is_stmt 0 view .LVU87
 378 012e 0024     		movs	r4, #0
 379              	.LVL30:
 380              		.loc 1 53 17 view .LVU88
 381 0130 04E0     		b	.L18
 382              	.LVL31:
 383              	.L19:
  54:E:/MCU_Project/stm32/Target_tracking/user/Laser_Move\Servo_Move.c **** 			{
  55:E:/MCU_Project/stm32/Target_tracking/user/Laser_Move\Servo_Move.c **** 					USL_SetServoAngle(servoUsart, sid_1, (Locate_angleX[2]+Locate_angleX[3]+CenterLocate_angleX[2]
  56:E:/MCU_Project/stm32/Target_tracking/user/Laser_Move\Servo_Move.c **** 				  USL_SetServoAngle(servoUsart, sid_2, Locate_angleY[2]-5*(cnt+1), 0);
  57:E:/MCU_Project/stm32/Target_tracking/user/Laser_Move\Servo_Move.c **** 					LASER_RESET_Start();
  58:E:/MCU_Project/stm32/Target_tracking/user/Laser_Move\Servo_Move.c **** 					if(cnt<=0) HAL_Delay(250);
  59:E:/MCU_Project/stm32/Target_tracking/user/Laser_Move\Servo_Move.c **** 					else HAL_Delay(50);
 384              		.loc 1 59 11 is_stmt 1 view .LVU89
 385 0132 3220     		movs	r0, #50
 386 0134 FFF7FEFF 		bl	HAL_Delay
 387              	.LVL32:
 388              	.L20:
ARM GAS  C:\Users\86390\AppData\Local\Temp\cc4iGm64.s 			page 10


  53:E:/MCU_Project/stm32/Target_tracking/user/Laser_Move\Servo_Move.c **** 			{
 389              		.loc 1 53 67 discriminator 2 view .LVU90
  53:E:/MCU_Project/stm32/Target_tracking/user/Laser_Move\Servo_Move.c **** 			{
 390              		.loc 1 53 70 is_stmt 0 discriminator 2 view .LVU91
 391 0138 0134     		adds	r4, r4, #1
 392              	.LVL33:
  53:E:/MCU_Project/stm32/Target_tracking/user/Laser_Move\Servo_Move.c **** 			{
 393              		.loc 1 53 70 discriminator 2 view .LVU92
 394 013a A4B2     		uxth	r4, r4
 395              	.LVL34:
 396              	.L18:
  53:E:/MCU_Project/stm32/Target_tracking/user/Laser_Move\Servo_Move.c **** 			{
 397              		.loc 1 53 23 is_stmt 1 discriminator 1 view .LVU93
  53:E:/MCU_Project/stm32/Target_tracking/user/Laser_Move\Servo_Move.c **** 			{
 398              		.loc 1 53 26 is_stmt 0 discriminator 1 view .LVU94
 399 013c 2046     		mov	r0, r4
 400 013e FFF7FEFF 		bl	__aeabi_i2d
 401              	.LVL35:
 402 0142 0646     		mov	r6, r0
 403 0144 0F46     		mov	r7, r1
  53:E:/MCU_Project/stm32/Target_tracking/user/Laser_Move\Servo_Move.c **** 			{
 404              		.loc 1 53 41 discriminator 1 view .LVU95
 405 0146 484B     		ldr	r3, .L31+8
 406 0148 9888     		ldrh	r0, [r3, #4]
  53:E:/MCU_Project/stm32/Target_tracking/user/Laser_Move\Servo_Move.c **** 			{
 407              		.loc 1 53 58 discriminator 1 view .LVU96
 408 014a DB88     		ldrh	r3, [r3, #6]
  53:E:/MCU_Project/stm32/Target_tracking/user/Laser_Move\Servo_Move.c **** 			{
 409              		.loc 1 53 62 discriminator 1 view .LVU97
 410 014c C01A     		subs	r0, r0, r3
 411 014e FFF7FEFF 		bl	__aeabi_i2d
 412              	.LVL36:
 413 0152 43A3     		adr	r3, .L31
 414 0154 D3E90023 		ldrd	r2, [r3]
 415 0158 FFF7FEFF 		bl	__aeabi_dmul
 416              	.LVL37:
 417 015c 0246     		mov	r2, r0
 418 015e 0B46     		mov	r3, r1
  53:E:/MCU_Project/stm32/Target_tracking/user/Laser_Move\Servo_Move.c **** 			{
 419              		.loc 1 53 4 discriminator 1 view .LVU98
 420 0160 3046     		mov	r0, r6
 421 0162 3946     		mov	r1, r7
 422 0164 FFF7FEFF 		bl	__aeabi_dcmplt
 423              	.LVL38:
 424 0168 70B3     		cbz	r0, .L29
  55:E:/MCU_Project/stm32/Target_tracking/user/Laser_Move\Servo_Move.c **** 				  USL_SetServoAngle(servoUsart, sid_2, Locate_angleY[2]-5*(cnt+1), 0);
 425              		.loc 1 55 6 is_stmt 1 view .LVU99
  55:E:/MCU_Project/stm32/Target_tracking/user/Laser_Move\Servo_Move.c **** 				  USL_SetServoAngle(servoUsart, sid_2, Locate_angleY[2]-5*(cnt+1), 0);
 426              		.loc 1 55 57 is_stmt 0 view .LVU100
 427 016a 404A     		ldr	r2, .L31+12
 428 016c 9388     		ldrh	r3, [r2, #4]
  55:E:/MCU_Project/stm32/Target_tracking/user/Laser_Move\Servo_Move.c **** 				  USL_SetServoAngle(servoUsart, sid_2, Locate_angleY[2]-5*(cnt+1), 0);
 429              		.loc 1 55 74 view .LVU101
 430 016e D288     		ldrh	r2, [r2, #6]
  55:E:/MCU_Project/stm32/Target_tracking/user/Laser_Move\Servo_Move.c **** 				  USL_SetServoAngle(servoUsart, sid_2, Locate_angleY[2]-5*(cnt+1), 0);
 431              		.loc 1 55 60 view .LVU102
 432 0170 1344     		add	r3, r3, r2
ARM GAS  C:\Users\86390\AppData\Local\Temp\cc4iGm64.s 			page 11


  55:E:/MCU_Project/stm32/Target_tracking/user/Laser_Move\Servo_Move.c **** 				  USL_SetServoAngle(servoUsart, sid_2, Locate_angleY[2]-5*(cnt+1), 0);
 433              		.loc 1 55 97 view .LVU103
 434 0172 3F4A     		ldr	r2, .L31+16
 435 0174 9288     		ldrh	r2, [r2, #4]
  55:E:/MCU_Project/stm32/Target_tracking/user/Laser_Move\Servo_Move.c **** 				  USL_SetServoAngle(servoUsart, sid_2, Locate_angleY[2]-5*(cnt+1), 0);
 436              		.loc 1 55 77 view .LVU104
 437 0176 1344     		add	r3, r3, r2
  55:E:/MCU_Project/stm32/Target_tracking/user/Laser_Move\Servo_Move.c **** 				  USL_SetServoAngle(servoUsart, sid_2, Locate_angleY[2]-5*(cnt+1), 0);
 438              		.loc 1 55 101 view .LVU105
 439 0178 3E4A     		ldr	r2, .L31+20
 440 017a 82FB0323 		smull	r2, r3, r2, r3
 441 017e 00EE103A 		vmov	s0, r3	@ int
  55:E:/MCU_Project/stm32/Target_tracking/user/Laser_Move\Servo_Move.c **** 				  USL_SetServoAngle(servoUsart, sid_2, Locate_angleY[2]-5*(cnt+1), 0);
 442              		.loc 1 55 6 view .LVU106
 443 0182 3D4D     		ldr	r5, .L31+24
 444 0184 0022     		movs	r2, #0
 445 0186 B8EEC00A 		vcvt.f32.s32	s0, s0
 446 018a 3C4B     		ldr	r3, .L31+28
 447 018c 1978     		ldrb	r1, [r3]	@ zero_extendqisi2
 448 018e 2868     		ldr	r0, [r5]
 449 0190 FFF7FEFF 		bl	USL_SetServoAngle
 450              	.LVL39:
  56:E:/MCU_Project/stm32/Target_tracking/user/Laser_Move\Servo_Move.c **** 					LASER_RESET_Start();
 451              		.loc 1 56 7 is_stmt 1 view .LVU107
  56:E:/MCU_Project/stm32/Target_tracking/user/Laser_Move\Servo_Move.c **** 					LASER_RESET_Start();
 452              		.loc 1 56 57 is_stmt 0 view .LVU108
 453 0194 344B     		ldr	r3, .L31+8
 454 0196 9A88     		ldrh	r2, [r3, #4]
  56:E:/MCU_Project/stm32/Target_tracking/user/Laser_Move\Servo_Move.c **** 					LASER_RESET_Start();
 455              		.loc 1 56 67 view .LVU109
 456 0198 631C     		adds	r3, r4, #1
  56:E:/MCU_Project/stm32/Target_tracking/user/Laser_Move\Servo_Move.c **** 					LASER_RESET_Start();
 457              		.loc 1 56 62 view .LVU110
 458 019a C3EB8371 		rsb	r1, r3, r3, lsl #30
 459 019e C3EB8103 		rsb	r3, r3, r1, lsl #2
  56:E:/MCU_Project/stm32/Target_tracking/user/Laser_Move\Servo_Move.c **** 					LASER_RESET_Start();
 460              		.loc 1 56 60 view .LVU111
 461 01a2 D318     		adds	r3, r2, r3
 462 01a4 00EE103A 		vmov	s0, r3	@ int
  56:E:/MCU_Project/stm32/Target_tracking/user/Laser_Move\Servo_Move.c **** 					LASER_RESET_Start();
 463              		.loc 1 56 7 view .LVU112
 464 01a8 0022     		movs	r2, #0
 465 01aa B8EEC00A 		vcvt.f32.s32	s0, s0
 466 01ae 344B     		ldr	r3, .L31+32
 467 01b0 1978     		ldrb	r1, [r3]	@ zero_extendqisi2
 468 01b2 2868     		ldr	r0, [r5]
 469 01b4 FFF7FEFF 		bl	USL_SetServoAngle
 470              	.LVL40:
  57:E:/MCU_Project/stm32/Target_tracking/user/Laser_Move\Servo_Move.c **** 					if(cnt<=0) HAL_Delay(250);
 471              		.loc 1 57 6 is_stmt 1 view .LVU113
 472 01b8 FFF7FEFF 		bl	LASER_RESET_Start
 473              	.LVL41:
  58:E:/MCU_Project/stm32/Target_tracking/user/Laser_Move\Servo_Move.c **** 					else HAL_Delay(50);
 474              		.loc 1 58 6 view .LVU114
  58:E:/MCU_Project/stm32/Target_tracking/user/Laser_Move\Servo_Move.c **** 					else HAL_Delay(50);
 475              		.loc 1 58 8 is_stmt 0 view .LVU115
 476 01bc 002C     		cmp	r4, #0
ARM GAS  C:\Users\86390\AppData\Local\Temp\cc4iGm64.s 			page 12


 477 01be B8D1     		bne	.L19
  58:E:/MCU_Project/stm32/Target_tracking/user/Laser_Move\Servo_Move.c **** 					else HAL_Delay(50);
 478              		.loc 1 58 17 is_stmt 1 discriminator 1 view .LVU116
 479 01c0 FA20     		movs	r0, #250
 480 01c2 FFF7FEFF 		bl	HAL_Delay
 481              	.LVL42:
 482 01c6 B7E7     		b	.L20
 483              	.L29:
 484              	.LBE4:
 485              	.LBB5:
  60:E:/MCU_Project/stm32/Target_tracking/user/Laser_Move\Servo_Move.c **** 			}
  61:E:/MCU_Project/stm32/Target_tracking/user/Laser_Move\Servo_Move.c **** 			for(uint16_t cnt=0;cnt<(Locate_angleX[0]-Locate_angleX[3])*0.2;cnt++)		/* 下边框 */
 486              		.loc 1 61 17 is_stmt 0 view .LVU117
 487 01c8 0024     		movs	r4, #0
 488              	.LVL43:
 489              		.loc 1 61 17 view .LVU118
 490 01ca 04E0     		b	.L22
 491              	.LVL44:
 492              	.L23:
  62:E:/MCU_Project/stm32/Target_tracking/user/Laser_Move\Servo_Move.c **** 			{
  63:E:/MCU_Project/stm32/Target_tracking/user/Laser_Move\Servo_Move.c **** 					USL_SetServoAngle(servoUsart, sid_1, Locate_angleX[3]+5*(cnt+1), 0);										
  64:E:/MCU_Project/stm32/Target_tracking/user/Laser_Move\Servo_Move.c **** 				  USL_SetServoAngle(servoUsart, sid_2, (Locate_angleY[3]+Locate_angleY[0]+CenterLocate_angleY[3
  65:E:/MCU_Project/stm32/Target_tracking/user/Laser_Move\Servo_Move.c **** 					LASER_RESET_Start();
  66:E:/MCU_Project/stm32/Target_tracking/user/Laser_Move\Servo_Move.c **** 					if(cnt<=0) HAL_Delay(250);
  67:E:/MCU_Project/stm32/Target_tracking/user/Laser_Move\Servo_Move.c **** 					else HAL_Delay(50);
 493              		.loc 1 67 11 is_stmt 1 view .LVU119
 494 01cc 3220     		movs	r0, #50
 495 01ce FFF7FEFF 		bl	HAL_Delay
 496              	.LVL45:
 497              	.L24:
  61:E:/MCU_Project/stm32/Target_tracking/user/Laser_Move\Servo_Move.c **** 			{
 498              		.loc 1 61 67 discriminator 2 view .LVU120
  61:E:/MCU_Project/stm32/Target_tracking/user/Laser_Move\Servo_Move.c **** 			{
 499              		.loc 1 61 70 is_stmt 0 discriminator 2 view .LVU121
 500 01d2 0134     		adds	r4, r4, #1
 501              	.LVL46:
  61:E:/MCU_Project/stm32/Target_tracking/user/Laser_Move\Servo_Move.c **** 			{
 502              		.loc 1 61 70 discriminator 2 view .LVU122
 503 01d4 A4B2     		uxth	r4, r4
 504              	.LVL47:
 505              	.L22:
  61:E:/MCU_Project/stm32/Target_tracking/user/Laser_Move\Servo_Move.c **** 			{
 506              		.loc 1 61 23 is_stmt 1 discriminator 1 view .LVU123
  61:E:/MCU_Project/stm32/Target_tracking/user/Laser_Move\Servo_Move.c **** 			{
 507              		.loc 1 61 26 is_stmt 0 discriminator 1 view .LVU124
 508 01d6 2046     		mov	r0, r4
 509 01d8 FFF7FEFF 		bl	__aeabi_i2d
 510              	.LVL48:
 511 01dc 0646     		mov	r6, r0
 512 01de 0F46     		mov	r7, r1
  61:E:/MCU_Project/stm32/Target_tracking/user/Laser_Move\Servo_Move.c **** 			{
 513              		.loc 1 61 41 discriminator 1 view .LVU125
 514 01e0 224B     		ldr	r3, .L31+12
 515 01e2 1888     		ldrh	r0, [r3]
  61:E:/MCU_Project/stm32/Target_tracking/user/Laser_Move\Servo_Move.c **** 			{
 516              		.loc 1 61 58 discriminator 1 view .LVU126
 517 01e4 DD88     		ldrh	r5, [r3, #6]
ARM GAS  C:\Users\86390\AppData\Local\Temp\cc4iGm64.s 			page 13


  61:E:/MCU_Project/stm32/Target_tracking/user/Laser_Move\Servo_Move.c **** 			{
 518              		.loc 1 61 62 discriminator 1 view .LVU127
 519 01e6 401B     		subs	r0, r0, r5
 520 01e8 FFF7FEFF 		bl	__aeabi_i2d
 521              	.LVL49:
 522 01ec 1CA3     		adr	r3, .L31
 523 01ee D3E90023 		ldrd	r2, [r3]
 524 01f2 FFF7FEFF 		bl	__aeabi_dmul
 525              	.LVL50:
 526 01f6 0246     		mov	r2, r0
 527 01f8 0B46     		mov	r3, r1
  61:E:/MCU_Project/stm32/Target_tracking/user/Laser_Move\Servo_Move.c **** 			{
 528              		.loc 1 61 4 discriminator 1 view .LVU128
 529 01fa 3046     		mov	r0, r6
 530 01fc 3946     		mov	r1, r7
 531 01fe FFF7FEFF 		bl	__aeabi_dcmplt
 532              	.LVL51:
 533 0202 50B3     		cbz	r0, .L30
  63:E:/MCU_Project/stm32/Target_tracking/user/Laser_Move\Servo_Move.c **** 				  USL_SetServoAngle(servoUsart, sid_2, (Locate_angleY[3]+Locate_angleY[0]+CenterLocate_angleY[3
 534              		.loc 1 63 6 is_stmt 1 view .LVU129
  63:E:/MCU_Project/stm32/Target_tracking/user/Laser_Move\Servo_Move.c **** 				  USL_SetServoAngle(servoUsart, sid_2, (Locate_angleY[3]+Locate_angleY[0]+CenterLocate_angleY[3
 535              		.loc 1 63 66 is_stmt 0 view .LVU130
 536 0204 631C     		adds	r3, r4, #1
  63:E:/MCU_Project/stm32/Target_tracking/user/Laser_Move\Servo_Move.c **** 				  USL_SetServoAngle(servoUsart, sid_2, (Locate_angleY[3]+Locate_angleY[0]+CenterLocate_angleY[3
 537              		.loc 1 63 61 view .LVU131
 538 0206 03EB8303 		add	r3, r3, r3, lsl #2
  63:E:/MCU_Project/stm32/Target_tracking/user/Laser_Move\Servo_Move.c **** 				  USL_SetServoAngle(servoUsart, sid_2, (Locate_angleY[3]+Locate_angleY[0]+CenterLocate_angleY[3
 539              		.loc 1 63 59 view .LVU132
 540 020a 2B44     		add	r3, r3, r5
 541 020c 00EE103A 		vmov	s0, r3	@ int
  63:E:/MCU_Project/stm32/Target_tracking/user/Laser_Move\Servo_Move.c **** 				  USL_SetServoAngle(servoUsart, sid_2, (Locate_angleY[3]+Locate_angleY[0]+CenterLocate_angleY[3
 542              		.loc 1 63 6 view .LVU133
 543 0210 194D     		ldr	r5, .L31+24
 544 0212 0022     		movs	r2, #0
 545 0214 B8EEC00A 		vcvt.f32.s32	s0, s0
 546 0218 184B     		ldr	r3, .L31+28
 547 021a 1978     		ldrb	r1, [r3]	@ zero_extendqisi2
 548 021c 2868     		ldr	r0, [r5]
 549 021e FFF7FEFF 		bl	USL_SetServoAngle
 550              	.LVL52:
  64:E:/MCU_Project/stm32/Target_tracking/user/Laser_Move\Servo_Move.c **** 					LASER_RESET_Start();
 551              		.loc 1 64 7 is_stmt 1 view .LVU134
  64:E:/MCU_Project/stm32/Target_tracking/user/Laser_Move\Servo_Move.c **** 					LASER_RESET_Start();
 552              		.loc 1 64 58 is_stmt 0 view .LVU135
 553 0222 114A     		ldr	r2, .L31+8
 554 0224 D388     		ldrh	r3, [r2, #6]
  64:E:/MCU_Project/stm32/Target_tracking/user/Laser_Move\Servo_Move.c **** 					LASER_RESET_Start();
 555              		.loc 1 64 75 view .LVU136
 556 0226 1288     		ldrh	r2, [r2]
  64:E:/MCU_Project/stm32/Target_tracking/user/Laser_Move\Servo_Move.c **** 					LASER_RESET_Start();
 557              		.loc 1 64 61 view .LVU137
 558 0228 1344     		add	r3, r3, r2
  64:E:/MCU_Project/stm32/Target_tracking/user/Laser_Move\Servo_Move.c **** 					LASER_RESET_Start();
 559              		.loc 1 64 98 view .LVU138
 560 022a 164A     		ldr	r2, .L31+36
 561 022c D288     		ldrh	r2, [r2, #6]
  64:E:/MCU_Project/stm32/Target_tracking/user/Laser_Move\Servo_Move.c **** 					LASER_RESET_Start();
ARM GAS  C:\Users\86390\AppData\Local\Temp\cc4iGm64.s 			page 14


 562              		.loc 1 64 78 view .LVU139
 563 022e 1344     		add	r3, r3, r2
  64:E:/MCU_Project/stm32/Target_tracking/user/Laser_Move\Servo_Move.c **** 					LASER_RESET_Start();
 564              		.loc 1 64 102 view .LVU140
 565 0230 104A     		ldr	r2, .L31+20
 566 0232 82FB0323 		smull	r2, r3, r2, r3
 567 0236 00EE103A 		vmov	s0, r3	@ int
  64:E:/MCU_Project/stm32/Target_tracking/user/Laser_Move\Servo_Move.c **** 					LASER_RESET_Start();
 568              		.loc 1 64 7 view .LVU141
 569 023a 0022     		movs	r2, #0
 570 023c B8EEC00A 		vcvt.f32.s32	s0, s0
 571 0240 0F4B     		ldr	r3, .L31+32
 572 0242 1978     		ldrb	r1, [r3]	@ zero_extendqisi2
 573 0244 2868     		ldr	r0, [r5]
 574 0246 FFF7FEFF 		bl	USL_SetServoAngle
 575              	.LVL53:
  65:E:/MCU_Project/stm32/Target_tracking/user/Laser_Move\Servo_Move.c **** 					if(cnt<=0) HAL_Delay(250);
 576              		.loc 1 65 6 is_stmt 1 view .LVU142
 577 024a FFF7FEFF 		bl	LASER_RESET_Start
 578              	.LVL54:
  66:E:/MCU_Project/stm32/Target_tracking/user/Laser_Move\Servo_Move.c **** 					else HAL_Delay(50);
 579              		.loc 1 66 6 view .LVU143
  66:E:/MCU_Project/stm32/Target_tracking/user/Laser_Move\Servo_Move.c **** 					else HAL_Delay(50);
 580              		.loc 1 66 8 is_stmt 0 view .LVU144
 581 024e 002C     		cmp	r4, #0
 582 0250 BCD1     		bne	.L23
  66:E:/MCU_Project/stm32/Target_tracking/user/Laser_Move\Servo_Move.c **** 					else HAL_Delay(50);
 583              		.loc 1 66 17 is_stmt 1 discriminator 1 view .LVU145
 584 0252 FA20     		movs	r0, #250
 585 0254 FFF7FEFF 		bl	HAL_Delay
 586              	.LVL55:
 587 0258 BBE7     		b	.L24
 588              	.L30:
 589              	.LBE5:
  68:E:/MCU_Project/stm32/Target_tracking/user/Laser_Move\Servo_Move.c **** 			}
  69:E:/MCU_Project/stm32/Target_tracking/user/Laser_Move\Servo_Move.c **** 					
  70:E:/MCU_Project/stm32/Target_tracking/user/Laser_Move\Servo_Move.c **** }
 590              		.loc 1 70 1 is_stmt 0 view .LVU146
 591 025a F8BD     		pop	{r3, r4, r5, r6, r7, pc}
 592              	.LVL56:
 593              	.L32:
 594              		.loc 1 70 1 view .LVU147
 595 025c AFF30080 		.align	3
 596              	.L31:
 597 0260 9A999999 		.word	-1717986918
 598 0264 9999C93F 		.word	1070176665
 599 0268 00000000 		.word	.LANCHOR1
 600 026c 00000000 		.word	.LANCHOR0
 601 0270 00000000 		.word	.LANCHOR2
 602 0274 56555555 		.word	1431655766
 603 0278 00000000 		.word	servoUsart
 604 027c 00000000 		.word	sid_1
 605 0280 00000000 		.word	sid_2
 606 0284 00000000 		.word	.LANCHOR3
 607              		.cfi_endproc
 608              	.LFE136:
 610              		.section	.text.Servo_Position_PID,"ax",%progbits
ARM GAS  C:\Users\86390\AppData\Local\Temp\cc4iGm64.s 			page 15


 611              		.align	1
 612              		.global	Servo_Position_PID
 613              		.syntax unified
 614              		.thumb
 615              		.thumb_func
 617              	Servo_Position_PID:
 618              	.LVL57:
 619              	.LFB137:
  71:E:/MCU_Project/stm32/Target_tracking/user/Laser_Move\Servo_Move.c **** 
  72:E:/MCU_Project/stm32/Target_tracking/user/Laser_Move\Servo_Move.c **** /* 舵机位置环pid */
  73:E:/MCU_Project/stm32/Target_tracking/user/Laser_Move\Servo_Move.c **** float Servo_Position_PID(float current_position, float target_position,float posi_kp,float posi_ki,
 620              		.loc 1 73 115 is_stmt 1 view -0
 621              		.cfi_startproc
 622              		@ args = 0, pretend = 0, frame = 0
 623              		@ frame_needed = 0, uses_anonymous_args = 0
 624              		@ link register save eliminated.
  74:E:/MCU_Project/stm32/Target_tracking/user/Laser_Move\Servo_Move.c ****     static float last_error,before_error = 0;
 625              		.loc 1 74 5 view .LVU149
  75:E:/MCU_Project/stm32/Target_tracking/user/Laser_Move\Servo_Move.c ****     static int integral = 0;  // 积分项
 626              		.loc 1 75 5 view .LVU150
  76:E:/MCU_Project/stm32/Target_tracking/user/Laser_Move\Servo_Move.c ****     float error = target_position - current_position; // 当前误差
 627              		.loc 1 76 5 view .LVU151
 628              		.loc 1 76 11 is_stmt 0 view .LVU152
 629 0000 70EEC00A 		vsub.f32	s1, s1, s0
 630              	.LVL58:
  77:E:/MCU_Project/stm32/Target_tracking/user/Laser_Move\Servo_Move.c ****     integral += error;                              // 积分项累加
 631              		.loc 1 77 5 is_stmt 1 view .LVU153
 632              		.loc 1 77 14 is_stmt 0 view .LVU154
 633 0004 194B     		ldr	r3, .L37
 634 0006 D3ED007A 		vldr.32	s15, [r3]	@ int
 635 000a F8EEE77A 		vcvt.f32.s32	s15, s15
 636 000e 77EEA07A 		vadd.f32	s15, s15, s1
 637 0012 FDEEE77A 		vcvt.s32.f32	s15, s15
 638 0016 C3ED007A 		vstr.32	s15, [r3]	@ int
  78:E:/MCU_Project/stm32/Target_tracking/user/Laser_Move\Servo_Move.c **** 
  79:E:/MCU_Project/stm32/Target_tracking/user/Laser_Move\Servo_Move.c **** 	float derivative = error - last_error;		/* 微分项 */
 639              		.loc 1 79 2 is_stmt 1 view .LVU155
 640              		.loc 1 79 27 is_stmt 0 view .LVU156
 641 001a 154B     		ldr	r3, .L37+4
 642 001c 93ED000A 		vldr.32	s0, [r3]
 643              	.LVL59:
 644              		.loc 1 79 8 view .LVU157
 645 0020 30EEC00A 		vsub.f32	s0, s1, s0
 646              	.LVL60:
  80:E:/MCU_Project/stm32/Target_tracking/user/Laser_Move\Servo_Move.c **** 
  81:E:/MCU_Project/stm32/Target_tracking/user/Laser_Move\Servo_Move.c ****     float output = posi_kp * -error + posi_ki * integral - posi_kd * derivative; // PID输出
 647              		.loc 1 81 5 is_stmt 1 view .LVU158
 648              		.loc 1 81 28 is_stmt 0 view .LVU159
 649 0024 20EEC11A 		vnmul.f32	s2, s1, s2
 650              	.LVL61:
 651              		.loc 1 81 47 view .LVU160
 652 0028 F8EEE77A 		vcvt.f32.s32	s15, s15
 653 002c 67EEA17A 		vmul.f32	s15, s15, s3
 654              		.loc 1 81 37 view .LVU161
 655 0030 71EE277A 		vadd.f32	s15, s2, s15
 656              		.loc 1 81 68 view .LVU162
 657 0034 20EE020A 		vmul.f32	s0, s0, s4
ARM GAS  C:\Users\86390\AppData\Local\Temp\cc4iGm64.s 			page 16


 658              	.LVL62:
 659              		.loc 1 81 11 view .LVU163
 660 0038 37EEC00A 		vsub.f32	s0, s15, s0
 661              	.LVL63:
  82:E:/MCU_Project/stm32/Target_tracking/user/Laser_Move\Servo_Move.c **** 	
  83:E:/MCU_Project/stm32/Target_tracking/user/Laser_Move\Servo_Move.c ****     last_error = error;                             // 更新上一次误差
 662              		.loc 1 83 5 is_stmt 1 view .LVU164
 663              		.loc 1 83 16 is_stmt 0 view .LVU165
 664 003c C3ED000A 		vstr.32	s1, [r3]
 665              	.LVL64:
  84:E:/MCU_Project/stm32/Target_tracking/user/Laser_Move\Servo_Move.c **** 
  85:E:/MCU_Project/stm32/Target_tracking/user/Laser_Move\Servo_Move.c **** 		if(output>500) output=500;				/* 限幅部分 */
 666              		.loc 1 85 3 is_stmt 1 view .LVU166
 667              		.loc 1 85 5 is_stmt 0 view .LVU167
 668 0040 DFED0C7A 		vldr.32	s15, .L37+8
 669 0044 B4EEE70A 		vcmpe.f32	s0, s15
 670 0048 F1EE10FA 		vmrs	APSR_nzcv, FPSCR
 671 004c 07DC     		bgt	.L35
  86:E:/MCU_Project/stm32/Target_tracking/user/Laser_Move\Servo_Move.c **** 		else if(output<-500) output=-500;
 672              		.loc 1 86 8 is_stmt 1 view .LVU168
 673              		.loc 1 86 10 is_stmt 0 view .LVU169
 674 004e DFED0A7A 		vldr.32	s15, .L37+12
 675 0052 B4EEE70A 		vcmpe.f32	s0, s15
 676 0056 F1EE10FA 		vmrs	APSR_nzcv, FPSCR
 677 005a 03D4     		bmi	.L36
 678 005c 7047     		bx	lr
 679              	.L35:
  85:E:/MCU_Project/stm32/Target_tracking/user/Laser_Move\Servo_Move.c **** 		else if(output<-500) output=-500;
 680              		.loc 1 85 24 view .LVU170
 681 005e 9FED050A 		vldr.32	s0, .L37+8
 682              	.LVL65:
  85:E:/MCU_Project/stm32/Target_tracking/user/Laser_Move\Servo_Move.c **** 		else if(output<-500) output=-500;
 683              		.loc 1 85 24 view .LVU171
 684 0062 7047     		bx	lr
 685              	.LVL66:
 686              	.L36:
 687              		.loc 1 86 30 view .LVU172
 688 0064 9FED040A 		vldr.32	s0, .L37+12
 689              	.LVL67:
  87:E:/MCU_Project/stm32/Target_tracking/user/Laser_Move\Servo_Move.c **** 		
  88:E:/MCU_Project/stm32/Target_tracking/user/Laser_Move\Servo_Move.c ****     return output;
 690              		.loc 1 88 5 is_stmt 1 view .LVU173
  89:E:/MCU_Project/stm32/Target_tracking/user/Laser_Move\Servo_Move.c **** }
 691              		.loc 1 89 1 is_stmt 0 view .LVU174
 692 0068 7047     		bx	lr
 693              	.L38:
 694 006a 00BF     		.align	2
 695              	.L37:
 696 006c 00000000 		.word	.LANCHOR4
 697 0070 00000000 		.word	.LANCHOR5
 698 0074 0000FA43 		.word	1140457472
 699 0078 0000FAC3 		.word	-1007026176
 700              		.cfi_endproc
 701              	.LFE137:
 703              		.section	.text.Servo_SetZeroAngle,"ax",%progbits
 704              		.align	1
 705              		.global	Servo_SetZeroAngle
ARM GAS  C:\Users\86390\AppData\Local\Temp\cc4iGm64.s 			page 17


 706              		.syntax unified
 707              		.thumb
 708              		.thumb_func
 710              	Servo_SetZeroAngle:
 711              	.LVL68:
 712              	.LFB138:
  90:E:/MCU_Project/stm32/Target_tracking/user/Laser_Move\Servo_Move.c **** 
  91:E:/MCU_Project/stm32/Target_tracking/user/Laser_Move\Servo_Move.c **** uint16_t Servo_ZeroXY[2];
  92:E:/MCU_Project/stm32/Target_tracking/user/Laser_Move\Servo_Move.c **** uint16_t Servo_OriginXY[2];
  93:E:/MCU_Project/stm32/Target_tracking/user/Laser_Move\Servo_Move.c **** 
  94:E:/MCU_Project/stm32/Target_tracking/user/Laser_Move\Servo_Move.c **** 
  95:E:/MCU_Project/stm32/Target_tracking/user/Laser_Move\Servo_Move.c **** int rectangle_XY[8],Set_rectangle_XY[32];		/* 矩形框坐标(左上、右上、左下、右下)  细分出的12个点 */
  96:E:/MCU_Project/stm32/Target_tracking/user/Laser_Move\Servo_Move.c **** 
  97:E:/MCU_Project/stm32/Target_tracking/user/Laser_Move\Servo_Move.c **** 
  98:E:/MCU_Project/stm32/Target_tracking/user/Laser_Move\Servo_Move.c **** int Laser_XY[2];		/* 激光点坐标 */
  99:E:/MCU_Project/stm32/Target_tracking/user/Laser_Move\Servo_Move.c **** 
 100:E:/MCU_Project/stm32/Target_tracking/user/Laser_Move\Servo_Move.c **** 
 101:E:/MCU_Project/stm32/Target_tracking/user/Laser_Move\Servo_Move.c **** uint16_t Servo_OriginAngle[2];
 102:E:/MCU_Project/stm32/Target_tracking/user/Laser_Move\Servo_Move.c **** 
 103:E:/MCU_Project/stm32/Target_tracking/user/Laser_Move\Servo_Move.c **** int Rectangle_TargetAngle[2];
 104:E:/MCU_Project/stm32/Target_tracking/user/Laser_Move\Servo_Move.c **** 
 105:E:/MCU_Project/stm32/Target_tracking/user/Laser_Move\Servo_Move.c **** /* 舵机中心零点校准 */
 106:E:/MCU_Project/stm32/Target_tracking/user/Laser_Move\Servo_Move.c **** void Servo_SetZeroAngle(uint16_t *X,uint16_t *Y)
 107:E:/MCU_Project/stm32/Target_tracking/user/Laser_Move\Servo_Move.c **** {
 713              		.loc 1 107 1 is_stmt 1 view -0
 714              		.cfi_startproc
 715              		@ args = 0, pretend = 0, frame = 0
 716              		@ frame_needed = 0, uses_anonymous_args = 0
 108:E:/MCU_Project/stm32/Target_tracking/user/Laser_Move\Servo_Move.c **** 	
 109:E:/MCU_Project/stm32/Target_tracking/user/Laser_Move\Servo_Move.c **** 			if(Data_FinishGet)			/* 串口接收完一次数据后 */
 717              		.loc 1 109 4 view .LVU176
 718              		.loc 1 109 7 is_stmt 0 view .LVU177
 719 0000 294B     		ldr	r3, .L52
 720 0002 1B78     		ldrb	r3, [r3]	@ zero_extendqisi2
 721              		.loc 1 109 6 view .LVU178
 722 0004 002B     		cmp	r3, #0
 723 0006 4DD0     		beq	.L49
 107:E:/MCU_Project/stm32/Target_tracking/user/Laser_Move\Servo_Move.c **** 	
 724              		.loc 1 107 1 view .LVU179
 725 0008 10B5     		push	{r4, lr}
 726              	.LCFI2:
 727              		.cfi_def_cfa_offset 8
 728              		.cfi_offset 4, -8
 729              		.cfi_offset 14, -4
 110:E:/MCU_Project/stm32/Target_tracking/user/Laser_Move\Servo_Move.c **** 			{
 111:E:/MCU_Project/stm32/Target_tracking/user/Laser_Move\Servo_Move.c **** 						if(GetOriginData_Flag)
 730              		.loc 1 111 7 is_stmt 1 view .LVU180
 731              		.loc 1 111 10 is_stmt 0 view .LVU181
 732 000a 284B     		ldr	r3, .L52+4
 733 000c 1A78     		ldrb	r2, [r3]	@ zero_extendqisi2
 734              		.loc 1 111 9 view .LVU182
 735 000e F2B9     		cbnz	r2, .L47
 736              	.LBB6:
 112:E:/MCU_Project/stm32/Target_tracking/user/Laser_Move\Servo_Move.c **** 						{
 113:E:/MCU_Project/stm32/Target_tracking/user/Laser_Move\Servo_Move.c **** 								/* 16位数据处理(合成坐标值) */
 114:E:/MCU_Project/stm32/Target_tracking/user/Laser_Move\Servo_Move.c **** 								for(uint8_t time=0;time<4;time++)
 115:E:/MCU_Project/stm32/Target_tracking/user/Laser_Move\Servo_Move.c **** 								{
ARM GAS  C:\Users\86390\AppData\Local\Temp\cc4iGm64.s 			page 18


 116:E:/MCU_Project/stm32/Target_tracking/user/Laser_Move\Servo_Move.c **** 										My_CoordinateData[time] = (ShijueRecv_Buffer[time*2+1]<<8)|ShijueRecv_Buffer[time*2];
 117:E:/MCU_Project/stm32/Target_tracking/user/Laser_Move\Servo_Move.c **** 								}
 118:E:/MCU_Project/stm32/Target_tracking/user/Laser_Move\Servo_Move.c **** 		
 119:E:/MCU_Project/stm32/Target_tracking/user/Laser_Move\Servo_Move.c **** 								*X = My_CoordinateData[0];			/* X坐标 */
 120:E:/MCU_Project/stm32/Target_tracking/user/Laser_Move\Servo_Move.c **** 								*Y = My_CoordinateData[1];			/* Y坐标 */						
 121:E:/MCU_Project/stm32/Target_tracking/user/Laser_Move\Servo_Move.c **** 								
 122:E:/MCU_Project/stm32/Target_tracking/user/Laser_Move\Servo_Move.c **** 								Data_FinishGet=0;			/* 及时清除接收完成标志位 */
 123:E:/MCU_Project/stm32/Target_tracking/user/Laser_Move\Servo_Move.c **** 								Data_StartGet=0;
 124:E:/MCU_Project/stm32/Target_tracking/user/Laser_Move\Servo_Move.c **** 								
 125:E:/MCU_Project/stm32/Target_tracking/user/Laser_Move\Servo_Move.c **** 								GetOriginData_Flag=0;
 126:E:/MCU_Project/stm32/Target_tracking/user/Laser_Move\Servo_Move.c **** 						}
 127:E:/MCU_Project/stm32/Target_tracking/user/Laser_Move\Servo_Move.c **** 						else 
 128:E:/MCU_Project/stm32/Target_tracking/user/Laser_Move\Servo_Move.c **** 						{
 129:E:/MCU_Project/stm32/Target_tracking/user/Laser_Move\Servo_Move.c **** 								/* 16位数据处理(合成坐标值) */
 130:E:/MCU_Project/stm32/Target_tracking/user/Laser_Move\Servo_Move.c **** 								for(uint8_t time=0;time<10;time++)
 737              		.loc 1 130 21 view .LVU183
 738 0010 1346     		mov	r3, r2
 739 0012 2EE0     		b	.L42
 740              	.LVL69:
 741              	.L43:
 742              		.loc 1 130 21 view .LVU184
 743              	.LBE6:
 744              	.LBB7:
 116:E:/MCU_Project/stm32/Target_tracking/user/Laser_Move\Servo_Move.c **** 								}
 745              		.loc 1 116 11 is_stmt 1 discriminator 3 view .LVU185
 116:E:/MCU_Project/stm32/Target_tracking/user/Laser_Move\Servo_Move.c **** 								}
 746              		.loc 1 116 60 is_stmt 0 discriminator 3 view .LVU186
 747 0014 5A00     		lsls	r2, r3, #1
 116:E:/MCU_Project/stm32/Target_tracking/user/Laser_Move\Servo_Move.c **** 								}
 748              		.loc 1 116 62 discriminator 3 view .LVU187
 749 0016 0132     		adds	r2, r2, #1
 116:E:/MCU_Project/stm32/Target_tracking/user/Laser_Move\Servo_Move.c **** 								}
 750              		.loc 1 116 55 discriminator 3 view .LVU188
 751 0018 254C     		ldr	r4, .L52+8
 752 001a 14F802C0 		ldrb	ip, [r4, r2]	@ zero_extendqisi2
 116:E:/MCU_Project/stm32/Target_tracking/user/Laser_Move\Servo_Move.c **** 								}
 753              		.loc 1 116 87 discriminator 3 view .LVU189
 754 001e 14F81320 		ldrb	r2, [r4, r3, lsl #1]	@ zero_extendqisi2
 116:E:/MCU_Project/stm32/Target_tracking/user/Laser_Move\Servo_Move.c **** 								}
 755              		.loc 1 116 69 discriminator 3 view .LVU190
 756 0022 42EA0C22 		orr	r2, r2, ip, lsl #8
 116:E:/MCU_Project/stm32/Target_tracking/user/Laser_Move\Servo_Move.c **** 								}
 757              		.loc 1 116 35 discriminator 3 view .LVU191
 758 0026 234C     		ldr	r4, .L52+12
 759 0028 24F81320 		strh	r2, [r4, r3, lsl #1]	@ movhi
 114:E:/MCU_Project/stm32/Target_tracking/user/Laser_Move\Servo_Move.c **** 								{
 760              		.loc 1 114 35 is_stmt 1 discriminator 3 view .LVU192
 114:E:/MCU_Project/stm32/Target_tracking/user/Laser_Move\Servo_Move.c **** 								{
 761              		.loc 1 114 39 is_stmt 0 discriminator 3 view .LVU193
 762 002c 0133     		adds	r3, r3, #1
 763              	.LVL70:
 114:E:/MCU_Project/stm32/Target_tracking/user/Laser_Move\Servo_Move.c **** 								{
 764              		.loc 1 114 39 discriminator 3 view .LVU194
 765 002e DBB2     		uxtb	r3, r3
 766              	.LVL71:
 767              	.L41:
 114:E:/MCU_Project/stm32/Target_tracking/user/Laser_Move\Servo_Move.c **** 								{
ARM GAS  C:\Users\86390\AppData\Local\Temp\cc4iGm64.s 			page 19


 768              		.loc 1 114 28 is_stmt 1 discriminator 1 view .LVU195
 114:E:/MCU_Project/stm32/Target_tracking/user/Laser_Move\Servo_Move.c **** 								{
 769              		.loc 1 114 9 is_stmt 0 discriminator 1 view .LVU196
 770 0030 032B     		cmp	r3, #3
 771 0032 EFD9     		bls	.L43
 772              	.LBE7:
 119:E:/MCU_Project/stm32/Target_tracking/user/Laser_Move\Servo_Move.c **** 								*Y = My_CoordinateData[1];			/* Y坐标 */						
 773              		.loc 1 119 9 is_stmt 1 view .LVU197
 119:E:/MCU_Project/stm32/Target_tracking/user/Laser_Move\Servo_Move.c **** 								*Y = My_CoordinateData[1];			/* Y坐标 */						
 774              		.loc 1 119 31 is_stmt 0 view .LVU198
 775 0034 1F4B     		ldr	r3, .L52+12
 776              	.LVL72:
 119:E:/MCU_Project/stm32/Target_tracking/user/Laser_Move\Servo_Move.c **** 								*Y = My_CoordinateData[1];			/* Y坐标 */						
 777              		.loc 1 119 31 view .LVU199
 778 0036 1A88     		ldrh	r2, [r3]
 119:E:/MCU_Project/stm32/Target_tracking/user/Laser_Move\Servo_Move.c **** 								*Y = My_CoordinateData[1];			/* Y坐标 */						
 779              		.loc 1 119 12 view .LVU200
 780 0038 0280     		strh	r2, [r0]	@ movhi
 120:E:/MCU_Project/stm32/Target_tracking/user/Laser_Move\Servo_Move.c **** 								
 781              		.loc 1 120 9 is_stmt 1 view .LVU201
 120:E:/MCU_Project/stm32/Target_tracking/user/Laser_Move\Servo_Move.c **** 								
 782              		.loc 1 120 31 is_stmt 0 view .LVU202
 783 003a 5B88     		ldrh	r3, [r3, #2]
 120:E:/MCU_Project/stm32/Target_tracking/user/Laser_Move\Servo_Move.c **** 								
 784              		.loc 1 120 12 view .LVU203
 785 003c 0B80     		strh	r3, [r1]	@ movhi
 122:E:/MCU_Project/stm32/Target_tracking/user/Laser_Move\Servo_Move.c **** 								Data_StartGet=0;
 786              		.loc 1 122 9 is_stmt 1 view .LVU204
 122:E:/MCU_Project/stm32/Target_tracking/user/Laser_Move\Servo_Move.c **** 								Data_StartGet=0;
 787              		.loc 1 122 23 is_stmt 0 view .LVU205
 788 003e 0023     		movs	r3, #0
 789 0040 194A     		ldr	r2, .L52
 790 0042 1370     		strb	r3, [r2]
 123:E:/MCU_Project/stm32/Target_tracking/user/Laser_Move\Servo_Move.c **** 								
 791              		.loc 1 123 9 is_stmt 1 view .LVU206
 123:E:/MCU_Project/stm32/Target_tracking/user/Laser_Move\Servo_Move.c **** 								
 792              		.loc 1 123 22 is_stmt 0 view .LVU207
 793 0044 1C4A     		ldr	r2, .L52+16
 794 0046 1370     		strb	r3, [r2]
 125:E:/MCU_Project/stm32/Target_tracking/user/Laser_Move\Servo_Move.c **** 						}
 795              		.loc 1 125 9 is_stmt 1 view .LVU208
 125:E:/MCU_Project/stm32/Target_tracking/user/Laser_Move\Servo_Move.c **** 						}
 796              		.loc 1 125 27 is_stmt 0 view .LVU209
 797 0048 184A     		ldr	r2, .L52+4
 798 004a 1370     		strb	r3, [r2]
 799              	.LVL73:
 800              	.L39:
 131:E:/MCU_Project/stm32/Target_tracking/user/Laser_Move\Servo_Move.c **** 								{
 132:E:/MCU_Project/stm32/Target_tracking/user/Laser_Move\Servo_Move.c **** 										My_CoordinateData[time] = (ShijueRecv_Buffer[time*2+1]<<8)|ShijueRecv_Buffer[time*2];
 133:E:/MCU_Project/stm32/Target_tracking/user/Laser_Move\Servo_Move.c **** 								}
 134:E:/MCU_Project/stm32/Target_tracking/user/Laser_Move\Servo_Move.c **** 		
 135:E:/MCU_Project/stm32/Target_tracking/user/Laser_Move\Servo_Move.c **** 								*X = My_CoordinateData[0];			/* X坐标 */
 136:E:/MCU_Project/stm32/Target_tracking/user/Laser_Move\Servo_Move.c **** 								*Y = My_CoordinateData[1];			/* Y坐标 */
 137:E:/MCU_Project/stm32/Target_tracking/user/Laser_Move\Servo_Move.c **** 
 138:E:/MCU_Project/stm32/Target_tracking/user/Laser_Move\Servo_Move.c **** 								for(uint8_t time=0;time<8;time++)		/* 矩形框四点坐标获取 */
 139:E:/MCU_Project/stm32/Target_tracking/user/Laser_Move\Servo_Move.c **** 								{
 140:E:/MCU_Project/stm32/Target_tracking/user/Laser_Move\Servo_Move.c **** 										rectangle_XY[time] = My_CoordinateData[time+2];
ARM GAS  C:\Users\86390\AppData\Local\Temp\cc4iGm64.s 			page 20


 141:E:/MCU_Project/stm32/Target_tracking/user/Laser_Move\Servo_Move.c **** 								}
 142:E:/MCU_Project/stm32/Target_tracking/user/Laser_Move\Servo_Move.c **** 								
 143:E:/MCU_Project/stm32/Target_tracking/user/Laser_Move\Servo_Move.c **** 								Data_FinishGet=0;			/* 及时清除接收完成标志位 */
 144:E:/MCU_Project/stm32/Target_tracking/user/Laser_Move\Servo_Move.c **** 								Data_StartGet=0;
 145:E:/MCU_Project/stm32/Target_tracking/user/Laser_Move\Servo_Move.c **** 																
 146:E:/MCU_Project/stm32/Target_tracking/user/Laser_Move\Servo_Move.c **** 						}
 147:E:/MCU_Project/stm32/Target_tracking/user/Laser_Move\Servo_Move.c **** 						
 148:E:/MCU_Project/stm32/Target_tracking/user/Laser_Move\Servo_Move.c **** 			}
 149:E:/MCU_Project/stm32/Target_tracking/user/Laser_Move\Servo_Move.c **** 	
 150:E:/MCU_Project/stm32/Target_tracking/user/Laser_Move\Servo_Move.c **** }
 801              		.loc 1 150 1 view .LVU210
 802 004c 10BD     		pop	{r4, pc}
 803              	.LVL74:
 804              	.L47:
 805              	.LBB8:
 114:E:/MCU_Project/stm32/Target_tracking/user/Laser_Move\Servo_Move.c **** 								{
 806              		.loc 1 114 21 view .LVU211
 807 004e 0023     		movs	r3, #0
 808 0050 EEE7     		b	.L41
 809              	.LVL75:
 810              	.L44:
 114:E:/MCU_Project/stm32/Target_tracking/user/Laser_Move\Servo_Move.c **** 								{
 811              		.loc 1 114 21 view .LVU212
 812              	.LBE8:
 813              	.LBB9:
 132:E:/MCU_Project/stm32/Target_tracking/user/Laser_Move\Servo_Move.c **** 								}
 814              		.loc 1 132 11 is_stmt 1 discriminator 3 view .LVU213
 132:E:/MCU_Project/stm32/Target_tracking/user/Laser_Move\Servo_Move.c **** 								}
 815              		.loc 1 132 60 is_stmt 0 discriminator 3 view .LVU214
 816 0052 4FEA430C 		lsl	ip, r3, #1
 132:E:/MCU_Project/stm32/Target_tracking/user/Laser_Move\Servo_Move.c **** 								}
 817              		.loc 1 132 62 discriminator 3 view .LVU215
 818 0056 0CF1010C 		add	ip, ip, #1
 132:E:/MCU_Project/stm32/Target_tracking/user/Laser_Move\Servo_Move.c **** 								}
 819              		.loc 1 132 55 discriminator 3 view .LVU216
 820 005a 154C     		ldr	r4, .L52+8
 821 005c 14F80CE0 		ldrb	lr, [r4, ip]	@ zero_extendqisi2
 132:E:/MCU_Project/stm32/Target_tracking/user/Laser_Move\Servo_Move.c **** 								}
 822              		.loc 1 132 87 discriminator 3 view .LVU217
 823 0060 14F813C0 		ldrb	ip, [r4, r3, lsl #1]	@ zero_extendqisi2
 132:E:/MCU_Project/stm32/Target_tracking/user/Laser_Move\Servo_Move.c **** 								}
 824              		.loc 1 132 69 discriminator 3 view .LVU218
 825 0064 4CEA0E2C 		orr	ip, ip, lr, lsl #8
 132:E:/MCU_Project/stm32/Target_tracking/user/Laser_Move\Servo_Move.c **** 								}
 826              		.loc 1 132 35 discriminator 3 view .LVU219
 827 0068 124C     		ldr	r4, .L52+12
 828 006a 24F813C0 		strh	ip, [r4, r3, lsl #1]	@ movhi
 130:E:/MCU_Project/stm32/Target_tracking/user/Laser_Move\Servo_Move.c **** 								{
 829              		.loc 1 130 36 is_stmt 1 discriminator 3 view .LVU220
 130:E:/MCU_Project/stm32/Target_tracking/user/Laser_Move\Servo_Move.c **** 								{
 830              		.loc 1 130 40 is_stmt 0 discriminator 3 view .LVU221
 831 006e 0133     		adds	r3, r3, #1
 832              	.LVL76:
 130:E:/MCU_Project/stm32/Target_tracking/user/Laser_Move\Servo_Move.c **** 								{
 833              		.loc 1 130 40 discriminator 3 view .LVU222
 834 0070 DBB2     		uxtb	r3, r3
 835              	.LVL77:
ARM GAS  C:\Users\86390\AppData\Local\Temp\cc4iGm64.s 			page 21


 836              	.L42:
 130:E:/MCU_Project/stm32/Target_tracking/user/Laser_Move\Servo_Move.c **** 								{
 837              		.loc 1 130 28 is_stmt 1 discriminator 1 view .LVU223
 130:E:/MCU_Project/stm32/Target_tracking/user/Laser_Move\Servo_Move.c **** 								{
 838              		.loc 1 130 9 is_stmt 0 discriminator 1 view .LVU224
 839 0072 092B     		cmp	r3, #9
 840 0074 EDD9     		bls	.L44
 841              	.LBE9:
 135:E:/MCU_Project/stm32/Target_tracking/user/Laser_Move\Servo_Move.c **** 								*Y = My_CoordinateData[1];			/* Y坐标 */
 842              		.loc 1 135 9 is_stmt 1 view .LVU225
 135:E:/MCU_Project/stm32/Target_tracking/user/Laser_Move\Servo_Move.c **** 								*Y = My_CoordinateData[1];			/* Y坐标 */
 843              		.loc 1 135 31 is_stmt 0 view .LVU226
 844 0076 0F4B     		ldr	r3, .L52+12
 845              	.LVL78:
 135:E:/MCU_Project/stm32/Target_tracking/user/Laser_Move\Servo_Move.c **** 								*Y = My_CoordinateData[1];			/* Y坐标 */
 846              		.loc 1 135 31 view .LVU227
 847 0078 1C88     		ldrh	r4, [r3]
 135:E:/MCU_Project/stm32/Target_tracking/user/Laser_Move\Servo_Move.c **** 								*Y = My_CoordinateData[1];			/* Y坐标 */
 848              		.loc 1 135 12 view .LVU228
 849 007a 0480     		strh	r4, [r0]	@ movhi
 136:E:/MCU_Project/stm32/Target_tracking/user/Laser_Move\Servo_Move.c **** 
 850              		.loc 1 136 9 is_stmt 1 view .LVU229
 136:E:/MCU_Project/stm32/Target_tracking/user/Laser_Move\Servo_Move.c **** 
 851              		.loc 1 136 31 is_stmt 0 view .LVU230
 852 007c 5B88     		ldrh	r3, [r3, #2]
 136:E:/MCU_Project/stm32/Target_tracking/user/Laser_Move\Servo_Move.c **** 
 853              		.loc 1 136 12 view .LVU231
 854 007e 0B80     		strh	r3, [r1]	@ movhi
 138:E:/MCU_Project/stm32/Target_tracking/user/Laser_Move\Servo_Move.c **** 								{
 855              		.loc 1 138 9 is_stmt 1 view .LVU232
 856              	.LBB10:
 138:E:/MCU_Project/stm32/Target_tracking/user/Laser_Move\Servo_Move.c **** 								{
 857              		.loc 1 138 13 view .LVU233
 858              	.LVL79:
 138:E:/MCU_Project/stm32/Target_tracking/user/Laser_Move\Servo_Move.c **** 								{
 859              		.loc 1 138 9 is_stmt 0 view .LVU234
 860 0080 08E0     		b	.L45
 861              	.LVL80:
 862              	.L46:
 140:E:/MCU_Project/stm32/Target_tracking/user/Laser_Move\Servo_Move.c **** 								}
 863              		.loc 1 140 11 is_stmt 1 discriminator 3 view .LVU235
 140:E:/MCU_Project/stm32/Target_tracking/user/Laser_Move\Servo_Move.c **** 								}
 864              		.loc 1 140 54 is_stmt 0 discriminator 3 view .LVU236
 865 0082 911C     		adds	r1, r2, #2
 140:E:/MCU_Project/stm32/Target_tracking/user/Laser_Move\Servo_Move.c **** 								}
 866              		.loc 1 140 49 discriminator 3 view .LVU237
 867 0084 0B4B     		ldr	r3, .L52+12
 868 0086 33F81110 		ldrh	r1, [r3, r1, lsl #1]
 140:E:/MCU_Project/stm32/Target_tracking/user/Laser_Move\Servo_Move.c **** 								}
 869              		.loc 1 140 30 discriminator 3 view .LVU238
 870 008a 0C4B     		ldr	r3, .L52+20
 871 008c 43F82210 		str	r1, [r3, r2, lsl #2]
 138:E:/MCU_Project/stm32/Target_tracking/user/Laser_Move\Servo_Move.c **** 								{
 872              		.loc 1 138 35 is_stmt 1 discriminator 3 view .LVU239
 138:E:/MCU_Project/stm32/Target_tracking/user/Laser_Move\Servo_Move.c **** 								{
 873              		.loc 1 138 39 is_stmt 0 discriminator 3 view .LVU240
 874 0090 0132     		adds	r2, r2, #1
ARM GAS  C:\Users\86390\AppData\Local\Temp\cc4iGm64.s 			page 22


 875              	.LVL81:
 138:E:/MCU_Project/stm32/Target_tracking/user/Laser_Move\Servo_Move.c **** 								{
 876              		.loc 1 138 39 discriminator 3 view .LVU241
 877 0092 D2B2     		uxtb	r2, r2
 878              	.LVL82:
 879              	.L45:
 138:E:/MCU_Project/stm32/Target_tracking/user/Laser_Move\Servo_Move.c **** 								{
 880              		.loc 1 138 28 is_stmt 1 discriminator 1 view .LVU242
 138:E:/MCU_Project/stm32/Target_tracking/user/Laser_Move\Servo_Move.c **** 								{
 881              		.loc 1 138 9 is_stmt 0 discriminator 1 view .LVU243
 882 0094 072A     		cmp	r2, #7
 883 0096 F4D9     		bls	.L46
 884              	.LBE10:
 143:E:/MCU_Project/stm32/Target_tracking/user/Laser_Move\Servo_Move.c **** 								Data_StartGet=0;
 885              		.loc 1 143 9 is_stmt 1 view .LVU244
 143:E:/MCU_Project/stm32/Target_tracking/user/Laser_Move\Servo_Move.c **** 								Data_StartGet=0;
 886              		.loc 1 143 23 is_stmt 0 view .LVU245
 887 0098 0023     		movs	r3, #0
 888 009a 034A     		ldr	r2, .L52
 889              	.LVL83:
 143:E:/MCU_Project/stm32/Target_tracking/user/Laser_Move\Servo_Move.c **** 								Data_StartGet=0;
 890              		.loc 1 143 23 view .LVU246
 891 009c 1370     		strb	r3, [r2]
 144:E:/MCU_Project/stm32/Target_tracking/user/Laser_Move\Servo_Move.c **** 																
 892              		.loc 1 144 9 is_stmt 1 view .LVU247
 144:E:/MCU_Project/stm32/Target_tracking/user/Laser_Move\Servo_Move.c **** 																
 893              		.loc 1 144 22 is_stmt 0 view .LVU248
 894 009e 064A     		ldr	r2, .L52+16
 895 00a0 1370     		strb	r3, [r2]
 896              		.loc 1 150 1 view .LVU249
 897 00a2 D3E7     		b	.L39
 898              	.LVL84:
 899              	.L49:
 900              	.LCFI3:
 901              		.cfi_def_cfa_offset 0
 902              		.cfi_restore 4
 903              		.cfi_restore 14
 904              		.loc 1 150 1 view .LVU250
 905 00a4 7047     		bx	lr
 906              	.L53:
 907 00a6 00BF     		.align	2
 908              	.L52:
 909 00a8 00000000 		.word	Data_FinishGet
 910 00ac 00000000 		.word	GetOriginData_Flag
 911 00b0 00000000 		.word	ShijueRecv_Buffer
 912 00b4 00000000 		.word	My_CoordinateData
 913 00b8 00000000 		.word	Data_StartGet
 914 00bc 00000000 		.word	.LANCHOR6
 915              		.cfi_endproc
 916              	.LFE138:
 918              		.section	.text.Get_RectangleXY,"ax",%progbits
 919              		.align	1
 920              		.global	Get_RectangleXY
 921              		.syntax unified
 922              		.thumb
 923              		.thumb_func
 925              	Get_RectangleXY:
ARM GAS  C:\Users\86390\AppData\Local\Temp\cc4iGm64.s 			page 23


 926              	.LVL85:
 927              	.LFB139:
 151:E:/MCU_Project/stm32/Target_tracking/user/Laser_Move\Servo_Move.c **** 
 152:E:/MCU_Project/stm32/Target_tracking/user/Laser_Move\Servo_Move.c **** void Get_RectangleXY(int* RectangleXY)			/* 获取一次矩形框四点的坐标 */
 153:E:/MCU_Project/stm32/Target_tracking/user/Laser_Move\Servo_Move.c **** {
 928              		.loc 1 153 1 is_stmt 1 view -0
 929              		.cfi_startproc
 930              		@ args = 0, pretend = 0, frame = 0
 931              		@ frame_needed = 0, uses_anonymous_args = 0
 932              		@ link register save eliminated.
 154:E:/MCU_Project/stm32/Target_tracking/user/Laser_Move\Servo_Move.c **** 	
 155:E:/MCU_Project/stm32/Target_tracking/user/Laser_Move\Servo_Move.c **** 			if(Data_FinishGet)			/* 串口接收完一次数据后 */
 933              		.loc 1 155 4 view .LVU252
 934              		.loc 1 155 7 is_stmt 0 view .LVU253
 935 0000 134B     		ldr	r3, .L65
 936 0002 1B78     		ldrb	r3, [r3]	@ zero_extendqisi2
 937              		.loc 1 155 6 view .LVU254
 938 0004 03B9     		cbnz	r3, .L58
 939 0006 7047     		bx	lr
 940              	.L58:
 941              	.LBB11:
 156:E:/MCU_Project/stm32/Target_tracking/user/Laser_Move\Servo_Move.c **** 			{
 157:E:/MCU_Project/stm32/Target_tracking/user/Laser_Move\Servo_Move.c **** 						/* 16位数据处理(合成坐标值) */
 158:E:/MCU_Project/stm32/Target_tracking/user/Laser_Move\Servo_Move.c **** 						for(uint8_t time=2;time<10;time++)
 942              		.loc 1 158 19 view .LVU255
 943 0008 0223     		movs	r3, #2
 944              	.LVL86:
 945              		.loc 1 158 26 is_stmt 1 view .LVU256
 946              		.loc 1 158 7 is_stmt 0 view .LVU257
 947 000a 092B     		cmp	r3, #9
 948 000c 1AD8     		bhi	.L64
 949              	.LBE11:
 153:E:/MCU_Project/stm32/Target_tracking/user/Laser_Move\Servo_Move.c **** 	
 950              		.loc 1 153 1 view .LVU258
 951 000e 10B4     		push	{r4}
 952              	.LCFI4:
 953              		.cfi_def_cfa_offset 4
 954              		.cfi_offset 4, -4
 955              	.L57:
 956              	.LBB12:
 159:E:/MCU_Project/stm32/Target_tracking/user/Laser_Move\Servo_Move.c **** 						{
 160:E:/MCU_Project/stm32/Target_tracking/user/Laser_Move\Servo_Move.c **** 								RectangleXY[time-2] = (ShijueRecv_Buffer[time*2+1]<<8)|ShijueRecv_Buffer[time*2];
 957              		.loc 1 160 9 is_stmt 1 discriminator 3 view .LVU259
 958              		.loc 1 160 54 is_stmt 0 discriminator 3 view .LVU260
 959 0010 5A00     		lsls	r2, r3, #1
 960              		.loc 1 160 56 discriminator 3 view .LVU261
 961 0012 0132     		adds	r2, r2, #1
 962              		.loc 1 160 49 discriminator 3 view .LVU262
 963 0014 0F4C     		ldr	r4, .L65+4
 964 0016 14F802C0 		ldrb	ip, [r4, r2]	@ zero_extendqisi2
 965              		.loc 1 160 81 discriminator 3 view .LVU263
 966 001a 14F81310 		ldrb	r1, [r4, r3, lsl #1]	@ zero_extendqisi2
 967              		.loc 1 160 20 discriminator 3 view .LVU264
 968 001e 03F18042 		add	r2, r3, #1073741824
 969 0022 023A     		subs	r2, r2, #2
 970              		.loc 1 160 63 discriminator 3 view .LVU265
 971 0024 41EA0C21 		orr	r1, r1, ip, lsl #8
ARM GAS  C:\Users\86390\AppData\Local\Temp\cc4iGm64.s 			page 24


 972              		.loc 1 160 29 discriminator 3 view .LVU266
 973 0028 40F82210 		str	r1, [r0, r2, lsl #2]
 158:E:/MCU_Project/stm32/Target_tracking/user/Laser_Move\Servo_Move.c **** 						{
 974              		.loc 1 158 34 is_stmt 1 discriminator 3 view .LVU267
 158:E:/MCU_Project/stm32/Target_tracking/user/Laser_Move\Servo_Move.c **** 						{
 975              		.loc 1 158 38 is_stmt 0 discriminator 3 view .LVU268
 976 002c 0133     		adds	r3, r3, #1
 977              	.LVL87:
 158:E:/MCU_Project/stm32/Target_tracking/user/Laser_Move\Servo_Move.c **** 						{
 978              		.loc 1 158 38 discriminator 3 view .LVU269
 979 002e DBB2     		uxtb	r3, r3
 980              	.LVL88:
 158:E:/MCU_Project/stm32/Target_tracking/user/Laser_Move\Servo_Move.c **** 						{
 981              		.loc 1 158 26 is_stmt 1 discriminator 3 view .LVU270
 158:E:/MCU_Project/stm32/Target_tracking/user/Laser_Move\Servo_Move.c **** 						{
 982              		.loc 1 158 7 is_stmt 0 discriminator 3 view .LVU271
 983 0030 092B     		cmp	r3, #9
 984 0032 EDD9     		bls	.L57
 985              	.LBE12:
 161:E:/MCU_Project/stm32/Target_tracking/user/Laser_Move\Servo_Move.c **** 						}	
 162:E:/MCU_Project/stm32/Target_tracking/user/Laser_Move\Servo_Move.c **** 						
 163:E:/MCU_Project/stm32/Target_tracking/user/Laser_Move\Servo_Move.c **** 						Data_FinishGet=0;			/* 及时清除接收完成标志位 */
 986              		.loc 1 163 7 is_stmt 1 view .LVU272
 987              		.loc 1 163 21 is_stmt 0 view .LVU273
 988 0034 0023     		movs	r3, #0
 989              	.LVL89:
 990              		.loc 1 163 21 view .LVU274
 991 0036 064A     		ldr	r2, .L65
 992              	.LVL90:
 993              		.loc 1 163 21 view .LVU275
 994 0038 1370     		strb	r3, [r2]
 164:E:/MCU_Project/stm32/Target_tracking/user/Laser_Move\Servo_Move.c **** 						Data_StartGet=0;
 995              		.loc 1 164 7 is_stmt 1 view .LVU276
 996              		.loc 1 164 20 is_stmt 0 view .LVU277
 997 003a 074A     		ldr	r2, .L65+8
 998 003c 1370     		strb	r3, [r2]
 165:E:/MCU_Project/stm32/Target_tracking/user/Laser_Move\Servo_Move.c **** 						
 166:E:/MCU_Project/stm32/Target_tracking/user/Laser_Move\Servo_Move.c **** 			}
 167:E:/MCU_Project/stm32/Target_tracking/user/Laser_Move\Servo_Move.c **** 	
 168:E:/MCU_Project/stm32/Target_tracking/user/Laser_Move\Servo_Move.c **** }
 999              		.loc 1 168 1 view .LVU278
 1000 003e 5DF8044B 		ldr	r4, [sp], #4
 1001              	.LCFI5:
 1002              		.cfi_restore 4
 1003              		.cfi_def_cfa_offset 0
 1004 0042 7047     		bx	lr
 1005              	.LVL91:
 1006              	.L64:
 163:E:/MCU_Project/stm32/Target_tracking/user/Laser_Move\Servo_Move.c **** 						Data_StartGet=0;
 1007              		.loc 1 163 7 is_stmt 1 view .LVU279
 163:E:/MCU_Project/stm32/Target_tracking/user/Laser_Move\Servo_Move.c **** 						Data_StartGet=0;
 1008              		.loc 1 163 21 is_stmt 0 view .LVU280
 1009 0044 0023     		movs	r3, #0
 1010              	.LVL92:
 163:E:/MCU_Project/stm32/Target_tracking/user/Laser_Move\Servo_Move.c **** 						Data_StartGet=0;
 1011              		.loc 1 163 21 view .LVU281
 1012 0046 024A     		ldr	r2, .L65
ARM GAS  C:\Users\86390\AppData\Local\Temp\cc4iGm64.s 			page 25


 1013 0048 1370     		strb	r3, [r2]
 164:E:/MCU_Project/stm32/Target_tracking/user/Laser_Move\Servo_Move.c **** 						Data_StartGet=0;
 1014              		.loc 1 164 7 is_stmt 1 view .LVU282
 164:E:/MCU_Project/stm32/Target_tracking/user/Laser_Move\Servo_Move.c **** 						Data_StartGet=0;
 1015              		.loc 1 164 20 is_stmt 0 view .LVU283
 1016 004a 034A     		ldr	r2, .L65+8
 1017 004c 1370     		strb	r3, [r2]
 1018 004e 7047     		bx	lr
 1019              	.L66:
 1020              		.align	2
 1021              	.L65:
 1022 0050 00000000 		.word	Data_FinishGet
 1023 0054 00000000 		.word	ShijueRecv_Buffer
 1024 0058 00000000 		.word	Data_StartGet
 1025              		.cfi_endproc
 1026              	.LFE139:
 1028              		.section	.text.Set_RectangleXY,"ax",%progbits
 1029              		.align	1
 1030              		.global	Set_RectangleXY
 1031              		.syntax unified
 1032              		.thumb
 1033              		.thumb_func
 1035              	Set_RectangleXY:
 1036              	.LVL93:
 1037              	.LFB140:
 169:E:/MCU_Project/stm32/Target_tracking/user/Laser_Move\Servo_Move.c **** 
 170:E:/MCU_Project/stm32/Target_tracking/user/Laser_Move\Servo_Move.c **** 
 171:E:/MCU_Project/stm32/Target_tracking/user/Laser_Move\Servo_Move.c **** void Set_RectangleXY(int* RectangleXY,int* Set_RectangleXY)			/* 矩形框边框做坐标细分(两点间分多三
 172:E:/MCU_Project/stm32/Target_tracking/user/Laser_Move\Servo_Move.c **** {
 1038              		.loc 1 172 1 is_stmt 1 view -0
 1039              		.cfi_startproc
 1040              		@ args = 0, pretend = 0, frame = 0
 1041              		@ frame_needed = 0, uses_anonymous_args = 0
 1042              		.loc 1 172 1 is_stmt 0 view .LVU285
 1043 0000 2DE9F043 		push	{r4, r5, r6, r7, r8, r9, lr}
 1044              	.LCFI6:
 1045              		.cfi_def_cfa_offset 28
 1046              		.cfi_offset 4, -28
 1047              		.cfi_offset 5, -24
 1048              		.cfi_offset 6, -20
 1049              		.cfi_offset 7, -16
 1050              		.cfi_offset 8, -12
 1051              		.cfi_offset 9, -8
 1052              		.cfi_offset 14, -4
 173:E:/MCU_Project/stm32/Target_tracking/user/Laser_Move\Servo_Move.c **** 		/* 对上边框 */
 174:E:/MCU_Project/stm32/Target_tracking/user/Laser_Move\Servo_Move.c **** 		Set_RectangleXY[0] = rectangle_XY[0];				/* 起始第一个点X */
 1053              		.loc 1 174 3 is_stmt 1 view .LVU286
 1054              		.loc 1 174 36 is_stmt 0 view .LVU287
 1055 0004 524D     		ldr	r5, .L69
 1056 0006 2C68     		ldr	r4, [r5]
 1057              		.loc 1 174 22 view .LVU288
 1058 0008 0C60     		str	r4, [r1]
 175:E:/MCU_Project/stm32/Target_tracking/user/Laser_Move\Servo_Move.c **** 		Set_RectangleXY[1] = rectangle_XY[1];				/* 起始第一个点Y */
 1059              		.loc 1 175 3 is_stmt 1 view .LVU289
 1060              		.loc 1 175 36 is_stmt 0 view .LVU290
 1061 000a 6868     		ldr	r0, [r5, #4]
 1062              	.LVL94:
ARM GAS  C:\Users\86390\AppData\Local\Temp\cc4iGm64.s 			page 26


 1063              		.loc 1 175 22 view .LVU291
 1064 000c 4860     		str	r0, [r1, #4]
 176:E:/MCU_Project/stm32/Target_tracking/user/Laser_Move\Servo_Move.c **** 	
 177:E:/MCU_Project/stm32/Target_tracking/user/Laser_Move\Servo_Move.c **** 		Set_RectangleXY[4] = (rectangle_XY[0]+rectangle_XY[2])/2;				/* 起始中间点X */
 1065              		.loc 1 177 3 is_stmt 1 view .LVU292
 1066              		.loc 1 177 53 is_stmt 0 view .LVU293
 1067 000e AA68     		ldr	r2, [r5, #8]
 1068              		.loc 1 177 40 view .LVU294
 1069 0010 2244     		add	r2, r2, r4
 1070              		.loc 1 177 57 view .LVU295
 1071 0012 02EBD272 		add	r2, r2, r2, lsr #31
 1072 0016 5210     		asrs	r2, r2, #1
 1073              		.loc 1 177 22 view .LVU296
 1074 0018 0A61     		str	r2, [r1, #16]
 178:E:/MCU_Project/stm32/Target_tracking/user/Laser_Move\Servo_Move.c **** 		Set_RectangleXY[5] = (rectangle_XY[1]+rectangle_XY[3])/2;				/* 起始中间点Y */
 1075              		.loc 1 178 3 is_stmt 1 view .LVU297
 1076              		.loc 1 178 53 is_stmt 0 view .LVU298
 1077 001a EB68     		ldr	r3, [r5, #12]
 1078              		.loc 1 178 40 view .LVU299
 1079 001c 0344     		add	r3, r3, r0
 1080              		.loc 1 178 57 view .LVU300
 1081 001e 03EBD373 		add	r3, r3, r3, lsr #31
 1082 0022 5B10     		asrs	r3, r3, #1
 1083              		.loc 1 178 22 view .LVU301
 1084 0024 4B61     		str	r3, [r1, #20]
 179:E:/MCU_Project/stm32/Target_tracking/user/Laser_Move\Servo_Move.c **** 
 180:E:/MCU_Project/stm32/Target_tracking/user/Laser_Move\Servo_Move.c **** 		Set_RectangleXY[2] = (rectangle_XY[0]+Set_RectangleXY[4])/2;		/* 起左点中间点X */
 1085              		.loc 1 180 3 is_stmt 1 view .LVU302
 1086              		.loc 1 180 40 is_stmt 0 view .LVU303
 1087 0026 A618     		adds	r6, r4, r2
 1088              		.loc 1 180 60 view .LVU304
 1089 0028 06EBD676 		add	r6, r6, r6, lsr #31
 1090 002c 7610     		asrs	r6, r6, #1
 1091              		.loc 1 180 22 view .LVU305
 1092 002e 8E60     		str	r6, [r1, #8]
 181:E:/MCU_Project/stm32/Target_tracking/user/Laser_Move\Servo_Move.c **** 		Set_RectangleXY[3] = (rectangle_XY[1]+Set_RectangleXY[5])/2;		/* 起左点中间点Y */
 1093              		.loc 1 181 3 is_stmt 1 view .LVU306
 1094              		.loc 1 181 40 is_stmt 0 view .LVU307
 1095 0030 C618     		adds	r6, r0, r3
 1096              		.loc 1 181 60 view .LVU308
 1097 0032 06EBD676 		add	r6, r6, r6, lsr #31
 1098 0036 7610     		asrs	r6, r6, #1
 1099              		.loc 1 181 22 view .LVU309
 1100 0038 CE60     		str	r6, [r1, #12]
 182:E:/MCU_Project/stm32/Target_tracking/user/Laser_Move\Servo_Move.c **** 
 183:E:/MCU_Project/stm32/Target_tracking/user/Laser_Move\Servo_Move.c **** 		Set_RectangleXY[6] = (rectangle_XY[2]+Set_RectangleXY[4])/2;		/* 起右点中间点X */
 1101              		.loc 1 183 3 is_stmt 1 view .LVU310
 1102              		.loc 1 183 37 is_stmt 0 view .LVU311
 1103 003a D5F80890 		ldr	r9, [r5, #8]
 1104              		.loc 1 183 40 view .LVU312
 1105 003e 4A44     		add	r2, r2, r9
 1106              		.loc 1 183 60 view .LVU313
 1107 0040 02EBD272 		add	r2, r2, r2, lsr #31
 1108 0044 5210     		asrs	r2, r2, #1
 1109              		.loc 1 183 22 view .LVU314
 1110 0046 8A61     		str	r2, [r1, #24]
 184:E:/MCU_Project/stm32/Target_tracking/user/Laser_Move\Servo_Move.c **** 		Set_RectangleXY[7] = (rectangle_XY[3]+Set_RectangleXY[5])/2;		/* 起右点中间点Y */
ARM GAS  C:\Users\86390\AppData\Local\Temp\cc4iGm64.s 			page 27


 1111              		.loc 1 184 3 is_stmt 1 view .LVU315
 1112              		.loc 1 184 37 is_stmt 0 view .LVU316
 1113 0048 D5F80C80 		ldr	r8, [r5, #12]
 1114              		.loc 1 184 40 view .LVU317
 1115 004c 4344     		add	r3, r3, r8
 1116              		.loc 1 184 60 view .LVU318
 1117 004e 03EBD373 		add	r3, r3, r3, lsr #31
 1118 0052 5B10     		asrs	r3, r3, #1
 1119              		.loc 1 184 22 view .LVU319
 1120 0054 CB61     		str	r3, [r1, #28]
 185:E:/MCU_Project/stm32/Target_tracking/user/Laser_Move\Servo_Move.c **** 
 186:E:/MCU_Project/stm32/Target_tracking/user/Laser_Move\Servo_Move.c **** 	
 187:E:/MCU_Project/stm32/Target_tracking/user/Laser_Move\Servo_Move.c **** 		/* 对右边框 */	
 188:E:/MCU_Project/stm32/Target_tracking/user/Laser_Move\Servo_Move.c **** 		Set_RectangleXY[8] = rectangle_XY[2];				/* 起始第二个点X */
 1121              		.loc 1 188 3 is_stmt 1 view .LVU320
 1122              		.loc 1 188 22 is_stmt 0 view .LVU321
 1123 0056 C1F82090 		str	r9, [r1, #32]
 189:E:/MCU_Project/stm32/Target_tracking/user/Laser_Move\Servo_Move.c **** 		Set_RectangleXY[9] = rectangle_XY[3];				/* 起始第二个点Y */	
 1124              		.loc 1 189 3 is_stmt 1 view .LVU322
 1125              		.loc 1 189 22 is_stmt 0 view .LVU323
 1126 005a C1F82480 		str	r8, [r1, #36]
 190:E:/MCU_Project/stm32/Target_tracking/user/Laser_Move\Servo_Move.c **** 	
 191:E:/MCU_Project/stm32/Target_tracking/user/Laser_Move\Servo_Move.c **** 		Set_RectangleXY[12] = (rectangle_XY[2]+rectangle_XY[6])/2;				/* 起始中间点X */
 1127              		.loc 1 191 3 is_stmt 1 view .LVU324
 1128              		.loc 1 191 54 is_stmt 0 view .LVU325
 1129 005e AF69     		ldr	r7, [r5, #24]
 1130              		.loc 1 191 41 view .LVU326
 1131 0060 09EB0703 		add	r3, r9, r7
 1132              		.loc 1 191 58 view .LVU327
 1133 0064 03EBD373 		add	r3, r3, r3, lsr #31
 1134 0068 4FEA630E 		asr	lr, r3, #1
 1135              		.loc 1 191 23 view .LVU328
 1136 006c C1F830E0 		str	lr, [r1, #48]
 192:E:/MCU_Project/stm32/Target_tracking/user/Laser_Move\Servo_Move.c **** 		Set_RectangleXY[13] = (rectangle_XY[3]+rectangle_XY[7])/2;				/* 起始中间点Y */
 1137              		.loc 1 192 3 is_stmt 1 view .LVU329
 1138              		.loc 1 192 54 is_stmt 0 view .LVU330
 1139 0070 EE69     		ldr	r6, [r5, #28]
 1140              		.loc 1 192 41 view .LVU331
 1141 0072 08EB060C 		add	ip, r8, r6
 1142              		.loc 1 192 58 view .LVU332
 1143 0076 0CEBDC7C 		add	ip, ip, ip, lsr #31
 1144 007a 4FEA6C0C 		asr	ip, ip, #1
 1145              		.loc 1 192 23 view .LVU333
 1146 007e C1F834C0 		str	ip, [r1, #52]
 193:E:/MCU_Project/stm32/Target_tracking/user/Laser_Move\Servo_Move.c **** 
 194:E:/MCU_Project/stm32/Target_tracking/user/Laser_Move\Servo_Move.c **** 		Set_RectangleXY[10] = (rectangle_XY[2]+Set_RectangleXY[12])/2;		/* 起左点中间点X */
 1147              		.loc 1 194 3 is_stmt 1 view .LVU334
 1148              		.loc 1 194 41 is_stmt 0 view .LVU335
 1149 0082 09EB0E02 		add	r2, r9, lr
 1150              		.loc 1 194 62 view .LVU336
 1151 0086 02EBD272 		add	r2, r2, r2, lsr #31
 1152 008a 5210     		asrs	r2, r2, #1
 1153              		.loc 1 194 23 view .LVU337
 1154 008c 8A62     		str	r2, [r1, #40]
 195:E:/MCU_Project/stm32/Target_tracking/user/Laser_Move\Servo_Move.c **** 		Set_RectangleXY[11] = (rectangle_XY[3]+Set_RectangleXY[13])/2;		/* 起左点中间点Y */
 1155              		.loc 1 195 3 is_stmt 1 view .LVU338
 1156              		.loc 1 195 41 is_stmt 0 view .LVU339
ARM GAS  C:\Users\86390\AppData\Local\Temp\cc4iGm64.s 			page 28


 1157 008e 08EB0C03 		add	r3, r8, ip
 1158              		.loc 1 195 62 view .LVU340
 1159 0092 03EBD373 		add	r3, r3, r3, lsr #31
 1160 0096 5B10     		asrs	r3, r3, #1
 1161              		.loc 1 195 23 view .LVU341
 1162 0098 CB62     		str	r3, [r1, #44]
 196:E:/MCU_Project/stm32/Target_tracking/user/Laser_Move\Servo_Move.c **** 
 197:E:/MCU_Project/stm32/Target_tracking/user/Laser_Move\Servo_Move.c **** 		Set_RectangleXY[14] = (rectangle_XY[6]+Set_RectangleXY[12])/2;		/* 起右点中间点X */
 1163              		.loc 1 197 3 is_stmt 1 view .LVU342
 1164              		.loc 1 197 41 is_stmt 0 view .LVU343
 1165 009a 07EB0E03 		add	r3, r7, lr
 1166              		.loc 1 197 62 view .LVU344
 1167 009e 03EBD373 		add	r3, r3, r3, lsr #31
 1168 00a2 5B10     		asrs	r3, r3, #1
 1169              		.loc 1 197 23 view .LVU345
 1170 00a4 8B63     		str	r3, [r1, #56]
 198:E:/MCU_Project/stm32/Target_tracking/user/Laser_Move\Servo_Move.c **** 		Set_RectangleXY[15] = (rectangle_XY[7]+Set_RectangleXY[13])/2;		/* 起右点中间点Y */
 1171              		.loc 1 198 3 is_stmt 1 view .LVU346
 1172              		.loc 1 198 41 is_stmt 0 view .LVU347
 1173 00a6 B444     		add	ip, ip, r6
 1174              		.loc 1 198 62 view .LVU348
 1175 00a8 0CEBDC7C 		add	ip, ip, ip, lsr #31
 1176 00ac 4FEA6C03 		asr	r3, ip, #1
 1177              		.loc 1 198 23 view .LVU349
 1178 00b0 CB63     		str	r3, [r1, #60]
 199:E:/MCU_Project/stm32/Target_tracking/user/Laser_Move\Servo_Move.c **** 
 200:E:/MCU_Project/stm32/Target_tracking/user/Laser_Move\Servo_Move.c **** 
 201:E:/MCU_Project/stm32/Target_tracking/user/Laser_Move\Servo_Move.c **** 		/* 对下边框 */
 202:E:/MCU_Project/stm32/Target_tracking/user/Laser_Move\Servo_Move.c **** 		Set_RectangleXY[16] = rectangle_XY[4];				/* 起始第三个点X */
 1179              		.loc 1 202 3 is_stmt 1 view .LVU350
 1180              		.loc 1 202 37 is_stmt 0 view .LVU351
 1181 00b2 2A69     		ldr	r2, [r5, #16]
 1182              		.loc 1 202 23 view .LVU352
 1183 00b4 0A64     		str	r2, [r1, #64]
 203:E:/MCU_Project/stm32/Target_tracking/user/Laser_Move\Servo_Move.c **** 		Set_RectangleXY[17] = rectangle_XY[5];				/* 起始第三个点Y */					
 1184              		.loc 1 203 3 is_stmt 1 view .LVU353
 1185              		.loc 1 203 37 is_stmt 0 view .LVU354
 1186 00b6 6B69     		ldr	r3, [r5, #20]
 1187              		.loc 1 203 23 view .LVU355
 1188 00b8 4B64     		str	r3, [r1, #68]
 204:E:/MCU_Project/stm32/Target_tracking/user/Laser_Move\Servo_Move.c **** 		
 205:E:/MCU_Project/stm32/Target_tracking/user/Laser_Move\Servo_Move.c **** 		Set_RectangleXY[20] = (rectangle_XY[6]+rectangle_XY[4])/2;				/* 起始中间点X */
 1189              		.loc 1 205 3 is_stmt 1 view .LVU356
 1190              		.loc 1 205 41 is_stmt 0 view .LVU357
 1191 00ba BD18     		adds	r5, r7, r2
 1192              		.loc 1 205 58 view .LVU358
 1193 00bc 05EBD575 		add	r5, r5, r5, lsr #31
 1194 00c0 6D10     		asrs	r5, r5, #1
 1195              		.loc 1 205 23 view .LVU359
 1196 00c2 0D65     		str	r5, [r1, #80]
 206:E:/MCU_Project/stm32/Target_tracking/user/Laser_Move\Servo_Move.c **** 		Set_RectangleXY[21] = (rectangle_XY[7]+rectangle_XY[5])/2;				/* 起始中间点Y */
 1197              		.loc 1 206 3 is_stmt 1 view .LVU360
 1198              		.loc 1 206 41 is_stmt 0 view .LVU361
 1199 00c4 06EB030C 		add	ip, r6, r3
 1200              		.loc 1 206 58 view .LVU362
 1201 00c8 0CEBDC7C 		add	ip, ip, ip, lsr #31
 1202 00cc 4FEA6C0C 		asr	ip, ip, #1
ARM GAS  C:\Users\86390\AppData\Local\Temp\cc4iGm64.s 			page 29


 1203              		.loc 1 206 23 view .LVU363
 1204 00d0 C1F854C0 		str	ip, [r1, #84]
 207:E:/MCU_Project/stm32/Target_tracking/user/Laser_Move\Servo_Move.c **** 
 208:E:/MCU_Project/stm32/Target_tracking/user/Laser_Move\Servo_Move.c **** 		Set_RectangleXY[18] = (rectangle_XY[6]+Set_RectangleXY[20])/2;		/* 起左点中间点X */
 1205              		.loc 1 208 3 is_stmt 1 view .LVU364
 1206              		.loc 1 208 41 is_stmt 0 view .LVU365
 1207 00d4 07EB050E 		add	lr, r7, r5
 1208              		.loc 1 208 62 view .LVU366
 1209 00d8 0EEBDE7E 		add	lr, lr, lr, lsr #31
 1210 00dc 4FEA6E0E 		asr	lr, lr, #1
 1211              		.loc 1 208 23 view .LVU367
 1212 00e0 C1F848E0 		str	lr, [r1, #72]
 209:E:/MCU_Project/stm32/Target_tracking/user/Laser_Move\Servo_Move.c **** 		Set_RectangleXY[19] = (rectangle_XY[7]+Set_RectangleXY[21])/2;		/* 起左点中间点Y */
 1213              		.loc 1 209 3 is_stmt 1 view .LVU368
 1214              		.loc 1 209 41 is_stmt 0 view .LVU369
 1215 00e4 06EB0C0E 		add	lr, r6, ip
 1216              		.loc 1 209 62 view .LVU370
 1217 00e8 0EEBDE7E 		add	lr, lr, lr, lsr #31
 1218 00ec 4FEA6E0E 		asr	lr, lr, #1
 1219              		.loc 1 209 23 view .LVU371
 1220 00f0 C1F84CE0 		str	lr, [r1, #76]
 210:E:/MCU_Project/stm32/Target_tracking/user/Laser_Move\Servo_Move.c **** 
 211:E:/MCU_Project/stm32/Target_tracking/user/Laser_Move\Servo_Move.c **** 		Set_RectangleXY[22] = (rectangle_XY[4]+Set_RectangleXY[20])/2;		/* 起右点中间点X */
 1221              		.loc 1 211 3 is_stmt 1 view .LVU372
 1222              		.loc 1 211 41 is_stmt 0 view .LVU373
 1223 00f4 1544     		add	r5, r5, r2
 1224              		.loc 1 211 62 view .LVU374
 1225 00f6 05EBD575 		add	r5, r5, r5, lsr #31
 1226 00fa 6D10     		asrs	r5, r5, #1
 1227              		.loc 1 211 23 view .LVU375
 1228 00fc 8D65     		str	r5, [r1, #88]
 212:E:/MCU_Project/stm32/Target_tracking/user/Laser_Move\Servo_Move.c **** 		Set_RectangleXY[23] = (rectangle_XY[5]+Set_RectangleXY[21])/2;		/* 起右点中间点Y */		
 1229              		.loc 1 212 3 is_stmt 1 view .LVU376
 1230              		.loc 1 212 41 is_stmt 0 view .LVU377
 1231 00fe 9C44     		add	ip, ip, r3
 1232              		.loc 1 212 62 view .LVU378
 1233 0100 0CEBDC7C 		add	ip, ip, ip, lsr #31
 1234 0104 4FEA6C05 		asr	r5, ip, #1
 1235              		.loc 1 212 23 view .LVU379
 1236 0108 CD65     		str	r5, [r1, #92]
 213:E:/MCU_Project/stm32/Target_tracking/user/Laser_Move\Servo_Move.c **** 
 214:E:/MCU_Project/stm32/Target_tracking/user/Laser_Move\Servo_Move.c **** 
 215:E:/MCU_Project/stm32/Target_tracking/user/Laser_Move\Servo_Move.c **** 		/* 对左边框 */
 216:E:/MCU_Project/stm32/Target_tracking/user/Laser_Move\Servo_Move.c **** 		Set_RectangleXY[24] = rectangle_XY[6];				/* 起始第四个点X */
 1237              		.loc 1 216 3 is_stmt 1 view .LVU380
 1238              		.loc 1 216 23 is_stmt 0 view .LVU381
 1239 010a 0F66     		str	r7, [r1, #96]
 217:E:/MCU_Project/stm32/Target_tracking/user/Laser_Move\Servo_Move.c **** 		Set_RectangleXY[25] = rectangle_XY[7];				/* 起始第四个点Y */			
 1240              		.loc 1 217 3 is_stmt 1 view .LVU382
 1241              		.loc 1 217 23 is_stmt 0 view .LVU383
 1242 010c 4E66     		str	r6, [r1, #100]
 218:E:/MCU_Project/stm32/Target_tracking/user/Laser_Move\Servo_Move.c **** 		
 219:E:/MCU_Project/stm32/Target_tracking/user/Laser_Move\Servo_Move.c **** 		Set_RectangleXY[28] = (rectangle_XY[4]+rectangle_XY[0])/2;				/* 起始中间点X */
 1243              		.loc 1 219 3 is_stmt 1 view .LVU384
 1244              		.loc 1 219 41 is_stmt 0 view .LVU385
 1245 010e A618     		adds	r6, r4, r2
 1246              		.loc 1 219 58 view .LVU386
ARM GAS  C:\Users\86390\AppData\Local\Temp\cc4iGm64.s 			page 30


 1247 0110 06EBD676 		add	r6, r6, r6, lsr #31
 1248 0114 7610     		asrs	r6, r6, #1
 1249              		.loc 1 219 23 view .LVU387
 1250 0116 0E67     		str	r6, [r1, #112]
 220:E:/MCU_Project/stm32/Target_tracking/user/Laser_Move\Servo_Move.c **** 		Set_RectangleXY[29] = (rectangle_XY[5]+rectangle_XY[1])/2;				/* 起始中间点Y */
 1251              		.loc 1 220 3 is_stmt 1 view .LVU388
 1252              		.loc 1 220 41 is_stmt 0 view .LVU389
 1253 0118 C518     		adds	r5, r0, r3
 1254              		.loc 1 220 58 view .LVU390
 1255 011a 05EBD575 		add	r5, r5, r5, lsr #31
 1256 011e 6D10     		asrs	r5, r5, #1
 1257              		.loc 1 220 23 view .LVU391
 1258 0120 4D67     		str	r5, [r1, #116]
 221:E:/MCU_Project/stm32/Target_tracking/user/Laser_Move\Servo_Move.c **** 
 222:E:/MCU_Project/stm32/Target_tracking/user/Laser_Move\Servo_Move.c **** 		Set_RectangleXY[26] = (rectangle_XY[4]+Set_RectangleXY[28])/2;		/* 起左点中间点X */
 1259              		.loc 1 222 3 is_stmt 1 view .LVU392
 1260              		.loc 1 222 41 is_stmt 0 view .LVU393
 1261 0122 3244     		add	r2, r2, r6
 1262              		.loc 1 222 62 view .LVU394
 1263 0124 02EBD272 		add	r2, r2, r2, lsr #31
 1264 0128 5210     		asrs	r2, r2, #1
 1265              		.loc 1 222 23 view .LVU395
 1266 012a 8A66     		str	r2, [r1, #104]
 223:E:/MCU_Project/stm32/Target_tracking/user/Laser_Move\Servo_Move.c **** 		Set_RectangleXY[27] = (rectangle_XY[5]+Set_RectangleXY[29])/2;		/* 起左点中间点Y */
 1267              		.loc 1 223 3 is_stmt 1 view .LVU396
 1268              		.loc 1 223 41 is_stmt 0 view .LVU397
 1269 012c 2B44     		add	r3, r3, r5
 1270              		.loc 1 223 62 view .LVU398
 1271 012e 03EBD373 		add	r3, r3, r3, lsr #31
 1272 0132 5B10     		asrs	r3, r3, #1
 1273              		.loc 1 223 23 view .LVU399
 1274 0134 CB66     		str	r3, [r1, #108]
 224:E:/MCU_Project/stm32/Target_tracking/user/Laser_Move\Servo_Move.c **** 
 225:E:/MCU_Project/stm32/Target_tracking/user/Laser_Move\Servo_Move.c **** 		Set_RectangleXY[30] = (rectangle_XY[0]+Set_RectangleXY[28])/2;		/* 起右点中间点X */
 1275              		.loc 1 225 3 is_stmt 1 view .LVU400
 1276              		.loc 1 225 41 is_stmt 0 view .LVU401
 1277 0136 3444     		add	r4, r4, r6
 1278              		.loc 1 225 62 view .LVU402
 1279 0138 04EBD474 		add	r4, r4, r4, lsr #31
 1280 013c 6410     		asrs	r4, r4, #1
 1281              		.loc 1 225 23 view .LVU403
 1282 013e 8C67     		str	r4, [r1, #120]
 226:E:/MCU_Project/stm32/Target_tracking/user/Laser_Move\Servo_Move.c **** 		Set_RectangleXY[31] = (rectangle_XY[1]+Set_RectangleXY[29])/2;		/* 起右点中间点Y */	
 1283              		.loc 1 226 3 is_stmt 1 view .LVU404
 1284              		.loc 1 226 41 is_stmt 0 view .LVU405
 1285 0140 2844     		add	r0, r0, r5
 1286              		.loc 1 226 62 view .LVU406
 1287 0142 00EBD070 		add	r0, r0, r0, lsr #31
 1288 0146 4010     		asrs	r0, r0, #1
 1289              		.loc 1 226 23 view .LVU407
 1290 0148 C867     		str	r0, [r1, #124]
 227:E:/MCU_Project/stm32/Target_tracking/user/Laser_Move\Servo_Move.c **** 
 228:E:/MCU_Project/stm32/Target_tracking/user/Laser_Move\Servo_Move.c **** }
 1291              		.loc 1 228 1 view .LVU408
 1292 014a BDE8F083 		pop	{r4, r5, r6, r7, r8, r9, pc}
 1293              	.L70:
 1294 014e 00BF     		.align	2
ARM GAS  C:\Users\86390\AppData\Local\Temp\cc4iGm64.s 			page 31


 1295              	.L69:
 1296 0150 00000000 		.word	.LANCHOR6
 1297              		.cfi_endproc
 1298              	.LFE140:
 1300              		.section	.text.Get_LaserXY_ALLtime,"ax",%progbits
 1301              		.align	1
 1302              		.global	Get_LaserXY_ALLtime
 1303              		.syntax unified
 1304              		.thumb
 1305              		.thumb_func
 1307              	Get_LaserXY_ALLtime:
 1308              	.LVL95:
 1309              	.LFB141:
 229:E:/MCU_Project/stm32/Target_tracking/user/Laser_Move\Servo_Move.c **** 
 230:E:/MCU_Project/stm32/Target_tracking/user/Laser_Move\Servo_Move.c **** 
 231:E:/MCU_Project/stm32/Target_tracking/user/Laser_Move\Servo_Move.c **** /* 实时获取激光点坐标 */
 232:E:/MCU_Project/stm32/Target_tracking/user/Laser_Move\Servo_Move.c **** void Get_LaserXY_ALLtime(int* MyXY)
 233:E:/MCU_Project/stm32/Target_tracking/user/Laser_Move\Servo_Move.c **** {
 1310              		.loc 1 233 1 is_stmt 1 view -0
 1311              		.cfi_startproc
 1312              		@ args = 0, pretend = 0, frame = 0
 1313              		@ frame_needed = 0, uses_anonymous_args = 0
 1314              		@ link register save eliminated.
 234:E:/MCU_Project/stm32/Target_tracking/user/Laser_Move\Servo_Move.c **** 		if(Data_FinishGet==1 && FinishRectangle_Flag==1)			/* 串口完成了一次接收后 */
 1315              		.loc 1 234 3 view .LVU410
 1316              		.loc 1 234 20 is_stmt 0 view .LVU411
 1317 0000 0E4B     		ldr	r3, .L77
 1318 0002 1B78     		ldrb	r3, [r3]	@ zero_extendqisi2
 1319              		.loc 1 234 5 view .LVU412
 1320 0004 012B     		cmp	r3, #1
 1321 0006 00D0     		beq	.L76
 1322              	.L71:
 235:E:/MCU_Project/stm32/Target_tracking/user/Laser_Move\Servo_Move.c **** 		{
 236:E:/MCU_Project/stm32/Target_tracking/user/Laser_Move\Servo_Move.c **** 				/* 16位数据处理(合成坐标值) */
 237:E:/MCU_Project/stm32/Target_tracking/user/Laser_Move\Servo_Move.c **** 				for(uint8_t time=0;time<2;time++)
 238:E:/MCU_Project/stm32/Target_tracking/user/Laser_Move\Servo_Move.c **** 				{
 239:E:/MCU_Project/stm32/Target_tracking/user/Laser_Move\Servo_Move.c **** 						MyXY[time] = (ShijueRecv_Buffer[time*2+1]<<8)|ShijueRecv_Buffer[time*2];
 240:E:/MCU_Project/stm32/Target_tracking/user/Laser_Move\Servo_Move.c **** 				}						
 241:E:/MCU_Project/stm32/Target_tracking/user/Laser_Move\Servo_Move.c **** 				
 242:E:/MCU_Project/stm32/Target_tracking/user/Laser_Move\Servo_Move.c **** 				Data_FinishGet=0;			/* 及时清除接收完成标志位 */
 243:E:/MCU_Project/stm32/Target_tracking/user/Laser_Move\Servo_Move.c **** //				Data_StartGet=0;				
 244:E:/MCU_Project/stm32/Target_tracking/user/Laser_Move\Servo_Move.c **** 		}
 245:E:/MCU_Project/stm32/Target_tracking/user/Laser_Move\Servo_Move.c **** }
 1323              		.loc 1 245 1 view .LVU413
 1324 0008 7047     		bx	lr
 1325              	.L76:
 234:E:/MCU_Project/stm32/Target_tracking/user/Laser_Move\Servo_Move.c **** 		if(Data_FinishGet==1 && FinishRectangle_Flag==1)			/* 串口完成了一次接收后 */
 1326              		.loc 1 234 47 discriminator 1 view .LVU414
 1327 000a 0D4B     		ldr	r3, .L77+4
 1328 000c 1B78     		ldrb	r3, [r3]	@ zero_extendqisi2
 234:E:/MCU_Project/stm32/Target_tracking/user/Laser_Move\Servo_Move.c **** 		if(Data_FinishGet==1 && FinishRectangle_Flag==1)			/* 串口完成了一次接收后 */
 1329              		.loc 1 234 24 discriminator 1 view .LVU415
 1330 000e 012B     		cmp	r3, #1
 1331 0010 FAD1     		bne	.L71
 1332              	.LBB13:
 237:E:/MCU_Project/stm32/Target_tracking/user/Laser_Move\Servo_Move.c **** 				{
 1333              		.loc 1 237 17 view .LVU416
ARM GAS  C:\Users\86390\AppData\Local\Temp\cc4iGm64.s 			page 32


 1334 0012 0023     		movs	r3, #0
 1335 0014 0CE0     		b	.L73
 1336              	.LVL96:
 1337              	.L74:
 239:E:/MCU_Project/stm32/Target_tracking/user/Laser_Move\Servo_Move.c **** 				}						
 1338              		.loc 1 239 7 is_stmt 1 discriminator 3 view .LVU417
 239:E:/MCU_Project/stm32/Target_tracking/user/Laser_Move\Servo_Move.c **** 				}						
 1339              		.loc 1 239 43 is_stmt 0 discriminator 3 view .LVU418
 1340 0016 5A00     		lsls	r2, r3, #1
 239:E:/MCU_Project/stm32/Target_tracking/user/Laser_Move\Servo_Move.c **** 				}						
 1341              		.loc 1 239 45 discriminator 3 view .LVU419
 1342 0018 0132     		adds	r2, r2, #1
 239:E:/MCU_Project/stm32/Target_tracking/user/Laser_Move\Servo_Move.c **** 				}						
 1343              		.loc 1 239 38 discriminator 3 view .LVU420
 1344 001a 0A49     		ldr	r1, .L77+8
 1345 001c 11F802C0 		ldrb	ip, [r1, r2]	@ zero_extendqisi2
 239:E:/MCU_Project/stm32/Target_tracking/user/Laser_Move\Servo_Move.c **** 				}						
 1346              		.loc 1 239 70 discriminator 3 view .LVU421
 1347 0020 11F81320 		ldrb	r2, [r1, r3, lsl #1]	@ zero_extendqisi2
 239:E:/MCU_Project/stm32/Target_tracking/user/Laser_Move\Servo_Move.c **** 				}						
 1348              		.loc 1 239 52 discriminator 3 view .LVU422
 1349 0024 42EA0C22 		orr	r2, r2, ip, lsl #8
 239:E:/MCU_Project/stm32/Target_tracking/user/Laser_Move\Servo_Move.c **** 				}						
 1350              		.loc 1 239 18 discriminator 3 view .LVU423
 1351 0028 40F82320 		str	r2, [r0, r3, lsl #2]
 237:E:/MCU_Project/stm32/Target_tracking/user/Laser_Move\Servo_Move.c **** 				{
 1352              		.loc 1 237 31 is_stmt 1 discriminator 3 view .LVU424
 237:E:/MCU_Project/stm32/Target_tracking/user/Laser_Move\Servo_Move.c **** 				{
 1353              		.loc 1 237 35 is_stmt 0 discriminator 3 view .LVU425
 1354 002c 0133     		adds	r3, r3, #1
 1355              	.LVL97:
 237:E:/MCU_Project/stm32/Target_tracking/user/Laser_Move\Servo_Move.c **** 				{
 1356              		.loc 1 237 35 discriminator 3 view .LVU426
 1357 002e DBB2     		uxtb	r3, r3
 1358              	.LVL98:
 1359              	.L73:
 237:E:/MCU_Project/stm32/Target_tracking/user/Laser_Move\Servo_Move.c **** 				{
 1360              		.loc 1 237 24 is_stmt 1 discriminator 1 view .LVU427
 237:E:/MCU_Project/stm32/Target_tracking/user/Laser_Move\Servo_Move.c **** 				{
 1361              		.loc 1 237 5 is_stmt 0 discriminator 1 view .LVU428
 1362 0030 012B     		cmp	r3, #1
 1363 0032 F0D9     		bls	.L74
 1364              	.LBE13:
 242:E:/MCU_Project/stm32/Target_tracking/user/Laser_Move\Servo_Move.c **** //				Data_StartGet=0;				
 1365              		.loc 1 242 5 is_stmt 1 view .LVU429
 242:E:/MCU_Project/stm32/Target_tracking/user/Laser_Move\Servo_Move.c **** //				Data_StartGet=0;				
 1366              		.loc 1 242 19 is_stmt 0 view .LVU430
 1367 0034 014B     		ldr	r3, .L77
 1368              	.LVL99:
 242:E:/MCU_Project/stm32/Target_tracking/user/Laser_Move\Servo_Move.c **** //				Data_StartGet=0;				
 1369              		.loc 1 242 19 view .LVU431
 1370 0036 0022     		movs	r2, #0
 1371 0038 1A70     		strb	r2, [r3]
 1372              		.loc 1 245 1 view .LVU432
 1373 003a E5E7     		b	.L71
 1374              	.L78:
 1375              		.align	2
ARM GAS  C:\Users\86390\AppData\Local\Temp\cc4iGm64.s 			page 33


 1376              	.L77:
 1377 003c 00000000 		.word	Data_FinishGet
 1378 0040 00000000 		.word	FinishRectangle_Flag
 1379 0044 00000000 		.word	ShijueRecv_Buffer
 1380              		.cfi_endproc
 1381              	.LFE141:
 1383              		.section	.text.limit_SetAngle,"ax",%progbits
 1384              		.align	1
 1385              		.global	limit_SetAngle
 1386              		.syntax unified
 1387              		.thumb
 1388              		.thumb_func
 1390              	limit_SetAngle:
 1391              	.LVL100:
 1392              	.LFB142:
 246:E:/MCU_Project/stm32/Target_tracking/user/Laser_Move\Servo_Move.c **** 
 247:E:/MCU_Project/stm32/Target_tracking/user/Laser_Move\Servo_Move.c **** uint16_t Tracking_CNT,Tracking_Start_Flag,Tracking_Enable;			/* 进入跟踪部分的计时 */
 248:E:/MCU_Project/stm32/Target_tracking/user/Laser_Move\Servo_Move.c **** 
 249:E:/MCU_Project/stm32/Target_tracking/user/Laser_Move\Servo_Move.c **** 
 250:E:/MCU_Project/stm32/Target_tracking/user/Laser_Move\Servo_Move.c **** float limit_SetAngle(int Now_Angle)
 251:E:/MCU_Project/stm32/Target_tracking/user/Laser_Move\Servo_Move.c **** {
 1393              		.loc 1 251 1 is_stmt 1 view -0
 1394              		.cfi_startproc
 1395              		@ args = 0, pretend = 0, frame = 0
 1396              		@ frame_needed = 0, uses_anonymous_args = 0
 1397              		@ link register save eliminated.
 252:E:/MCU_Project/stm32/Target_tracking/user/Laser_Move\Servo_Move.c **** 		if(Now_Angle<1348) Now_Angle=1348;
 1398              		.loc 1 252 3 view .LVU434
 1399              		.loc 1 252 5 is_stmt 0 view .LVU435
 1400 0000 40F24353 		movw	r3, #1347
 1401 0004 9842     		cmp	r0, r3
 1402 0006 06DD     		ble	.L81
 253:E:/MCU_Project/stm32/Target_tracking/user/Laser_Move\Servo_Move.c **** 		else if(Now_Angle>2748) Now_Angle=2748;
 1403              		.loc 1 253 8 is_stmt 1 view .LVU436
 1404              		.loc 1 253 10 is_stmt 0 view .LVU437
 1405 0008 40F6BC23 		movw	r3, #2748
 1406 000c 9842     		cmp	r0, r3
 1407 000e 04DD     		ble	.L80
 1408              		.loc 1 253 36 view .LVU438
 1409 0010 40F6BC20 		movw	r0, #2748
 1410              	.LVL101:
 1411              		.loc 1 253 36 view .LVU439
 1412 0014 01E0     		b	.L80
 1413              	.LVL102:
 1414              	.L81:
 252:E:/MCU_Project/stm32/Target_tracking/user/Laser_Move\Servo_Move.c **** 		if(Now_Angle<1348) Now_Angle=1348;
 1415              		.loc 1 252 31 view .LVU440
 1416 0016 40F24450 		movw	r0, #1348
 1417              	.LVL103:
 1418              	.L80:
 254:E:/MCU_Project/stm32/Target_tracking/user/Laser_Move\Servo_Move.c **** 	
 255:E:/MCU_Project/stm32/Target_tracking/user/Laser_Move\Servo_Move.c **** 		return Now_Angle;
 1419              		.loc 1 255 3 is_stmt 1 view .LVU441
 256:E:/MCU_Project/stm32/Target_tracking/user/Laser_Move\Servo_Move.c **** }
 1420              		.loc 1 256 1 is_stmt 0 view .LVU442
 1421 001a 07EE900A 		vmov	s15, r0	@ int
 1422 001e B8EEE70A 		vcvt.f32.s32	s0, s15
ARM GAS  C:\Users\86390\AppData\Local\Temp\cc4iGm64.s 			page 34


 1423 0022 7047     		bx	lr
 1424              		.cfi_endproc
 1425              	.LFE142:
 1427              		.section	.text.Set_LaserTracking,"ax",%progbits
 1428              		.align	1
 1429              		.global	Set_LaserTracking
 1430              		.syntax unified
 1431              		.thumb
 1432              		.thumb_func
 1434              	Set_LaserTracking:
 1435              	.LVL104:
 1436              	.LFB143:
 257:E:/MCU_Project/stm32/Target_tracking/user/Laser_Move\Servo_Move.c **** 
 258:E:/MCU_Project/stm32/Target_tracking/user/Laser_Move\Servo_Move.c **** 
 259:E:/MCU_Project/stm32/Target_tracking/user/Laser_Move\Servo_Move.c **** /* 激光跟踪矩形框部分 */
 260:E:/MCU_Project/stm32/Target_tracking/user/Laser_Move\Servo_Move.c **** 
 261:E:/MCU_Project/stm32/Target_tracking/user/Laser_Move\Servo_Move.c **** void Set_LaserTracking(int RECTANG_X,int RECTANG_Y)
 262:E:/MCU_Project/stm32/Target_tracking/user/Laser_Move\Servo_Move.c **** {
 1437              		.loc 1 262 1 is_stmt 1 view -0
 1438              		.cfi_startproc
 1439              		@ args = 0, pretend = 0, frame = 8
 1440              		@ frame_needed = 0, uses_anonymous_args = 0
 1441              		.loc 1 262 1 is_stmt 0 view .LVU444
 1442 0000 2DE9F043 		push	{r4, r5, r6, r7, r8, r9, lr}
 1443              	.LCFI7:
 1444              		.cfi_def_cfa_offset 28
 1445              		.cfi_offset 4, -28
 1446              		.cfi_offset 5, -24
 1447              		.cfi_offset 6, -20
 1448              		.cfi_offset 7, -16
 1449              		.cfi_offset 8, -12
 1450              		.cfi_offset 9, -8
 1451              		.cfi_offset 14, -4
 1452 0004 83B0     		sub	sp, sp, #12
 1453              	.LCFI8:
 1454              		.cfi_def_cfa_offset 40
 1455 0006 0090     		str	r0, [sp]
 1456 0008 0191     		str	r1, [sp, #4]
 263:E:/MCU_Project/stm32/Target_tracking/user/Laser_Move\Servo_Move.c **** //		while(1)
 264:E:/MCU_Project/stm32/Target_tracking/user/Laser_Move\Servo_Move.c **** //		{
 265:E:/MCU_Project/stm32/Target_tracking/user/Laser_Move\Servo_Move.c **** 				static float Now_OriginAngle[2];
 1457              		.loc 1 265 5 is_stmt 1 view .LVU445
 266:E:/MCU_Project/stm32/Target_tracking/user/Laser_Move\Servo_Move.c **** 			
 267:E:/MCU_Project/stm32/Target_tracking/user/Laser_Move\Servo_Move.c **** //				if(Tracking_Enable==1 && Data_FinishGet==1)			/* 100ms计时到后 */
 268:E:/MCU_Project/stm32/Target_tracking/user/Laser_Move\Servo_Move.c **** 				if(Data_FinishGet==1)			/* 100ms计时到后 */
 1458              		.loc 1 268 5 view .LVU446
 1459              		.loc 1 268 22 is_stmt 0 view .LVU447
 1460 000a 4D4B     		ldr	r3, .L89
 1461 000c 1B78     		ldrb	r3, [r3]	@ zero_extendqisi2
 1462              		.loc 1 268 7 view .LVU448
 1463 000e 012B     		cmp	r3, #1
 1464 0010 02D0     		beq	.L87
 1465              	.LVL105:
 1466              	.L83:
 269:E:/MCU_Project/stm32/Target_tracking/user/Laser_Move\Servo_Move.c **** 				{
 270:E:/MCU_Project/stm32/Target_tracking/user/Laser_Move\Servo_Move.c **** 						Get_LaserXY_ALLtime(Laser_XY);		/* 实时接收激光坐标 */
 271:E:/MCU_Project/stm32/Target_tracking/user/Laser_Move\Servo_Move.c **** 
ARM GAS  C:\Users\86390\AppData\Local\Temp\cc4iGm64.s 			page 35


 272:E:/MCU_Project/stm32/Target_tracking/user/Laser_Move\Servo_Move.c **** 					
 273:E:/MCU_Project/stm32/Target_tracking/user/Laser_Move\Servo_Move.c **** 					
 274:E:/MCU_Project/stm32/Target_tracking/user/Laser_Move\Servo_Move.c **** 						if(Get_vofa_PID_Rxflag()==1)		/* 判断接收是否成功 */	
 275:E:/MCU_Project/stm32/Target_tracking/user/Laser_Move\Servo_Move.c **** 						{			
 276:E:/MCU_Project/stm32/Target_tracking/user/Laser_Move\Servo_Move.c **** 								PID_index_1=Get_id_Flag_1();		
 277:E:/MCU_Project/stm32/Target_tracking/user/Laser_Move\Servo_Move.c **** 								PID_index_2=Get_id_Flag_2();
 278:E:/MCU_Project/stm32/Target_tracking/user/Laser_Move\Servo_Move.c **** 							
 279:E:/MCU_Project/stm32/Target_tracking/user/Laser_Move\Servo_Move.c **** 								PID_Mode[PID_index_1-1].PID[PID_index_2]=RxPacket_Data_Handle(Get_Vofa_RxData);
 280:E:/MCU_Project/stm32/Target_tracking/user/Laser_Move\Servo_Move.c **** 						}
 281:E:/MCU_Project/stm32/Target_tracking/user/Laser_Move\Servo_Move.c **** 						
 282:E:/MCU_Project/stm32/Target_tracking/user/Laser_Move\Servo_Move.c **** 						// X_Pid.Kp = PID_Mode[0].PID[0];
 283:E:/MCU_Project/stm32/Target_tracking/user/Laser_Move\Servo_Move.c **** 						// X_Pid.Ki = PID_Mode[0].PID[1];
 284:E:/MCU_Project/stm32/Target_tracking/user/Laser_Move\Servo_Move.c **** 						// X_Pid.Kd = PID_Mode[0].PID[2];
 285:E:/MCU_Project/stm32/Target_tracking/user/Laser_Move\Servo_Move.c **** 						
 286:E:/MCU_Project/stm32/Target_tracking/user/Laser_Move\Servo_Move.c **** 						// Y_Pid.Kp = PID_Mode[1].PID[0];
 287:E:/MCU_Project/stm32/Target_tracking/user/Laser_Move\Servo_Move.c **** 						// Y_Pid.Ki = PID_Mode[1].PID[1];
 288:E:/MCU_Project/stm32/Target_tracking/user/Laser_Move\Servo_Move.c **** 						// Y_Pid.Kd = PID_Mode[1].PID[2];
 289:E:/MCU_Project/stm32/Target_tracking/user/Laser_Move\Servo_Move.c **** 						
 290:E:/MCU_Project/stm32/Target_tracking/user/Laser_Move\Servo_Move.c **** 						X_Pid.Kp = 0.49;
 291:E:/MCU_Project/stm32/Target_tracking/user/Laser_Move\Servo_Move.c **** 						// X_Pid.Ki = 0.01;
 292:E:/MCU_Project/stm32/Target_tracking/user/Laser_Move\Servo_Move.c **** 						X_Pid.Kd = 0.1;
 293:E:/MCU_Project/stm32/Target_tracking/user/Laser_Move\Servo_Move.c **** //						
 294:E:/MCU_Project/stm32/Target_tracking/user/Laser_Move\Servo_Move.c **** 						Y_Pid.Kp = 0.39;
 295:E:/MCU_Project/stm32/Target_tracking/user/Laser_Move\Servo_Move.c **** //						Y_Pid.Ki = 0;
 296:E:/MCU_Project/stm32/Target_tracking/user/Laser_Move\Servo_Move.c **** 						Y_Pid.Kd = 0.1;
 297:E:/MCU_Project/stm32/Target_tracking/user/Laser_Move\Servo_Move.c **** 						
 298:E:/MCU_Project/stm32/Target_tracking/user/Laser_Move\Servo_Move.c **** 						/* 进行位置环pid运算 */
 299:E:/MCU_Project/stm32/Target_tracking/user/Laser_Move\Servo_Move.c **** 						RelaServo_Angle[0] = Servo_Position_PID(Laser_XY[0],RECTANG_X,X_Pid.Kp,X_Pid.Ki,X_Pid.Kd);
 300:E:/MCU_Project/stm32/Target_tracking/user/Laser_Move\Servo_Move.c **** 						RelaServo_Angle[1] = Servo_Position_PID(Laser_XY[1],RECTANG_Y,Y_Pid.Kp,Y_Pid.Ki,Y_Pid.Kd);
 301:E:/MCU_Project/stm32/Target_tracking/user/Laser_Move\Servo_Move.c **** 					
 302:E:/MCU_Project/stm32/Target_tracking/user/Laser_Move\Servo_Move.c **** 						Now_OriginAngle[0] = USL_GETPositionVal(servoUsart,sid_1);
 303:E:/MCU_Project/stm32/Target_tracking/user/Laser_Move\Servo_Move.c **** 						Now_OriginAngle[1] = USL_GETPositionVal(servoUsart,sid_2);
 304:E:/MCU_Project/stm32/Target_tracking/user/Laser_Move\Servo_Move.c **** 					
 305:E:/MCU_Project/stm32/Target_tracking/user/Laser_Move\Servo_Move.c **** 						HAL_Delay(10);
 306:E:/MCU_Project/stm32/Target_tracking/user/Laser_Move\Servo_Move.c **** 					
 307:E:/MCU_Project/stm32/Target_tracking/user/Laser_Move\Servo_Move.c **** 						USL_SetServoAngle(servoUsart,sid_1,limit_SetAngle(Now_OriginAngle[0]+RelaServo_Angle[0]),0);
 308:E:/MCU_Project/stm32/Target_tracking/user/Laser_Move\Servo_Move.c **** 						USL_SetServoAngle(servoUsart,sid_2,limit_SetAngle(Now_OriginAngle[1]+RelaServo_Angle[1]),0);
 309:E:/MCU_Project/stm32/Target_tracking/user/Laser_Move\Servo_Move.c **** 				}						
 310:E:/MCU_Project/stm32/Target_tracking/user/Laser_Move\Servo_Move.c **** 
 311:E:/MCU_Project/stm32/Target_tracking/user/Laser_Move\Servo_Move.c **** 						
 312:E:/MCU_Project/stm32/Target_tracking/user/Laser_Move\Servo_Move.c **** //						Tracking_Enable=0;
 313:E:/MCU_Project/stm32/Target_tracking/user/Laser_Move\Servo_Move.c **** //						TIM7->CNT=0;		/* 计数寄存器清零 */
 314:E:/MCU_Project/stm32/Target_tracking/user/Laser_Move\Servo_Move.c **** //						HAL_TIM_Base_Start_IT(&htim7);		/* 重新使能定时中断 */
 315:E:/MCU_Project/stm32/Target_tracking/user/Laser_Move\Servo_Move.c **** 											
 316:E:/MCU_Project/stm32/Target_tracking/user/Laser_Move\Servo_Move.c **** //				}
 317:E:/MCU_Project/stm32/Target_tracking/user/Laser_Move\Servo_Move.c **** 
 318:E:/MCU_Project/stm32/Target_tracking/user/Laser_Move\Servo_Move.c **** }
 1467              		.loc 1 318 1 view .LVU449
 1468 0012 03B0     		add	sp, sp, #12
 1469              	.LCFI9:
 1470              		.cfi_remember_state
 1471              		.cfi_def_cfa_offset 28
 1472              	.LVL106:
 1473              		.loc 1 318 1 view .LVU450
 1474              		@ sp needed
 1475 0014 BDE8F083 		pop	{r4, r5, r6, r7, r8, r9, pc}
 1476              	.LVL107:
ARM GAS  C:\Users\86390\AppData\Local\Temp\cc4iGm64.s 			page 36


 1477              	.L87:
 1478              	.LCFI10:
 1479              		.cfi_restore_state
 270:E:/MCU_Project/stm32/Target_tracking/user/Laser_Move\Servo_Move.c **** 
 1480              		.loc 1 270 7 is_stmt 1 view .LVU451
 1481 0018 4A48     		ldr	r0, .L89+4
 1482              	.LVL108:
 270:E:/MCU_Project/stm32/Target_tracking/user/Laser_Move\Servo_Move.c **** 
 1483              		.loc 1 270 7 is_stmt 0 view .LVU452
 1484 001a FFF7FEFF 		bl	Get_LaserXY_ALLtime
 1485              	.LVL109:
 274:E:/MCU_Project/stm32/Target_tracking/user/Laser_Move\Servo_Move.c **** 						{			
 1486              		.loc 1 274 7 is_stmt 1 view .LVU453
 274:E:/MCU_Project/stm32/Target_tracking/user/Laser_Move\Servo_Move.c **** 						{			
 1487              		.loc 1 274 10 is_stmt 0 view .LVU454
 1488 001e FFF7FEFF 		bl	Get_vofa_PID_Rxflag
 1489              	.LVL110:
 274:E:/MCU_Project/stm32/Target_tracking/user/Laser_Move\Servo_Move.c **** 						{			
 1490              		.loc 1 274 9 view .LVU455
 1491 0022 0128     		cmp	r0, #1
 1492 0024 75D0     		beq	.L88
 1493              	.L85:
 290:E:/MCU_Project/stm32/Target_tracking/user/Laser_Move\Servo_Move.c **** 						// X_Pid.Ki = 0.01;
 1494              		.loc 1 290 7 is_stmt 1 view .LVU456
 290:E:/MCU_Project/stm32/Target_tracking/user/Laser_Move\Servo_Move.c **** 						// X_Pid.Ki = 0.01;
 1495              		.loc 1 290 16 is_stmt 0 view .LVU457
 1496 0026 484B     		ldr	r3, .L89+8
 1497 0028 9FED481A 		vldr.32	s2, .L89+12
 1498 002c 83ED001A 		vstr.32	s2, [r3]
 292:E:/MCU_Project/stm32/Target_tracking/user/Laser_Move\Servo_Move.c **** //						
 1499              		.loc 1 292 7 is_stmt 1 view .LVU458
 292:E:/MCU_Project/stm32/Target_tracking/user/Laser_Move\Servo_Move.c **** //						
 1500              		.loc 1 292 16 is_stmt 0 view .LVU459
 1501 0030 9FED472A 		vldr.32	s4, .L89+16
 1502 0034 83ED022A 		vstr.32	s4, [r3, #8]
 294:E:/MCU_Project/stm32/Target_tracking/user/Laser_Move\Servo_Move.c **** //						Y_Pid.Ki = 0;
 1503              		.loc 1 294 7 is_stmt 1 view .LVU460
 294:E:/MCU_Project/stm32/Target_tracking/user/Laser_Move\Servo_Move.c **** //						Y_Pid.Ki = 0;
 1504              		.loc 1 294 16 is_stmt 0 view .LVU461
 1505 0038 464C     		ldr	r4, .L89+20
 1506 003a 474A     		ldr	r2, .L89+24
 1507 003c 2260     		str	r2, [r4]	@ float
 296:E:/MCU_Project/stm32/Target_tracking/user/Laser_Move\Servo_Move.c **** 						
 1508              		.loc 1 296 7 is_stmt 1 view .LVU462
 296:E:/MCU_Project/stm32/Target_tracking/user/Laser_Move\Servo_Move.c **** 						
 1509              		.loc 1 296 16 is_stmt 0 view .LVU463
 1510 003e 84ED022A 		vstr.32	s4, [r4, #8]
 299:E:/MCU_Project/stm32/Target_tracking/user/Laser_Move\Servo_Move.c **** 						RelaServo_Angle[1] = Servo_Position_PID(Laser_XY[1],RECTANG_Y,Y_Pid.Kp,Y_Pid.Ki,Y_Pid.Kd);
 1511              		.loc 1 299 7 is_stmt 1 view .LVU464
 299:E:/MCU_Project/stm32/Target_tracking/user/Laser_Move\Servo_Move.c **** 						RelaServo_Angle[1] = Servo_Position_PID(Laser_XY[1],RECTANG_Y,Y_Pid.Kp,Y_Pid.Ki,Y_Pid.Kd);
 1512              		.loc 1 299 55 is_stmt 0 view .LVU465
 1513 0042 404E     		ldr	r6, .L89+4
 299:E:/MCU_Project/stm32/Target_tracking/user/Laser_Move\Servo_Move.c **** 						RelaServo_Angle[1] = Servo_Position_PID(Laser_XY[1],RECTANG_Y,Y_Pid.Kp,Y_Pid.Ki,Y_Pid.Kd);
 1514              		.loc 1 299 28 view .LVU466
 1515 0044 D3ED011A 		vldr.32	s3, [r3, #4]
 1516 0048 DDED007A 		vldr.32	s15, [sp]	@ int
 1517 004c F8EEE70A 		vcvt.f32.s32	s1, s15
ARM GAS  C:\Users\86390\AppData\Local\Temp\cc4iGm64.s 			page 37


 1518 0050 D6ED007A 		vldr.32	s15, [r6]	@ int
 1519 0054 B8EEE70A 		vcvt.f32.s32	s0, s15
 1520 0058 FFF7FEFF 		bl	Servo_Position_PID
 1521              	.LVL111:
 299:E:/MCU_Project/stm32/Target_tracking/user/Laser_Move\Servo_Move.c **** 						RelaServo_Angle[1] = Servo_Position_PID(Laser_XY[1],RECTANG_Y,Y_Pid.Kp,Y_Pid.Ki,Y_Pid.Kd);
 1522              		.loc 1 299 26 view .LVU467
 1523 005c 3F4D     		ldr	r5, .L89+28
 1524 005e 85ED000A 		vstr.32	s0, [r5]
 300:E:/MCU_Project/stm32/Target_tracking/user/Laser_Move\Servo_Move.c **** 					
 1525              		.loc 1 300 7 is_stmt 1 view .LVU468
 300:E:/MCU_Project/stm32/Target_tracking/user/Laser_Move\Servo_Move.c **** 					
 1526              		.loc 1 300 55 is_stmt 0 view .LVU469
 1527 0062 96ED010A 		vldr.32	s0, [r6, #4]	@ int
 300:E:/MCU_Project/stm32/Target_tracking/user/Laser_Move\Servo_Move.c **** 					
 1528              		.loc 1 300 28 view .LVU470
 1529 0066 94ED022A 		vldr.32	s4, [r4, #8]
 1530 006a D4ED011A 		vldr.32	s3, [r4, #4]
 1531 006e 94ED001A 		vldr.32	s2, [r4]
 1532 0072 DDED017A 		vldr.32	s15, [sp, #4]	@ int
 1533 0076 F8EEE70A 		vcvt.f32.s32	s1, s15
 1534 007a B8EEC00A 		vcvt.f32.s32	s0, s0
 1535 007e FFF7FEFF 		bl	Servo_Position_PID
 1536              	.LVL112:
 300:E:/MCU_Project/stm32/Target_tracking/user/Laser_Move\Servo_Move.c **** 					
 1537              		.loc 1 300 26 view .LVU471
 1538 0082 85ED010A 		vstr.32	s0, [r5, #4]
 302:E:/MCU_Project/stm32/Target_tracking/user/Laser_Move\Servo_Move.c **** 						Now_OriginAngle[1] = USL_GETPositionVal(servoUsart,sid_2);
 1539              		.loc 1 302 7 is_stmt 1 view .LVU472
 302:E:/MCU_Project/stm32/Target_tracking/user/Laser_Move\Servo_Move.c **** 						Now_OriginAngle[1] = USL_GETPositionVal(servoUsart,sid_2);
 1540              		.loc 1 302 28 is_stmt 0 view .LVU473
 1541 0086 DFF8F480 		ldr	r8, .L89+60
 1542 008a 354E     		ldr	r6, .L89+32
 1543 008c 98F80010 		ldrb	r1, [r8]	@ zero_extendqisi2
 1544 0090 3068     		ldr	r0, [r6]
 1545 0092 FFF7FEFF 		bl	USL_GETPositionVal
 1546              	.LVL113:
 1547 0096 07EE900A 		vmov	s15, r0	@ int
 302:E:/MCU_Project/stm32/Target_tracking/user/Laser_Move\Servo_Move.c **** 						Now_OriginAngle[1] = USL_GETPositionVal(servoUsart,sid_2);
 1548              		.loc 1 302 26 view .LVU474
 1549 009a 324C     		ldr	r4, .L89+36
 1550 009c F8EE677A 		vcvt.f32.u32	s15, s15
 1551 00a0 C4ED007A 		vstr.32	s15, [r4]
 303:E:/MCU_Project/stm32/Target_tracking/user/Laser_Move\Servo_Move.c **** 					
 1552              		.loc 1 303 7 is_stmt 1 view .LVU475
 303:E:/MCU_Project/stm32/Target_tracking/user/Laser_Move\Servo_Move.c **** 					
 1553              		.loc 1 303 28 is_stmt 0 view .LVU476
 1554 00a4 304F     		ldr	r7, .L89+40
 1555 00a6 3978     		ldrb	r1, [r7]	@ zero_extendqisi2
 1556 00a8 3068     		ldr	r0, [r6]
 1557 00aa FFF7FEFF 		bl	USL_GETPositionVal
 1558              	.LVL114:
 1559 00ae 07EE900A 		vmov	s15, r0	@ int
 303:E:/MCU_Project/stm32/Target_tracking/user/Laser_Move\Servo_Move.c **** 					
 1560              		.loc 1 303 26 view .LVU477
 1561 00b2 F8EE677A 		vcvt.f32.u32	s15, s15
 1562 00b6 C4ED017A 		vstr.32	s15, [r4, #4]
 305:E:/MCU_Project/stm32/Target_tracking/user/Laser_Move\Servo_Move.c **** 					
ARM GAS  C:\Users\86390\AppData\Local\Temp\cc4iGm64.s 			page 38


 1563              		.loc 1 305 7 is_stmt 1 view .LVU478
 1564 00ba 0A20     		movs	r0, #10
 1565 00bc FFF7FEFF 		bl	HAL_Delay
 1566              	.LVL115:
 307:E:/MCU_Project/stm32/Target_tracking/user/Laser_Move\Servo_Move.c **** 						USL_SetServoAngle(servoUsart,sid_2,limit_SetAngle(Now_OriginAngle[1]+RelaServo_Angle[1]),0);
 1567              		.loc 1 307 7 view .LVU479
 1568 00c0 D6F80090 		ldr	r9, [r6]
 1569 00c4 98F80080 		ldrb	r8, [r8]	@ zero_extendqisi2
 307:E:/MCU_Project/stm32/Target_tracking/user/Laser_Move\Servo_Move.c **** 						USL_SetServoAngle(servoUsart,sid_2,limit_SetAngle(Now_OriginAngle[1]+RelaServo_Angle[1]),0);
 1570              		.loc 1 307 72 is_stmt 0 view .LVU480
 1571 00c8 D4ED007A 		vldr.32	s15, [r4]
 307:E:/MCU_Project/stm32/Target_tracking/user/Laser_Move\Servo_Move.c **** 						USL_SetServoAngle(servoUsart,sid_2,limit_SetAngle(Now_OriginAngle[1]+RelaServo_Angle[1]),0);
 1572              		.loc 1 307 91 view .LVU481
 1573 00cc 95ED007A 		vldr.32	s14, [r5]
 307:E:/MCU_Project/stm32/Target_tracking/user/Laser_Move\Servo_Move.c **** 						USL_SetServoAngle(servoUsart,sid_2,limit_SetAngle(Now_OriginAngle[1]+RelaServo_Angle[1]),0);
 1574              		.loc 1 307 75 view .LVU482
 1575 00d0 77EE877A 		vadd.f32	s15, s15, s14
 307:E:/MCU_Project/stm32/Target_tracking/user/Laser_Move\Servo_Move.c **** 						USL_SetServoAngle(servoUsart,sid_2,limit_SetAngle(Now_OriginAngle[1]+RelaServo_Angle[1]),0);
 1576              		.loc 1 307 7 view .LVU483
 1577 00d4 FDEEE77A 		vcvt.s32.f32	s15, s15
 1578 00d8 17EE900A 		vmov	r0, s15	@ int
 1579 00dc FFF7FEFF 		bl	limit_SetAngle
 1580              	.LVL116:
 1581 00e0 0022     		movs	r2, #0
 1582 00e2 4146     		mov	r1, r8
 1583 00e4 4846     		mov	r0, r9
 1584 00e6 FFF7FEFF 		bl	USL_SetServoAngle
 1585              	.LVL117:
 308:E:/MCU_Project/stm32/Target_tracking/user/Laser_Move\Servo_Move.c **** 				}						
 1586              		.loc 1 308 7 is_stmt 1 view .LVU484
 1587 00ea 3668     		ldr	r6, [r6]
 1588 00ec 3F78     		ldrb	r7, [r7]	@ zero_extendqisi2
 308:E:/MCU_Project/stm32/Target_tracking/user/Laser_Move\Servo_Move.c **** 				}						
 1589              		.loc 1 308 72 is_stmt 0 view .LVU485
 1590 00ee D4ED017A 		vldr.32	s15, [r4, #4]
 308:E:/MCU_Project/stm32/Target_tracking/user/Laser_Move\Servo_Move.c **** 				}						
 1591              		.loc 1 308 91 view .LVU486
 1592 00f2 95ED017A 		vldr.32	s14, [r5, #4]
 308:E:/MCU_Project/stm32/Target_tracking/user/Laser_Move\Servo_Move.c **** 				}						
 1593              		.loc 1 308 75 view .LVU487
 1594 00f6 77EE877A 		vadd.f32	s15, s15, s14
 308:E:/MCU_Project/stm32/Target_tracking/user/Laser_Move\Servo_Move.c **** 				}						
 1595              		.loc 1 308 7 view .LVU488
 1596 00fa FDEEE77A 		vcvt.s32.f32	s15, s15
 1597 00fe 17EE900A 		vmov	r0, s15	@ int
 1598 0102 FFF7FEFF 		bl	limit_SetAngle
 1599              	.LVL118:
 1600 0106 0022     		movs	r2, #0
 1601 0108 3946     		mov	r1, r7
 1602 010a 3046     		mov	r0, r6
 1603 010c FFF7FEFF 		bl	USL_SetServoAngle
 1604              	.LVL119:
 1605              		.loc 1 318 1 view .LVU489
 1606 0110 7FE7     		b	.L83
 1607              	.L88:
 276:E:/MCU_Project/stm32/Target_tracking/user/Laser_Move\Servo_Move.c **** 								PID_index_2=Get_id_Flag_2();
 1608              		.loc 1 276 9 is_stmt 1 view .LVU490
ARM GAS  C:\Users\86390\AppData\Local\Temp\cc4iGm64.s 			page 39


 276:E:/MCU_Project/stm32/Target_tracking/user/Laser_Move\Servo_Move.c **** 								PID_index_2=Get_id_Flag_2();
 1609              		.loc 1 276 21 is_stmt 0 view .LVU491
 1610 0112 FFF7FEFF 		bl	Get_id_Flag_1
 1611              	.LVL120:
 276:E:/MCU_Project/stm32/Target_tracking/user/Laser_Move\Servo_Move.c **** 								PID_index_2=Get_id_Flag_2();
 1612              		.loc 1 276 20 view .LVU492
 1613 0116 154D     		ldr	r5, .L89+44
 1614 0118 2870     		strb	r0, [r5]
 277:E:/MCU_Project/stm32/Target_tracking/user/Laser_Move\Servo_Move.c **** 							
 1615              		.loc 1 277 9 is_stmt 1 view .LVU493
 277:E:/MCU_Project/stm32/Target_tracking/user/Laser_Move\Servo_Move.c **** 							
 1616              		.loc 1 277 21 is_stmt 0 view .LVU494
 1617 011a FFF7FEFF 		bl	Get_id_Flag_2
 1618              	.LVL121:
 1619 011e 0446     		mov	r4, r0
 277:E:/MCU_Project/stm32/Target_tracking/user/Laser_Move\Servo_Move.c **** 							
 1620              		.loc 1 277 20 view .LVU495
 1621 0120 134B     		ldr	r3, .L89+48
 1622 0122 1870     		strb	r0, [r3]
 279:E:/MCU_Project/stm32/Target_tracking/user/Laser_Move\Servo_Move.c **** 						}
 1623              		.loc 1 279 9 is_stmt 1 view .LVU496
 279:E:/MCU_Project/stm32/Target_tracking/user/Laser_Move\Servo_Move.c **** 						}
 1624              		.loc 1 279 29 is_stmt 0 view .LVU497
 1625 0124 2D78     		ldrb	r5, [r5]	@ zero_extendqisi2
 1626 0126 013D     		subs	r5, r5, #1
 279:E:/MCU_Project/stm32/Target_tracking/user/Laser_Move\Servo_Move.c **** 						}
 1627              		.loc 1 279 50 view .LVU498
 1628 0128 1248     		ldr	r0, .L89+52
 1629 012a FFF7FEFF 		bl	RxPacket_Data_Handle
 1630              	.LVL122:
 279:E:/MCU_Project/stm32/Target_tracking/user/Laser_Move\Servo_Move.c **** 						}
 1631              		.loc 1 279 49 view .LVU499
 1632 012e 04EB8504 		add	r4, r4, r5, lsl #2
 1633 0132 114B     		ldr	r3, .L89+56
 1634 0134 03EB8404 		add	r4, r3, r4, lsl #2
 1635 0138 84ED000A 		vstr.32	s0, [r4]
 1636 013c 73E7     		b	.L85
 1637              	.L90:
 1638 013e 00BF     		.align	2
 1639              	.L89:
 1640 0140 00000000 		.word	Data_FinishGet
 1641 0144 00000000 		.word	.LANCHOR7
 1642 0148 00000000 		.word	.LANCHOR8
 1643 014c 48E1FA3E 		.word	1056629064
 1644 0150 CDCCCC3D 		.word	1036831949
 1645 0154 00000000 		.word	.LANCHOR9
 1646 0158 14AEC73E 		.word	1053273620
 1647 015c 00000000 		.word	.LANCHOR10
 1648 0160 00000000 		.word	servoUsart
 1649 0164 00000000 		.word	.LANCHOR11
 1650 0168 00000000 		.word	sid_2
 1651 016c 00000000 		.word	PID_index_1
 1652 0170 00000000 		.word	PID_index_2
 1653 0174 00000000 		.word	Get_Vofa_RxData
 1654 0178 00000000 		.word	PID_Mode
 1655 017c 00000000 		.word	sid_1
 1656              		.cfi_endproc
ARM GAS  C:\Users\86390\AppData\Local\Temp\cc4iGm64.s 			page 40


 1657              	.LFE143:
 1659              		.global	Tracking_Enable
 1660              		.global	Tracking_Start_Flag
 1661              		.global	Tracking_CNT
 1662              		.global	Rectangle_TargetAngle
 1663              		.global	Servo_OriginAngle
 1664              		.global	Laser_XY
 1665              		.global	Set_rectangle_XY
 1666              		.global	rectangle_XY
 1667              		.global	Servo_OriginXY
 1668              		.global	Servo_ZeroXY
 1669              		.global	RelaServo_Angle
 1670              		.global	Y_Pid
 1671              		.global	X_Pid
 1672              		.global	MoveStart_Flag
 1673              		.global	MoveStop_Flag
 1674              		.global	Delay_time
 1675              		.global	CenterLocate_angleY
 1676              		.global	CenterLocate_angleX
 1677              		.global	Locate_angleY
 1678              		.global	Locate_angleX
 1679              		.section	.bss.CenterLocate_angleX,"aw",%nobits
 1680              		.align	2
 1681              		.set	.LANCHOR2,. + 0
 1684              	CenterLocate_angleX:
 1685 0000 00000000 		.space	8
 1685      00000000 
 1686              		.section	.bss.CenterLocate_angleY,"aw",%nobits
 1687              		.align	2
 1688              		.set	.LANCHOR3,. + 0
 1691              	CenterLocate_angleY:
 1692 0000 00000000 		.space	8
 1692      00000000 
 1693              		.section	.bss.Delay_time,"aw",%nobits
 1694              		.align	1
 1697              	Delay_time:
 1698 0000 0000     		.space	2
 1699              		.section	.bss.Laser_XY,"aw",%nobits
 1700              		.align	2
 1701              		.set	.LANCHOR7,. + 0
 1704              	Laser_XY:
 1705 0000 00000000 		.space	8
 1705      00000000 
 1706              		.section	.bss.Locate_angleX,"aw",%nobits
 1707              		.align	2
 1708              		.set	.LANCHOR0,. + 0
 1711              	Locate_angleX:
 1712 0000 00000000 		.space	8
 1712      00000000 
 1713              		.section	.bss.Locate_angleY,"aw",%nobits
 1714              		.align	2
 1715              		.set	.LANCHOR1,. + 0
 1718              	Locate_angleY:
 1719 0000 00000000 		.space	8
 1719      00000000 
 1720              		.section	.bss.MoveStart_Flag,"aw",%nobits
 1721              		.align	1
ARM GAS  C:\Users\86390\AppData\Local\Temp\cc4iGm64.s 			page 41


 1724              	MoveStart_Flag:
 1725 0000 0000     		.space	2
 1726              		.section	.bss.MoveStop_Flag,"aw",%nobits
 1727              		.align	1
 1730              	MoveStop_Flag:
 1731 0000 0000     		.space	2
 1732              		.section	.bss.Now_OriginAngle.0,"aw",%nobits
 1733              		.align	2
 1734              		.set	.LANCHOR11,. + 0
 1737              	Now_OriginAngle.0:
 1738 0000 00000000 		.space	8
 1738      00000000 
 1739              		.section	.bss.Rectangle_TargetAngle,"aw",%nobits
 1740              		.align	2
 1743              	Rectangle_TargetAngle:
 1744 0000 00000000 		.space	8
 1744      00000000 
 1745              		.section	.bss.RelaServo_Angle,"aw",%nobits
 1746              		.align	2
 1747              		.set	.LANCHOR10,. + 0
 1750              	RelaServo_Angle:
 1751 0000 00000000 		.space	8
 1751      00000000 
 1752              		.section	.bss.Servo_OriginAngle,"aw",%nobits
 1753              		.align	2
 1756              	Servo_OriginAngle:
 1757 0000 00000000 		.space	4
 1758              		.section	.bss.Servo_OriginXY,"aw",%nobits
 1759              		.align	2
 1762              	Servo_OriginXY:
 1763 0000 00000000 		.space	4
 1764              		.section	.bss.Servo_ZeroXY,"aw",%nobits
 1765              		.align	2
 1768              	Servo_ZeroXY:
 1769 0000 00000000 		.space	4
 1770              		.section	.bss.Set_rectangle_XY,"aw",%nobits
 1771              		.align	2
 1774              	Set_rectangle_XY:
 1775 0000 00000000 		.space	128
 1775      00000000 
 1775      00000000 
 1775      00000000 
 1775      00000000 
 1776              		.section	.bss.Tracking_CNT,"aw",%nobits
 1777              		.align	1
 1780              	Tracking_CNT:
 1781 0000 0000     		.space	2
 1782              		.section	.bss.Tracking_Enable,"aw",%nobits
 1783              		.align	1
 1786              	Tracking_Enable:
 1787 0000 0000     		.space	2
 1788              		.section	.bss.Tracking_Start_Flag,"aw",%nobits
 1789              		.align	1
 1792              	Tracking_Start_Flag:
 1793 0000 0000     		.space	2
 1794              		.section	.bss.X_Pid,"aw",%nobits
 1795              		.align	2
ARM GAS  C:\Users\86390\AppData\Local\Temp\cc4iGm64.s 			page 42


 1796              		.set	.LANCHOR8,. + 0
 1799              	X_Pid:
 1800 0000 00000000 		.space	12
 1800      00000000 
 1800      00000000 
 1801              		.section	.bss.Y_Pid,"aw",%nobits
 1802              		.align	2
 1803              		.set	.LANCHOR9,. + 0
 1806              	Y_Pid:
 1807 0000 00000000 		.space	12
 1807      00000000 
 1807      00000000 
 1808              		.section	.bss.integral.2,"aw",%nobits
 1809              		.align	2
 1810              		.set	.LANCHOR4,. + 0
 1813              	integral.2:
 1814 0000 00000000 		.space	4
 1815              		.section	.bss.last_error.1,"aw",%nobits
 1816              		.align	2
 1817              		.set	.LANCHOR5,. + 0
 1820              	last_error.1:
 1821 0000 00000000 		.space	4
 1822              		.section	.bss.rectangle_XY,"aw",%nobits
 1823              		.align	2
 1824              		.set	.LANCHOR6,. + 0
 1827              	rectangle_XY:
 1828 0000 00000000 		.space	32
 1828      00000000 
 1828      00000000 
 1828      00000000 
 1828      00000000 
 1829              		.text
 1830              	.Letext0:
 1831              		.file 2 "d:\\stm32_vscode_bag\\gnu\\arm-none-eabi\\include\\machine\\_default_types.h"
 1832              		.file 3 "d:\\stm32_vscode_bag\\gnu\\arm-none-eabi\\include\\sys\\_stdint.h"
 1833              		.file 4 "Drivers/CMSIS/Device/ST/STM32G4xx/Include/stm32g431xx.h"
 1834              		.file 5 "Drivers/STM32G4xx_HAL_Driver/Inc/stm32g4xx_hal_def.h"
 1835              		.file 6 "Drivers/STM32G4xx_HAL_Driver/Inc/stm32g4xx_hal_dma.h"
 1836              		.file 7 "Drivers/STM32G4xx_HAL_Driver/Inc/stm32g4xx_hal_uart.h"
 1837              		.file 8 "Core/Inc/main.h"
 1838              		.file 9 "E:/MCU_Project/stm32/Target_tracking/user/My_Peripheral/Servo/ring_buffer.h"
 1839              		.file 10 "E:/MCU_Project/stm32/Target_tracking/user/My_Peripheral/Servo/uart_servo_lite.h"
 1840              		.file 11 "E:/MCU_Project/stm32/Target_tracking/user/My_Peripheral/OLED/oled.h"
 1841              		.file 12 "E:/MCU_Project/stm32/Target_tracking/user/vofa_test/Variable.h"
 1842              		.file 13 "E:/MCU_Project/stm32/Target_tracking/user/Laser_Move/Servo_Move.h"
 1843              		.file 14 "E:/MCU_Project/stm32/Target_tracking/user/vofa_test/Master_PC.h"
 1844              		.file 15 "Drivers/STM32G4xx_HAL_Driver/Inc/stm32g4xx_hal.h"
ARM GAS  C:\Users\86390\AppData\Local\Temp\cc4iGm64.s 			page 43

