Archive member included to satisfy reference by file (symbol)

d:/stm32_vscode_bag/gnu/bin/../lib/gcc/arm-none-eabi/10.3.1/../../../../arm-none-eabi/lib/thumb/v7e-m+fp/hard\libc_nano.a(lib_a-errno.o)
                              build/sysmem.o (__errno)
d:/stm32_vscode_bag/gnu/bin/../lib/gcc/arm-none-eabi/10.3.1/../../../../arm-none-eabi/lib/thumb/v7e-m+fp/hard\libc_nano.a(lib_a-exit.o)
                              d:/stm32_vscode_bag/gnu/bin/../lib/gcc/arm-none-eabi/10.3.1/../../../../arm-none-eabi/lib/thumb/v7e-m+fp/hard/crt0.o (exit)
d:/stm32_vscode_bag/gnu/bin/../lib/gcc/arm-none-eabi/10.3.1/../../../../arm-none-eabi/lib/thumb/v7e-m+fp/hard\libc_nano.a(lib_a-impure.o)
                              d:/stm32_vscode_bag/gnu/bin/../lib/gcc/arm-none-eabi/10.3.1/../../../../arm-none-eabi/lib/thumb/v7e-m+fp/hard\libc_nano.a(lib_a-exit.o) (_global_impure_ptr)
d:/stm32_vscode_bag/gnu/bin/../lib/gcc/arm-none-eabi/10.3.1/../../../../arm-none-eabi/lib/thumb/v7e-m+fp/hard\libc_nano.a(lib_a-init.o)
                              d:/stm32_vscode_bag/gnu/bin/../lib/gcc/arm-none-eabi/10.3.1/../../../../arm-none-eabi/lib/thumb/v7e-m+fp/hard/crt0.o (__libc_init_array)
d:/stm32_vscode_bag/gnu/bin/../lib/gcc/arm-none-eabi/10.3.1/../../../../arm-none-eabi/lib/thumb/v7e-m+fp/hard\libc_nano.a(lib_a-memset.o)
                              d:/stm32_vscode_bag/gnu/bin/../lib/gcc/arm-none-eabi/10.3.1/../../../../arm-none-eabi/lib/thumb/v7e-m+fp/hard/crt0.o (memset)
d:/stm32_vscode_bag/gnu/bin/../lib/gcc/arm-none-eabi/10.3.1/../../../../arm-none-eabi/lib/thumb/v7e-m+fp/hard\libc_nano.a(lib_a-sprintf.o)
                              build/oled.o (sprintf)
d:/stm32_vscode_bag/gnu/bin/../lib/gcc/arm-none-eabi/10.3.1/../../../../arm-none-eabi/lib/thumb/v7e-m+fp/hard\libc_nano.a(lib_a-nano-svfprintf.o)
                              d:/stm32_vscode_bag/gnu/bin/../lib/gcc/arm-none-eabi/10.3.1/../../../../arm-none-eabi/lib/thumb/v7e-m+fp/hard\libc_nano.a(lib_a-sprintf.o) (_svfprintf_r)
d:/stm32_vscode_bag/gnu/bin/../lib/gcc/arm-none-eabi/10.3.1/../../../../arm-none-eabi/lib/thumb/v7e-m+fp/hard\libc_nano.a(lib_a-nano-vfprintf_i.o)
                              d:/stm32_vscode_bag/gnu/bin/../lib/gcc/arm-none-eabi/10.3.1/../../../../arm-none-eabi/lib/thumb/v7e-m+fp/hard\libc_nano.a(lib_a-nano-svfprintf.o) (_printf_i)
d:/stm32_vscode_bag/gnu/bin/../lib/gcc/arm-none-eabi/10.3.1/../../../../arm-none-eabi/lib/thumb/v7e-m+fp/hard\libc_nano.a(lib_a-memchr.o)
                              d:/stm32_vscode_bag/gnu/bin/../lib/gcc/arm-none-eabi/10.3.1/../../../../arm-none-eabi/lib/thumb/v7e-m+fp/hard\libc_nano.a(lib_a-nano-svfprintf.o) (memchr)
d:/stm32_vscode_bag/gnu/bin/../lib/gcc/arm-none-eabi/10.3.1/../../../../arm-none-eabi/lib/thumb/v7e-m+fp/hard\libc_nano.a(lib_a-memcpy-stub.o)
                              d:/stm32_vscode_bag/gnu/bin/../lib/gcc/arm-none-eabi/10.3.1/../../../../arm-none-eabi/lib/thumb/v7e-m+fp/hard\libc_nano.a(lib_a-nano-svfprintf.o) (memcpy)
d:/stm32_vscode_bag/gnu/bin/../lib/gcc/arm-none-eabi/10.3.1/../../../../arm-none-eabi/lib/thumb/v7e-m+fp/hard\libc_nano.a(lib_a-memmove.o)
                              d:/stm32_vscode_bag/gnu/bin/../lib/gcc/arm-none-eabi/10.3.1/../../../../arm-none-eabi/lib/thumb/v7e-m+fp/hard\libc_nano.a(lib_a-nano-svfprintf.o) (memmove)
d:/stm32_vscode_bag/gnu/bin/../lib/gcc/arm-none-eabi/10.3.1/../../../../arm-none-eabi/lib/thumb/v7e-m+fp/hard\libc_nano.a(lib_a-nano-freer.o)
                              d:/stm32_vscode_bag/gnu/bin/../lib/gcc/arm-none-eabi/10.3.1/../../../../arm-none-eabi/lib/thumb/v7e-m+fp/hard\libc_nano.a(lib_a-nano-svfprintf.o) (_free_r)
d:/stm32_vscode_bag/gnu/bin/../lib/gcc/arm-none-eabi/10.3.1/../../../../arm-none-eabi/lib/thumb/v7e-m+fp/hard\libc_nano.a(lib_a-nano-mallocr.o)
                              d:/stm32_vscode_bag/gnu/bin/../lib/gcc/arm-none-eabi/10.3.1/../../../../arm-none-eabi/lib/thumb/v7e-m+fp/hard\libc_nano.a(lib_a-nano-svfprintf.o) (_malloc_r)
d:/stm32_vscode_bag/gnu/bin/../lib/gcc/arm-none-eabi/10.3.1/../../../../arm-none-eabi/lib/thumb/v7e-m+fp/hard\libc_nano.a(lib_a-nano-reallocr.o)
                              d:/stm32_vscode_bag/gnu/bin/../lib/gcc/arm-none-eabi/10.3.1/../../../../arm-none-eabi/lib/thumb/v7e-m+fp/hard\libc_nano.a(lib_a-nano-svfprintf.o) (_realloc_r)
d:/stm32_vscode_bag/gnu/bin/../lib/gcc/arm-none-eabi/10.3.1/../../../../arm-none-eabi/lib/thumb/v7e-m+fp/hard\libc_nano.a(lib_a-sbrkr.o)
                              d:/stm32_vscode_bag/gnu/bin/../lib/gcc/arm-none-eabi/10.3.1/../../../../arm-none-eabi/lib/thumb/v7e-m+fp/hard\libc_nano.a(lib_a-nano-mallocr.o) (_sbrk_r)
d:/stm32_vscode_bag/gnu/bin/../lib/gcc/arm-none-eabi/10.3.1/../../../../arm-none-eabi/lib/thumb/v7e-m+fp/hard\libc_nano.a(lib_a-mlock.o)
                              d:/stm32_vscode_bag/gnu/bin/../lib/gcc/arm-none-eabi/10.3.1/../../../../arm-none-eabi/lib/thumb/v7e-m+fp/hard\libc_nano.a(lib_a-nano-freer.o) (__malloc_lock)
d:/stm32_vscode_bag/gnu/bin/../lib/gcc/arm-none-eabi/10.3.1/../../../../arm-none-eabi/lib/thumb/v7e-m+fp/hard\libc_nano.a(lib_a-nano-msizer.o)
                              d:/stm32_vscode_bag/gnu/bin/../lib/gcc/arm-none-eabi/10.3.1/../../../../arm-none-eabi/lib/thumb/v7e-m+fp/hard\libc_nano.a(lib_a-nano-reallocr.o) (_malloc_usable_size_r)
d:/stm32_vscode_bag/gnu/bin/../lib/gcc/arm-none-eabi/10.3.1/../../../../arm-none-eabi/lib/thumb/v7e-m+fp/hard\libc_nano.a(lib_a-reent.o)
                              d:/stm32_vscode_bag/gnu/bin/../lib/gcc/arm-none-eabi/10.3.1/../../../../arm-none-eabi/lib/thumb/v7e-m+fp/hard\libc_nano.a(lib_a-sbrkr.o) (errno)
d:/stm32_vscode_bag/gnu/bin/../lib/gcc/arm-none-eabi/10.3.1/../../../../arm-none-eabi/lib/thumb/v7e-m+fp/hard\libc_nano.a(lib_a-lock.o)
                              d:/stm32_vscode_bag/gnu/bin/../lib/gcc/arm-none-eabi/10.3.1/../../../../arm-none-eabi/lib/thumb/v7e-m+fp/hard\libc_nano.a(lib_a-mlock.o) (__retarget_lock_acquire_recursive)
d:/stm32_vscode_bag/gnu/bin/../lib/gcc/arm-none-eabi/10.3.1/thumb/v7e-m+fp/hard\libgcc.a(_arm_muldf3.o)
                              build/Servo_Move.o (__aeabi_dmul)
d:/stm32_vscode_bag/gnu/bin/../lib/gcc/arm-none-eabi/10.3.1/thumb/v7e-m+fp/hard\libgcc.a(_arm_addsubdf3.o)
                              build/Servo_Move.o (__aeabi_i2d)
d:/stm32_vscode_bag/gnu/bin/../lib/gcc/arm-none-eabi/10.3.1/thumb/v7e-m+fp/hard\libgcc.a(_arm_cmpdf2.o)
                              build/Servo_Move.o (__aeabi_dcmplt)
d:/stm32_vscode_bag/gnu/bin/../lib/gcc/arm-none-eabi/10.3.1/thumb/v7e-m+fp/hard\libgcc.a(_arm_fixunsdfsi.o)
                              build/oled.o (__aeabi_d2uiz)
d:/stm32_vscode_bag/gnu/bin/../lib/gcc/arm-none-eabi/10.3.1/thumb/v7e-m+fp/hard\libgcc.a(_aeabi_uldivmod.o)
                              build/stm32g4xx_hal_uart.o (__aeabi_uldivmod)
d:/stm32_vscode_bag/gnu/bin/../lib/gcc/arm-none-eabi/10.3.1/thumb/v7e-m+fp/hard\libgcc.a(_udivmoddi4.o)
                              d:/stm32_vscode_bag/gnu/bin/../lib/gcc/arm-none-eabi/10.3.1/thumb/v7e-m+fp/hard\libgcc.a(_aeabi_uldivmod.o) (__udivmoddi4)
d:/stm32_vscode_bag/gnu/bin/../lib/gcc/arm-none-eabi/10.3.1/thumb/v7e-m+fp/hard\libgcc.a(_dvmd_tls.o)
                              d:/stm32_vscode_bag/gnu/bin/../lib/gcc/arm-none-eabi/10.3.1/thumb/v7e-m+fp/hard\libgcc.a(_aeabi_uldivmod.o) (__aeabi_ldiv0)

Discarded input sections

 .text          0x00000000        0x0 d:/stm32_vscode_bag/gnu/bin/../lib/gcc/arm-none-eabi/10.3.1/thumb/v7e-m+fp/hard/crti.o
 .data          0x00000000        0x0 d:/stm32_vscode_bag/gnu/bin/../lib/gcc/arm-none-eabi/10.3.1/thumb/v7e-m+fp/hard/crti.o
 .bss           0x00000000        0x0 d:/stm32_vscode_bag/gnu/bin/../lib/gcc/arm-none-eabi/10.3.1/thumb/v7e-m+fp/hard/crti.o
 .data          0x00000000        0x4 d:/stm32_vscode_bag/gnu/bin/../lib/gcc/arm-none-eabi/10.3.1/thumb/v7e-m+fp/hard/crtbegin.o
 .rodata        0x00000000       0x24 d:/stm32_vscode_bag/gnu/bin/../lib/gcc/arm-none-eabi/10.3.1/thumb/v7e-m+fp/hard/crtbegin.o
 .text          0x00000000       0x7c d:/stm32_vscode_bag/gnu/bin/../lib/gcc/arm-none-eabi/10.3.1/../../../../arm-none-eabi/lib/thumb/v7e-m+fp/hard/crt0.o
 .data          0x00000000        0x0 d:/stm32_vscode_bag/gnu/bin/../lib/gcc/arm-none-eabi/10.3.1/../../../../arm-none-eabi/lib/thumb/v7e-m+fp/hard/crt0.o
 .bss           0x00000000        0x0 d:/stm32_vscode_bag/gnu/bin/../lib/gcc/arm-none-eabi/10.3.1/../../../../arm-none-eabi/lib/thumb/v7e-m+fp/hard/crt0.o
 .ARM.extab     0x00000000        0x0 d:/stm32_vscode_bag/gnu/bin/../lib/gcc/arm-none-eabi/10.3.1/../../../../arm-none-eabi/lib/thumb/v7e-m+fp/hard/crt0.o
 .ARM.exidx     0x00000000       0x10 d:/stm32_vscode_bag/gnu/bin/../lib/gcc/arm-none-eabi/10.3.1/../../../../arm-none-eabi/lib/thumb/v7e-m+fp/hard/crt0.o
 .ARM.attributes
                0x00000000       0x1c d:/stm32_vscode_bag/gnu/bin/../lib/gcc/arm-none-eabi/10.3.1/../../../../arm-none-eabi/lib/thumb/v7e-m+fp/hard/crt0.o
 .text          0x00000000        0x0 build/main.o
 .data          0x00000000        0x0 build/main.o
 .bss           0x00000000        0x0 build/main.o
 .bss.My_Angle  0x00000000        0x4 build/main.o
 .bss.My_CoordinateData
                0x00000000       0x14 build/main.o
 .bss.Test      0x00000000        0x2 build/main.o
 .bss.statusCode
                0x00000000        0x1 build/main.o
 .text          0x00000000        0x0 build/gpio.o
 .data          0x00000000        0x0 build/gpio.o
 .bss           0x00000000        0x0 build/gpio.o
 .text          0x00000000        0x0 build/dma.o
 .data          0x00000000        0x0 build/dma.o
 .bss           0x00000000        0x0 build/dma.o
 .text          0x00000000        0x0 build/i2c.o
 .data          0x00000000        0x0 build/i2c.o
 .bss           0x00000000        0x0 build/i2c.o
 .text.HAL_I2C_MspDeInit
                0x00000000       0x38 build/i2c.o
 .text          0x00000000        0x0 build/tim.o
 .data          0x00000000        0x0 build/tim.o
 .bss           0x00000000        0x0 build/tim.o
 .text.HAL_TIM_Base_MspDeInit
                0x00000000       0x44 build/tim.o
 .text          0x00000000        0x0 build/usart.o
 .data          0x00000000        0x0 build/usart.o
 .bss           0x00000000        0x0 build/usart.o
 .text.HAL_UART_MspDeInit
                0x00000000       0x90 build/usart.o
 .text          0x00000000        0x0 build/stm32g4xx_it.o
 .data          0x00000000        0x0 build/stm32g4xx_it.o
 .bss           0x00000000        0x0 build/stm32g4xx_it.o
 .text          0x00000000        0x0 build/stm32g4xx_hal_msp.o
 .data          0x00000000        0x0 build/stm32g4xx_hal_msp.o
 .bss           0x00000000        0x0 build/stm32g4xx_hal_msp.o
 .text          0x00000000        0x0 build/stm32g4xx_hal_i2c.o
 .data          0x00000000        0x0 build/stm32g4xx_hal_i2c.o
 .bss           0x00000000        0x0 build/stm32g4xx_hal_i2c.o
 .text.I2C_Enable_IRQ
                0x00000000       0x9c build/stm32g4xx_hal_i2c.o
 .text.I2C_Disable_IRQ
                0x00000000       0x70 build/stm32g4xx_hal_i2c.o
 .text.I2C_ConvertOtherXferOptions
                0x00000000       0x1e build/stm32g4xx_hal_i2c.o
 .text.I2C_RequestMemoryRead
                0x00000000       0x78 build/stm32g4xx_hal_i2c.o
 .text.I2C_WaitOnRXNEFlagUntilTimeout
                0x00000000       0xaa build/stm32g4xx_hal_i2c.o
 .text.HAL_I2C_MspInit
                0x00000000        0x2 build/stm32g4xx_hal_i2c.o
 .text.HAL_I2C_MspDeInit
                0x00000000        0x2 build/stm32g4xx_hal_i2c.o
 .text.HAL_I2C_DeInit
                0x00000000       0x32 build/stm32g4xx_hal_i2c.o
 .text.HAL_I2C_Master_Transmit
                0x00000000      0x1a4 build/stm32g4xx_hal_i2c.o
 .text.HAL_I2C_Master_Receive
                0x00000000      0x17c build/stm32g4xx_hal_i2c.o
 .text.HAL_I2C_Slave_Transmit
                0x00000000      0x1f4 build/stm32g4xx_hal_i2c.o
 .text.HAL_I2C_Slave_Receive
                0x00000000      0x17e build/stm32g4xx_hal_i2c.o
 .text.HAL_I2C_Master_Transmit_IT
                0x00000000       0xc8 build/stm32g4xx_hal_i2c.o
 .text.HAL_I2C_Master_Receive_IT
                0x00000000       0x98 build/stm32g4xx_hal_i2c.o
 .text.HAL_I2C_Slave_Transmit_IT
                0x00000000       0x8c build/stm32g4xx_hal_i2c.o
 .text.HAL_I2C_Slave_Receive_IT
                0x00000000       0x64 build/stm32g4xx_hal_i2c.o
 .text.HAL_I2C_Master_Transmit_DMA
                0x00000000      0x174 build/stm32g4xx_hal_i2c.o
 .text.HAL_I2C_Master_Receive_DMA
                0x00000000      0x150 build/stm32g4xx_hal_i2c.o
 .text.HAL_I2C_Slave_Transmit_DMA
                0x00000000      0x140 build/stm32g4xx_hal_i2c.o
 .text.HAL_I2C_Slave_Receive_DMA
                0x00000000       0xf4 build/stm32g4xx_hal_i2c.o
 .text.HAL_I2C_Mem_Read
                0x00000000      0x1b0 build/stm32g4xx_hal_i2c.o
 .text.HAL_I2C_Mem_Write_IT
                0x00000000       0xb8 build/stm32g4xx_hal_i2c.o
 .text.HAL_I2C_Mem_Read_IT
                0x00000000       0xb4 build/stm32g4xx_hal_i2c.o
 .text.HAL_I2C_Mem_Write_DMA
                0x00000000      0x134 build/stm32g4xx_hal_i2c.o
 .text.HAL_I2C_Mem_Read_DMA
                0x00000000      0x134 build/stm32g4xx_hal_i2c.o
 .text.HAL_I2C_IsDeviceReady
                0x00000000      0x13e build/stm32g4xx_hal_i2c.o
 .text.HAL_I2C_Master_Seq_Transmit_IT
                0x00000000      0x108 build/stm32g4xx_hal_i2c.o
 .text.HAL_I2C_Master_Seq_Transmit_DMA
                0x00000000      0x1e0 build/stm32g4xx_hal_i2c.o
 .text.HAL_I2C_Master_Seq_Receive_IT
                0x00000000       0xb4 build/stm32g4xx_hal_i2c.o
 .text.HAL_I2C_Master_Seq_Receive_DMA
                0x00000000      0x174 build/stm32g4xx_hal_i2c.o
 .text.HAL_I2C_Slave_Seq_Transmit_IT
                0x00000000       0xe0 build/stm32g4xx_hal_i2c.o
 .text.HAL_I2C_Slave_Seq_Transmit_DMA
                0x00000000      0x1ac build/stm32g4xx_hal_i2c.o
 .text.HAL_I2C_Slave_Seq_Receive_IT
                0x00000000       0xe0 build/stm32g4xx_hal_i2c.o
 .text.HAL_I2C_Slave_Seq_Receive_DMA
                0x00000000      0x1a8 build/stm32g4xx_hal_i2c.o
 .text.HAL_I2C_EnableListen_IT
                0x00000000       0x2c build/stm32g4xx_hal_i2c.o
 .text.HAL_I2C_DisableListen_IT
                0x00000000       0x3a build/stm32g4xx_hal_i2c.o
 .text.HAL_I2C_Master_Abort_IT
                0x00000000       0x8c build/stm32g4xx_hal_i2c.o
 .text.HAL_I2C_EV_IRQHandler
                0x00000000       0x10 build/stm32g4xx_hal_i2c.o
 .text.HAL_I2C_MasterTxCpltCallback
                0x00000000        0x2 build/stm32g4xx_hal_i2c.o
 .text.HAL_I2C_MasterRxCpltCallback
                0x00000000        0x2 build/stm32g4xx_hal_i2c.o
 .text.I2C_ITMasterSeqCplt
                0x00000000       0x54 build/stm32g4xx_hal_i2c.o
 .text.HAL_I2C_SlaveTxCpltCallback
                0x00000000        0x2 build/stm32g4xx_hal_i2c.o
 .text.HAL_I2C_SlaveRxCpltCallback
                0x00000000        0x2 build/stm32g4xx_hal_i2c.o
 .text.I2C_ITSlaveSeqCplt
                0x00000000       0x82 build/stm32g4xx_hal_i2c.o
 .text.I2C_DMASlaveTransmitCplt
                0x00000000       0x1e build/stm32g4xx_hal_i2c.o
 .text.I2C_DMASlaveReceiveCplt
                0x00000000       0x26 build/stm32g4xx_hal_i2c.o
 .text.HAL_I2C_AddrCallback
                0x00000000        0x2 build/stm32g4xx_hal_i2c.o
 .text.I2C_ITAddrCplt
                0x00000000       0xa0 build/stm32g4xx_hal_i2c.o
 .text.HAL_I2C_ListenCpltCallback
                0x00000000        0x2 build/stm32g4xx_hal_i2c.o
 .text.I2C_ITListenCplt
                0x00000000       0x68 build/stm32g4xx_hal_i2c.o
 .text.HAL_I2C_MemTxCpltCallback
                0x00000000        0x2 build/stm32g4xx_hal_i2c.o
 .text.HAL_I2C_MemRxCpltCallback
                0x00000000        0x2 build/stm32g4xx_hal_i2c.o
 .text.HAL_I2C_ErrorCallback
                0x00000000        0x2 build/stm32g4xx_hal_i2c.o
 .text.HAL_I2C_AbortCpltCallback
                0x00000000        0x2 build/stm32g4xx_hal_i2c.o
 .text.I2C_TreatErrorCallback
                0x00000000       0x2e build/stm32g4xx_hal_i2c.o
 .text.I2C_ITError
                0x00000000      0x130 build/stm32g4xx_hal_i2c.o
 .text.I2C_ITSlaveCplt
                0x00000000      0x1f8 build/stm32g4xx_hal_i2c.o
 .text.I2C_Slave_ISR_IT
                0x00000000      0x148 build/stm32g4xx_hal_i2c.o
 .text.I2C_ITMasterCplt
                0x00000000      0x12e build/stm32g4xx_hal_i2c.o
 .text.I2C_Master_ISR_IT
                0x00000000      0x192 build/stm32g4xx_hal_i2c.o
 .text.I2C_Mem_ISR_DMA
                0x00000000      0x1a8 build/stm32g4xx_hal_i2c.o
 .text.I2C_Slave_ISR_DMA
                0x00000000      0x11e build/stm32g4xx_hal_i2c.o
 .text.I2C_Master_ISR_DMA
                0x00000000      0x142 build/stm32g4xx_hal_i2c.o
 .text.I2C_DMAError
                0x00000000       0x16 build/stm32g4xx_hal_i2c.o
 .text.I2C_DMAMasterTransmitCplt
                0x00000000       0x5a build/stm32g4xx_hal_i2c.o
 .text.I2C_DMAMasterReceiveCplt
                0x00000000       0x5a build/stm32g4xx_hal_i2c.o
 .text.I2C_Mem_ISR_IT
                0x00000000      0x198 build/stm32g4xx_hal_i2c.o
 .text.HAL_I2C_ER_IRQHandler
                0x00000000       0x6a build/stm32g4xx_hal_i2c.o
 .text.I2C_DMAAbort
                0x00000000       0x1a build/stm32g4xx_hal_i2c.o
 .text.HAL_I2C_GetState
                0x00000000        0x6 build/stm32g4xx_hal_i2c.o
 .text.HAL_I2C_GetMode
                0x00000000        0x6 build/stm32g4xx_hal_i2c.o
 .text.HAL_I2C_GetError
                0x00000000        0x4 build/stm32g4xx_hal_i2c.o
 .text          0x00000000        0x0 build/stm32g4xx_hal_i2c_ex.o
 .data          0x00000000        0x0 build/stm32g4xx_hal_i2c_ex.o
 .bss           0x00000000        0x0 build/stm32g4xx_hal_i2c_ex.o
 .text.HAL_I2CEx_EnableWakeUp
                0x00000000       0x54 build/stm32g4xx_hal_i2c_ex.o
 .text.HAL_I2CEx_DisableWakeUp
                0x00000000       0x54 build/stm32g4xx_hal_i2c_ex.o
 .text.HAL_I2CEx_DisableFastModePlus
                0x00000000       0x2c build/stm32g4xx_hal_i2c_ex.o
 .text          0x00000000        0x0 build/stm32g4xx_hal.o
 .data          0x00000000        0x0 build/stm32g4xx_hal.o
 .bss           0x00000000        0x0 build/stm32g4xx_hal.o
 .text.HAL_MspInit
                0x00000000        0x2 build/stm32g4xx_hal.o
 .text.HAL_MspDeInit
                0x00000000        0x2 build/stm32g4xx_hal.o
 .text.HAL_DeInit
                0x00000000       0x2c build/stm32g4xx_hal.o
 .text.HAL_GetTickPrio
                0x00000000        0xc build/stm32g4xx_hal.o
 .text.HAL_SetTickFreq
                0x00000000       0x2c build/stm32g4xx_hal.o
 .text.HAL_GetTickFreq
                0x00000000        0xc build/stm32g4xx_hal.o
 .text.HAL_SuspendTick
                0x00000000        0xe build/stm32g4xx_hal.o
 .text.HAL_ResumeTick
                0x00000000        0xe build/stm32g4xx_hal.o
 .text.HAL_GetHalVersion
                0x00000000        0x8 build/stm32g4xx_hal.o
 .text.HAL_GetREVID
                0x00000000        0xc build/stm32g4xx_hal.o
 .text.HAL_GetDEVID
                0x00000000       0x10 build/stm32g4xx_hal.o
 .text.HAL_GetUIDw0
                0x00000000        0xc build/stm32g4xx_hal.o
 .text.HAL_GetUIDw1
                0x00000000        0xc build/stm32g4xx_hal.o
 .text.HAL_GetUIDw2
                0x00000000        0xc build/stm32g4xx_hal.o
 .text.HAL_DBGMCU_EnableDBGSleepMode
                0x00000000       0x10 build/stm32g4xx_hal.o
 .text.HAL_DBGMCU_DisableDBGSleepMode
                0x00000000       0x10 build/stm32g4xx_hal.o
 .text.HAL_DBGMCU_EnableDBGStopMode
                0x00000000       0x10 build/stm32g4xx_hal.o
 .text.HAL_DBGMCU_DisableDBGStopMode
                0x00000000       0x10 build/stm32g4xx_hal.o
 .text.HAL_DBGMCU_EnableDBGStandbyMode
                0x00000000       0x10 build/stm32g4xx_hal.o
 .text.HAL_DBGMCU_DisableDBGStandbyMode
                0x00000000       0x10 build/stm32g4xx_hal.o
 .text.HAL_SYSCFG_CCMSRAMErase
                0x00000000       0x18 build/stm32g4xx_hal.o
 .text.HAL_SYSCFG_EnableMemorySwappingBank
                0x00000000       0x10 build/stm32g4xx_hal.o
 .text.HAL_SYSCFG_DisableMemorySwappingBank
                0x00000000       0x10 build/stm32g4xx_hal.o
 .text.HAL_SYSCFG_VREFBUF_VoltageScalingConfig
                0x00000000       0x14 build/stm32g4xx_hal.o
 .text.HAL_SYSCFG_VREFBUF_HighImpedanceConfig
                0x00000000       0x14 build/stm32g4xx_hal.o
 .text.HAL_SYSCFG_VREFBUF_TrimmingConfig
                0x00000000       0x14 build/stm32g4xx_hal.o
 .text.HAL_SYSCFG_EnableVREFBUF
                0x00000000       0x34 build/stm32g4xx_hal.o
 .text.HAL_SYSCFG_DisableVREFBUF
                0x00000000       0x10 build/stm32g4xx_hal.o
 .text.HAL_SYSCFG_EnableIOSwitchBooster
                0x00000000       0x10 build/stm32g4xx_hal.o
 .text.HAL_SYSCFG_DisableIOSwitchBooster
                0x00000000       0x10 build/stm32g4xx_hal.o
 .text.HAL_SYSCFG_EnableIOSwitchVDD
                0x00000000       0x10 build/stm32g4xx_hal.o
 .text.HAL_SYSCFG_DisableIOSwitchVDD
                0x00000000       0x10 build/stm32g4xx_hal.o
 .text.HAL_SYSCFG_CCMSRAM_WriteProtectionEnable
                0x00000000       0x10 build/stm32g4xx_hal.o
 .text          0x00000000        0x0 build/stm32g4xx_hal_rcc.o
 .data          0x00000000        0x0 build/stm32g4xx_hal_rcc.o
 .bss           0x00000000        0x0 build/stm32g4xx_hal_rcc.o
 .text.HAL_RCC_DeInit
                0x00000000       0xcc build/stm32g4xx_hal_rcc.o
 .text.HAL_RCC_MCOConfig
                0x00000000       0x5c build/stm32g4xx_hal_rcc.o
 .text.HAL_RCC_GetOscConfig
                0x00000000       0xf4 build/stm32g4xx_hal_rcc.o
 .text.HAL_RCC_GetClockConfig
                0x00000000       0x3c build/stm32g4xx_hal_rcc.o
 .text.HAL_RCC_EnableCSS
                0x00000000       0x10 build/stm32g4xx_hal_rcc.o
 .text.HAL_RCC_EnableLSECSS
                0x00000000       0x14 build/stm32g4xx_hal_rcc.o
 .text.HAL_RCC_DisableLSECSS
                0x00000000       0x14 build/stm32g4xx_hal_rcc.o
 .text.HAL_RCC_CSSCallback
                0x00000000        0x2 build/stm32g4xx_hal_rcc.o
 .text.HAL_RCC_NMI_IRQHandler
                0x00000000       0x20 build/stm32g4xx_hal_rcc.o
 .text          0x00000000        0x0 build/stm32g4xx_hal_rcc_ex.o
 .data          0x00000000        0x0 build/stm32g4xx_hal_rcc_ex.o
 .bss           0x00000000        0x0 build/stm32g4xx_hal_rcc_ex.o
 .text.HAL_RCCEx_GetPeriphCLKConfig
                0x00000000       0xb0 build/stm32g4xx_hal_rcc_ex.o
 .text.HAL_RCCEx_GetPeriphCLKFreq
                0x00000000      0x640 build/stm32g4xx_hal_rcc_ex.o
 .text.HAL_RCCEx_EnableLSECSS
                0x00000000       0x14 build/stm32g4xx_hal_rcc_ex.o
 .text.HAL_RCCEx_DisableLSECSS
                0x00000000       0x1c build/stm32g4xx_hal_rcc_ex.o
 .text.HAL_RCCEx_EnableLSECSS_IT
                0x00000000       0x30 build/stm32g4xx_hal_rcc_ex.o
 .text.HAL_RCCEx_LSECSS_Callback
                0x00000000        0x2 build/stm32g4xx_hal_rcc_ex.o
 .text.HAL_RCCEx_LSECSS_IRQHandler
                0x00000000       0x20 build/stm32g4xx_hal_rcc_ex.o
 .text.HAL_RCCEx_EnableLSCO
                0x00000000       0xa0 build/stm32g4xx_hal_rcc_ex.o
 .text.HAL_RCCEx_DisableLSCO
                0x00000000       0x6c build/stm32g4xx_hal_rcc_ex.o
 .text.HAL_RCCEx_CRSConfig
                0x00000000       0x4c build/stm32g4xx_hal_rcc_ex.o
 .text.HAL_RCCEx_CRSSoftwareSynchronizationGenerate
                0x00000000       0x10 build/stm32g4xx_hal_rcc_ex.o
 .text.HAL_RCCEx_CRSGetSynchronizationInfo
                0x00000000       0x24 build/stm32g4xx_hal_rcc_ex.o
 .text.HAL_RCCEx_CRSWaitSynchronization
                0x00000000       0xac build/stm32g4xx_hal_rcc_ex.o
 .text.HAL_RCCEx_CRS_SyncOkCallback
                0x00000000        0x2 build/stm32g4xx_hal_rcc_ex.o
 .text.HAL_RCCEx_CRS_SyncWarnCallback
                0x00000000        0x2 build/stm32g4xx_hal_rcc_ex.o
 .text.HAL_RCCEx_CRS_ExpectedSyncCallback
                0x00000000        0x2 build/stm32g4xx_hal_rcc_ex.o
 .text.HAL_RCCEx_CRS_ErrorCallback
                0x00000000        0x2 build/stm32g4xx_hal_rcc_ex.o
 .text.HAL_RCCEx_CRS_IRQHandler
                0x00000000       0x88 build/stm32g4xx_hal_rcc_ex.o
 .text          0x00000000        0x0 build/stm32g4xx_hal_flash.o
 .data          0x00000000        0x0 build/stm32g4xx_hal_flash.o
 .bss           0x00000000        0x0 build/stm32g4xx_hal_flash.o
 .text.FLASH_Program_DoubleWord
                0x00000000       0x20 build/stm32g4xx_hal_flash.o
 .text.FLASH_Program_Fast
                0x00000000       0x2c build/stm32g4xx_hal_flash.o
 .text.HAL_FLASH_EndOfOperationCallback
                0x00000000        0x2 build/stm32g4xx_hal_flash.o
 .text.HAL_FLASH_OperationErrorCallback
                0x00000000        0x2 build/stm32g4xx_hal_flash.o
 .text.HAL_FLASH_IRQHandler
                0x00000000      0x120 build/stm32g4xx_hal_flash.o
 .text.HAL_FLASH_Unlock
                0x00000000       0x30 build/stm32g4xx_hal_flash.o
 .text.HAL_FLASH_Lock
                0x00000000       0x1c build/stm32g4xx_hal_flash.o
 .text.HAL_FLASH_OB_Unlock
                0x00000000       0x34 build/stm32g4xx_hal_flash.o
 .text.HAL_FLASH_OB_Lock
                0x00000000       0x20 build/stm32g4xx_hal_flash.o
 .text.HAL_FLASH_GetError
                0x00000000        0xc build/stm32g4xx_hal_flash.o
 .text.FLASH_WaitForLastOperation
                0x00000000       0x60 build/stm32g4xx_hal_flash.o
 .text.HAL_FLASH_Program
                0x00000000       0xb0 build/stm32g4xx_hal_flash.o
 .text.HAL_FLASH_Program_IT
                0x00000000       0xa4 build/stm32g4xx_hal_flash.o
 .text.HAL_FLASH_OB_Launch
                0x00000000       0x1c build/stm32g4xx_hal_flash.o
 .data.pFlash   0x00000000       0x20 build/stm32g4xx_hal_flash.o
 .debug_info    0x00000000      0x962 build/stm32g4xx_hal_flash.o
 .debug_abbrev  0x00000000      0x359 build/stm32g4xx_hal_flash.o
 .debug_loc     0x00000000      0x6c7 build/stm32g4xx_hal_flash.o
 .debug_aranges
                0x00000000       0x88 build/stm32g4xx_hal_flash.o
 .debug_ranges  0x00000000       0x78 build/stm32g4xx_hal_flash.o
 .debug_line    0x00000000      0x7a2 build/stm32g4xx_hal_flash.o
 .debug_str     0x00000000      0x62a build/stm32g4xx_hal_flash.o
 .comment       0x00000000       0x4a build/stm32g4xx_hal_flash.o
 .debug_frame   0x00000000      0x138 build/stm32g4xx_hal_flash.o
 .ARM.attributes
                0x00000000       0x34 build/stm32g4xx_hal_flash.o
 .text          0x00000000        0x0 build/stm32g4xx_hal_flash_ex.o
 .data          0x00000000        0x0 build/stm32g4xx_hal_flash_ex.o
 .bss           0x00000000        0x0 build/stm32g4xx_hal_flash_ex.o
 .text.FLASH_MassErase
                0x00000000       0x20 build/stm32g4xx_hal_flash_ex.o
 .text.FLASH_OB_GetSecMem
                0x00000000       0x18 build/stm32g4xx_hal_flash_ex.o
 .text.FLASH_OB_GetBootLock
                0x00000000       0x10 build/stm32g4xx_hal_flash_ex.o
 .text.FLASH_OB_GetWRP
                0x00000000       0x34 build/stm32g4xx_hal_flash_ex.o
 .text.FLASH_OB_GetRDP
                0x00000000       0x18 build/stm32g4xx_hal_flash_ex.o
 .text.FLASH_OB_GetUser
                0x00000000       0x10 build/stm32g4xx_hal_flash_ex.o
 .text.FLASH_OB_GetPCROP
                0x00000000       0x40 build/stm32g4xx_hal_flash_ex.o
 .text.FLASH_OB_WRPConfig
                0x00000000       0x44 build/stm32g4xx_hal_flash_ex.o
 .text.FLASH_OB_RDPConfig
                0x00000000       0x34 build/stm32g4xx_hal_flash_ex.o
 .text.FLASH_OB_UserConfig
                0x00000000      0x128 build/stm32g4xx_hal_flash_ex.o
 .text.FLASH_OB_PCROPConfig
                0x00000000       0x68 build/stm32g4xx_hal_flash_ex.o
 .text.FLASH_OB_SecMemConfig
                0x00000000       0x3c build/stm32g4xx_hal_flash_ex.o
 .text.FLASH_OB_BootLockConfig
                0x00000000       0x34 build/stm32g4xx_hal_flash_ex.o
 .text.HAL_FLASHEx_OBProgram
                0x00000000       0xc0 build/stm32g4xx_hal_flash_ex.o
 .text.HAL_FLASHEx_OBGetConfig
                0x00000000       0x74 build/stm32g4xx_hal_flash_ex.o
 .text.HAL_FLASHEx_EnableSecMemProtection
                0x00000000       0x14 build/stm32g4xx_hal_flash_ex.o
 .text.HAL_FLASHEx_EnableDebugger
                0x00000000       0x10 build/stm32g4xx_hal_flash_ex.o
 .text.HAL_FLASHEx_DisableDebugger
                0x00000000       0x10 build/stm32g4xx_hal_flash_ex.o
 .text.FLASH_PageErase
                0x00000000       0x28 build/stm32g4xx_hal_flash_ex.o
 .text.HAL_FLASHEx_Erase_IT
                0x00000000       0xb0 build/stm32g4xx_hal_flash_ex.o
 .text.FLASH_FlushCaches
                0x00000000       0x64 build/stm32g4xx_hal_flash_ex.o
 .text.HAL_FLASHEx_Erase
                0x00000000       0xec build/stm32g4xx_hal_flash_ex.o
 .debug_info    0x00000000      0xc97 build/stm32g4xx_hal_flash_ex.o
 .debug_abbrev  0x00000000      0x2e4 build/stm32g4xx_hal_flash_ex.o
 .debug_loc     0x00000000      0x905 build/stm32g4xx_hal_flash_ex.o
 .debug_aranges
                0x00000000       0xc8 build/stm32g4xx_hal_flash_ex.o
 .debug_ranges  0x00000000       0xb8 build/stm32g4xx_hal_flash_ex.o
 .debug_line    0x00000000      0xb49 build/stm32g4xx_hal_flash_ex.o
 .debug_str     0x00000000      0x748 build/stm32g4xx_hal_flash_ex.o
 .comment       0x00000000       0x4a build/stm32g4xx_hal_flash_ex.o
 .debug_frame   0x00000000      0x1f0 build/stm32g4xx_hal_flash_ex.o
 .ARM.attributes
                0x00000000       0x34 build/stm32g4xx_hal_flash_ex.o
 .text          0x00000000        0x0 build/stm32g4xx_hal_flash_ramfunc.o
 .data          0x00000000        0x0 build/stm32g4xx_hal_flash_ramfunc.o
 .bss           0x00000000        0x0 build/stm32g4xx_hal_flash_ramfunc.o
 .RamFunc       0x00000000       0x48 build/stm32g4xx_hal_flash_ramfunc.o
 .debug_info    0x00000000      0x211 build/stm32g4xx_hal_flash_ramfunc.o
 .debug_abbrev  0x00000000       0xcc build/stm32g4xx_hal_flash_ramfunc.o
 .debug_aranges
                0x00000000       0x28 build/stm32g4xx_hal_flash_ramfunc.o
 .debug_ranges  0x00000000       0x18 build/stm32g4xx_hal_flash_ramfunc.o
 .debug_line    0x00000000      0x18e build/stm32g4xx_hal_flash_ramfunc.o
 .debug_str     0x00000000      0x28a build/stm32g4xx_hal_flash_ramfunc.o
 .comment       0x00000000       0x4a build/stm32g4xx_hal_flash_ramfunc.o
 .debug_frame   0x00000000       0x30 build/stm32g4xx_hal_flash_ramfunc.o
 .ARM.attributes
                0x00000000       0x34 build/stm32g4xx_hal_flash_ramfunc.o
 .text          0x00000000        0x0 build/stm32g4xx_hal_gpio.o
 .data          0x00000000        0x0 build/stm32g4xx_hal_gpio.o
 .bss           0x00000000        0x0 build/stm32g4xx_hal_gpio.o
 .text.HAL_GPIO_DeInit
                0x00000000      0x11c build/stm32g4xx_hal_gpio.o
 .text.HAL_GPIO_TogglePin
                0x00000000       0x12 build/stm32g4xx_hal_gpio.o
 .text.HAL_GPIO_LockPin
                0x00000000       0x2e build/stm32g4xx_hal_gpio.o
 .text.HAL_GPIO_EXTI_Callback
                0x00000000        0x2 build/stm32g4xx_hal_gpio.o
 .text.HAL_GPIO_EXTI_IRQHandler
                0x00000000       0x1c build/stm32g4xx_hal_gpio.o
 .text          0x00000000        0x0 build/stm32g4xx_hal_exti.o
 .data          0x00000000        0x0 build/stm32g4xx_hal_exti.o
 .bss           0x00000000        0x0 build/stm32g4xx_hal_exti.o
 .text.HAL_EXTI_SetConfigLine
                0x00000000       0xdc build/stm32g4xx_hal_exti.o
 .text.HAL_EXTI_GetConfigLine
                0x00000000       0xbc build/stm32g4xx_hal_exti.o
 .text.HAL_EXTI_ClearConfigLine
                0x00000000       0xa0 build/stm32g4xx_hal_exti.o
 .text.HAL_EXTI_RegisterCallback
                0x00000000       0x10 build/stm32g4xx_hal_exti.o
 .text.HAL_EXTI_GetHandle
                0x00000000        0xc build/stm32g4xx_hal_exti.o
 .text.HAL_EXTI_IRQHandler
                0x00000000       0x2c build/stm32g4xx_hal_exti.o
 .text.HAL_EXTI_GetPending
                0x00000000       0x20 build/stm32g4xx_hal_exti.o
 .text.HAL_EXTI_ClearPending
                0x00000000       0x1c build/stm32g4xx_hal_exti.o
 .text.HAL_EXTI_GenerateSWI
                0x00000000       0x1c build/stm32g4xx_hal_exti.o
 .debug_info    0x00000000      0x7e0 build/stm32g4xx_hal_exti.o
 .debug_abbrev  0x00000000      0x1d1 build/stm32g4xx_hal_exti.o
 .debug_loc     0x00000000      0xbbd build/stm32g4xx_hal_exti.o
 .debug_aranges
                0x00000000       0x60 build/stm32g4xx_hal_exti.o
 .debug_ranges  0x00000000       0x50 build/stm32g4xx_hal_exti.o
 .debug_line    0x00000000      0x700 build/stm32g4xx_hal_exti.o
 .debug_str     0x00000000      0x414 build/stm32g4xx_hal_exti.o
 .comment       0x00000000       0x4a build/stm32g4xx_hal_exti.o
 .debug_frame   0x00000000       0xf4 build/stm32g4xx_hal_exti.o
 .ARM.attributes
                0x00000000       0x34 build/stm32g4xx_hal_exti.o
 .text          0x00000000        0x0 build/stm32g4xx_hal_dma.o
 .data          0x00000000        0x0 build/stm32g4xx_hal_dma.o
 .bss           0x00000000        0x0 build/stm32g4xx_hal_dma.o
 .text.HAL_DMA_DeInit
                0x00000000       0xb8 build/stm32g4xx_hal_dma.o
 .text.HAL_DMA_Start
                0x00000000       0x52 build/stm32g4xx_hal_dma.o
 .text.HAL_DMA_PollForTransfer
                0x00000000      0x11c build/stm32g4xx_hal_dma.o
 .text.HAL_DMA_RegisterCallback
                0x00000000       0x4c build/stm32g4xx_hal_dma.o
 .text.HAL_DMA_UnRegisterCallback
                0x00000000       0x5c build/stm32g4xx_hal_dma.o
 .text.HAL_DMA_GetState
                0x00000000        0x6 build/stm32g4xx_hal_dma.o
 .text.HAL_DMA_GetError
                0x00000000        0x4 build/stm32g4xx_hal_dma.o
 .text          0x00000000        0x0 build/stm32g4xx_hal_dma_ex.o
 .data          0x00000000        0x0 build/stm32g4xx_hal_dma_ex.o
 .bss           0x00000000        0x0 build/stm32g4xx_hal_dma_ex.o
 .text.HAL_DMAEx_ConfigMuxSync
                0x00000000       0x56 build/stm32g4xx_hal_dma_ex.o
 .text.HAL_DMAEx_ConfigMuxRequestGenerator
                0x00000000       0x5e build/stm32g4xx_hal_dma_ex.o
 .text.HAL_DMAEx_EnableMuxRequestGenerator
                0x00000000       0x1e build/stm32g4xx_hal_dma_ex.o
 .text.HAL_DMAEx_DisableMuxRequestGenerator
                0x00000000       0x1e build/stm32g4xx_hal_dma_ex.o
 .text.HAL_DMAEx_MUX_IRQHandler
                0x00000000       0x5a build/stm32g4xx_hal_dma_ex.o
 .debug_info    0x00000000      0x73f build/stm32g4xx_hal_dma_ex.o
 .debug_abbrev  0x00000000      0x205 build/stm32g4xx_hal_dma_ex.o
 .debug_loc     0x00000000      0x2b0 build/stm32g4xx_hal_dma_ex.o
 .debug_aranges
                0x00000000       0x40 build/stm32g4xx_hal_dma_ex.o
 .debug_ranges  0x00000000       0x48 build/stm32g4xx_hal_dma_ex.o
 .debug_line    0x00000000      0x449 build/stm32g4xx_hal_dma_ex.o
 .debug_str     0x00000000      0x661 build/stm32g4xx_hal_dma_ex.o
 .comment       0x00000000       0x4a build/stm32g4xx_hal_dma_ex.o
 .debug_frame   0x00000000       0x8c build/stm32g4xx_hal_dma_ex.o
 .ARM.attributes
                0x00000000       0x34 build/stm32g4xx_hal_dma_ex.o
 .text          0x00000000        0x0 build/stm32g4xx_hal_pwr.o
 .data          0x00000000        0x0 build/stm32g4xx_hal_pwr.o
 .bss           0x00000000        0x0 build/stm32g4xx_hal_pwr.o
 .text.HAL_PWR_DeInit
                0x00000000       0x18 build/stm32g4xx_hal_pwr.o
 .text.HAL_PWR_EnableBkUpAccess
                0x00000000       0x10 build/stm32g4xx_hal_pwr.o
 .text.HAL_PWR_DisableBkUpAccess
                0x00000000       0x10 build/stm32g4xx_hal_pwr.o
 .text.HAL_PWR_ConfigPVD
                0x00000000       0x84 build/stm32g4xx_hal_pwr.o
 .text.HAL_PWR_EnablePVD
                0x00000000       0x10 build/stm32g4xx_hal_pwr.o
 .text.HAL_PWR_DisablePVD
                0x00000000       0x10 build/stm32g4xx_hal_pwr.o
 .text.HAL_PWR_EnableWakeUpPin
                0x00000000       0x20 build/stm32g4xx_hal_pwr.o
 .text.HAL_PWR_DisableWakeUpPin
                0x00000000       0x14 build/stm32g4xx_hal_pwr.o
 .text.HAL_PWR_EnterSLEEPMode
                0x00000000       0x48 build/stm32g4xx_hal_pwr.o
 .text.HAL_PWR_EnterSTOPMode
                0x00000000       0x18 build/stm32g4xx_hal_pwr.o
 .text.HAL_PWR_EnterSTANDBYMode
                0x00000000       0x24 build/stm32g4xx_hal_pwr.o
 .text.HAL_PWR_EnableSleepOnExit
                0x00000000       0x10 build/stm32g4xx_hal_pwr.o
 .text.HAL_PWR_DisableSleepOnExit
                0x00000000       0x10 build/stm32g4xx_hal_pwr.o
 .text.HAL_PWR_EnableSEVOnPend
                0x00000000       0x10 build/stm32g4xx_hal_pwr.o
 .text.HAL_PWR_DisableSEVOnPend
                0x00000000       0x10 build/stm32g4xx_hal_pwr.o
 .text.HAL_PWR_PVDCallback
                0x00000000        0x2 build/stm32g4xx_hal_pwr.o
 .debug_info    0x00000000      0xabe build/stm32g4xx_hal_pwr.o
 .debug_abbrev  0x00000000      0x19d build/stm32g4xx_hal_pwr.o
 .debug_loc     0x00000000      0x1f1 build/stm32g4xx_hal_pwr.o
 .debug_aranges
                0x00000000       0x98 build/stm32g4xx_hal_pwr.o
 .debug_ranges  0x00000000       0x88 build/stm32g4xx_hal_pwr.o
 .debug_line    0x00000000      0x3cb build/stm32g4xx_hal_pwr.o
 .debug_str     0x00000000      0x684 build/stm32g4xx_hal_pwr.o
 .comment       0x00000000       0x4a build/stm32g4xx_hal_pwr.o
 .debug_frame   0x00000000      0x120 build/stm32g4xx_hal_pwr.o
 .ARM.attributes
                0x00000000       0x34 build/stm32g4xx_hal_pwr.o
 .text          0x00000000        0x0 build/stm32g4xx_hal_pwr_ex.o
 .data          0x00000000        0x0 build/stm32g4xx_hal_pwr_ex.o
 .bss           0x00000000        0x0 build/stm32g4xx_hal_pwr_ex.o
 .text.HAL_PWREx_GetVoltageRange
                0x00000000       0x24 build/stm32g4xx_hal_pwr_ex.o
 .text.HAL_PWREx_EnableBatteryCharging
                0x00000000       0x1c build/stm32g4xx_hal_pwr_ex.o
 .text.HAL_PWREx_DisableBatteryCharging
                0x00000000       0x10 build/stm32g4xx_hal_pwr_ex.o
 .text.HAL_PWREx_EnableInternalWakeUpLine
                0x00000000       0x10 build/stm32g4xx_hal_pwr_ex.o
 .text.HAL_PWREx_DisableInternalWakeUpLine
                0x00000000       0x10 build/stm32g4xx_hal_pwr_ex.o
 .text.HAL_PWREx_EnableGPIOPullUp
                0x00000000       0xb8 build/stm32g4xx_hal_pwr_ex.o
 .text.HAL_PWREx_DisableGPIOPullUp
                0x00000000       0x8c build/stm32g4xx_hal_pwr_ex.o
 .text.HAL_PWREx_EnableGPIOPullDown
                0x00000000       0xbc build/stm32g4xx_hal_pwr_ex.o
 .text.HAL_PWREx_DisableGPIOPullDown
                0x00000000       0x88 build/stm32g4xx_hal_pwr_ex.o
 .text.HAL_PWREx_EnablePullUpPullDownConfig
                0x00000000       0x10 build/stm32g4xx_hal_pwr_ex.o
 .text.HAL_PWREx_DisablePullUpPullDownConfig
                0x00000000       0x10 build/stm32g4xx_hal_pwr_ex.o
 .text.HAL_PWREx_EnableSRAM2ContentRetention
                0x00000000       0x10 build/stm32g4xx_hal_pwr_ex.o
 .text.HAL_PWREx_DisableSRAM2ContentRetention
                0x00000000       0x10 build/stm32g4xx_hal_pwr_ex.o
 .text.HAL_PWREx_EnablePVM1
                0x00000000       0x10 build/stm32g4xx_hal_pwr_ex.o
 .text.HAL_PWREx_DisablePVM1
                0x00000000       0x10 build/stm32g4xx_hal_pwr_ex.o
 .text.HAL_PWREx_EnablePVM2
                0x00000000       0x10 build/stm32g4xx_hal_pwr_ex.o
 .text.HAL_PWREx_DisablePVM2
                0x00000000       0x10 build/stm32g4xx_hal_pwr_ex.o
 .text.HAL_PWREx_EnablePVM3
                0x00000000       0x10 build/stm32g4xx_hal_pwr_ex.o
 .text.HAL_PWREx_DisablePVM3
                0x00000000       0x10 build/stm32g4xx_hal_pwr_ex.o
 .text.HAL_PWREx_EnablePVM4
                0x00000000       0x10 build/stm32g4xx_hal_pwr_ex.o
 .text.HAL_PWREx_DisablePVM4
                0x00000000       0x10 build/stm32g4xx_hal_pwr_ex.o
 .text.HAL_PWREx_ConfigPVM
                0x00000000      0x1ec build/stm32g4xx_hal_pwr_ex.o
 .text.HAL_PWREx_EnableLowPowerRunMode
                0x00000000       0x10 build/stm32g4xx_hal_pwr_ex.o
 .text.HAL_PWREx_DisableLowPowerRunMode
                0x00000000       0x54 build/stm32g4xx_hal_pwr_ex.o
 .text.HAL_PWREx_EnterSTOP0Mode
                0x00000000       0x38 build/stm32g4xx_hal_pwr_ex.o
 .text.HAL_PWREx_EnterSTOP1Mode
                0x00000000       0x3c build/stm32g4xx_hal_pwr_ex.o
 .text.HAL_PWREx_EnterSHUTDOWNMode
                0x00000000       0x24 build/stm32g4xx_hal_pwr_ex.o
 .text.HAL_PWREx_PVM1Callback
                0x00000000        0x2 build/stm32g4xx_hal_pwr_ex.o
 .text.HAL_PWREx_PVM2Callback
                0x00000000        0x2 build/stm32g4xx_hal_pwr_ex.o
 .text.HAL_PWREx_PVM3Callback
                0x00000000        0x2 build/stm32g4xx_hal_pwr_ex.o
 .text.HAL_PWREx_PVM4Callback
                0x00000000        0x2 build/stm32g4xx_hal_pwr_ex.o
 .text.HAL_PWREx_PVD_PVM_IRQHandler
                0x00000000       0x78 build/stm32g4xx_hal_pwr_ex.o
 .text.HAL_PWREx_EnableUCPDStandbyMode
                0x00000000       0x10 build/stm32g4xx_hal_pwr_ex.o
 .text.HAL_PWREx_DisableUCPDStandbyMode
                0x00000000       0x10 build/stm32g4xx_hal_pwr_ex.o
 .text.HAL_PWREx_EnableUCPDDeadBattery
                0x00000000       0x10 build/stm32g4xx_hal_pwr_ex.o
 .text          0x00000000        0x0 build/stm32g4xx_hal_cortex.o
 .data          0x00000000        0x0 build/stm32g4xx_hal_cortex.o
 .bss           0x00000000        0x0 build/stm32g4xx_hal_cortex.o
 .text.HAL_NVIC_DisableIRQ
                0x00000000       0x24 build/stm32g4xx_hal_cortex.o
 .text.HAL_NVIC_SystemReset
                0x00000000       0x24 build/stm32g4xx_hal_cortex.o
 .text.HAL_NVIC_GetPriorityGrouping
                0x00000000       0x10 build/stm32g4xx_hal_cortex.o
 .text.HAL_NVIC_GetPriority
                0x00000000       0x60 build/stm32g4xx_hal_cortex.o
 .text.HAL_NVIC_SetPendingIRQ
                0x00000000       0x1c build/stm32g4xx_hal_cortex.o
 .text.HAL_NVIC_GetPendingIRQ
                0x00000000       0x24 build/stm32g4xx_hal_cortex.o
 .text.HAL_NVIC_ClearPendingIRQ
                0x00000000       0x1c build/stm32g4xx_hal_cortex.o
 .text.HAL_NVIC_GetActive
                0x00000000       0x24 build/stm32g4xx_hal_cortex.o
 .text.HAL_SYSTICK_CLKSourceConfig
                0x00000000       0x20 build/stm32g4xx_hal_cortex.o
 .text.HAL_SYSTICK_Callback
                0x00000000        0x2 build/stm32g4xx_hal_cortex.o
 .text.HAL_SYSTICK_IRQHandler
                0x00000000        0x8 build/stm32g4xx_hal_cortex.o
 .text.HAL_MPU_Enable
                0x00000000       0x18 build/stm32g4xx_hal_cortex.o
 .text.HAL_MPU_Disable
                0x00000000       0x14 build/stm32g4xx_hal_cortex.o
 .text.HAL_MPU_EnableRegion
                0x00000000       0x18 build/stm32g4xx_hal_cortex.o
 .text.HAL_MPU_DisableRegion
                0x00000000       0x18 build/stm32g4xx_hal_cortex.o
 .text.HAL_MPU_ConfigRegion
                0x00000000       0x58 build/stm32g4xx_hal_cortex.o
 .text          0x00000000        0x0 build/stm32g4xx_hal_tim.o
 .data          0x00000000        0x0 build/stm32g4xx_hal_tim.o
 .bss           0x00000000        0x0 build/stm32g4xx_hal_tim.o
 .text.TIM_OC1_SetConfig
                0x00000000       0xa0 build/stm32g4xx_hal_tim.o
 .text.TIM_OC3_SetConfig
                0x00000000       0x8c build/stm32g4xx_hal_tim.o
 .text.TIM_OC4_SetConfig
                0x00000000       0x8c build/stm32g4xx_hal_tim.o
 .text.TIM_OC5_SetConfig
                0x00000000       0x68 build/stm32g4xx_hal_tim.o
 .text.TIM_OC6_SetConfig
                0x00000000       0x6c build/stm32g4xx_hal_tim.o
 .text.TIM_TI1_ConfigInputStage
                0x00000000       0x26 build/stm32g4xx_hal_tim.o
 .text.TIM_TI2_SetConfig
                0x00000000       0x36 build/stm32g4xx_hal_tim.o
 .text.TIM_TI2_ConfigInputStage
                0x00000000       0x28 build/stm32g4xx_hal_tim.o
 .text.TIM_TI3_SetConfig
                0x00000000       0x36 build/stm32g4xx_hal_tim.o
 .text.TIM_TI4_SetConfig
                0x00000000       0x36 build/stm32g4xx_hal_tim.o
 .text.TIM_ITRx_SetConfig
                0x00000000       0x14 build/stm32g4xx_hal_tim.o
 .text.HAL_TIM_Base_MspInit
                0x00000000        0x2 build/stm32g4xx_hal_tim.o
 .text.HAL_TIM_Base_MspDeInit
                0x00000000        0x2 build/stm32g4xx_hal_tim.o
 .text.HAL_TIM_Base_DeInit
                0x00000000       0x66 build/stm32g4xx_hal_tim.o
 .text.HAL_TIM_Base_Start
                0x00000000       0x7c build/stm32g4xx_hal_tim.o
 .text.HAL_TIM_Base_Stop
                0x00000000       0x28 build/stm32g4xx_hal_tim.o
 .text.HAL_TIM_Base_Start_DMA
                0x00000000       0xcc build/stm32g4xx_hal_tim.o
 .text.HAL_TIM_Base_Stop_DMA
                0x00000000       0x3c build/stm32g4xx_hal_tim.o
 .text.HAL_TIM_OC_MspInit
                0x00000000        0x2 build/stm32g4xx_hal_tim.o
 .text.HAL_TIM_OC_MspDeInit
                0x00000000        0x2 build/stm32g4xx_hal_tim.o
 .text.HAL_TIM_OC_DeInit
                0x00000000       0x66 build/stm32g4xx_hal_tim.o
 .text.HAL_TIM_PWM_MspInit
                0x00000000        0x2 build/stm32g4xx_hal_tim.o
 .text.HAL_TIM_PWM_MspDeInit
                0x00000000        0x2 build/stm32g4xx_hal_tim.o
 .text.HAL_TIM_PWM_DeInit
                0x00000000       0x66 build/stm32g4xx_hal_tim.o
 .text.HAL_TIM_IC_MspInit
                0x00000000        0x2 build/stm32g4xx_hal_tim.o
 .text.HAL_TIM_IC_MspDeInit
                0x00000000        0x2 build/stm32g4xx_hal_tim.o
 .text.HAL_TIM_IC_DeInit
                0x00000000       0x66 build/stm32g4xx_hal_tim.o
 .text.HAL_TIM_OnePulse_MspInit
                0x00000000        0x2 build/stm32g4xx_hal_tim.o
 .text.HAL_TIM_OnePulse_MspDeInit
                0x00000000        0x2 build/stm32g4xx_hal_tim.o
 .text.HAL_TIM_OnePulse_DeInit
                0x00000000       0x4e build/stm32g4xx_hal_tim.o
 .text.HAL_TIM_Encoder_MspInit
                0x00000000        0x2 build/stm32g4xx_hal_tim.o
 .text.HAL_TIM_Encoder_MspDeInit
                0x00000000        0x2 build/stm32g4xx_hal_tim.o
 .text.HAL_TIM_Encoder_DeInit
                0x00000000       0x4e build/stm32g4xx_hal_tim.o
 .text.HAL_TIM_DMABurst_MultiWriteStart
                0x00000000      0x1b8 build/stm32g4xx_hal_tim.o
 .text.HAL_TIM_DMABurst_WriteStart
                0x00000000       0x16 build/stm32g4xx_hal_tim.o
 .text.HAL_TIM_DMABurst_WriteStop
                0x00000000       0x84 build/stm32g4xx_hal_tim.o
 .text.HAL_TIM_DMABurst_MultiReadStart
                0x00000000      0x1b8 build/stm32g4xx_hal_tim.o
 .text.HAL_TIM_DMABurst_ReadStart
                0x00000000       0x16 build/stm32g4xx_hal_tim.o
 .text.HAL_TIM_DMABurst_ReadStop
                0x00000000       0x84 build/stm32g4xx_hal_tim.o
 .text.HAL_TIM_GenerateEvent
                0x00000000       0x2a build/stm32g4xx_hal_tim.o
 .text.HAL_TIM_ConfigTI1Input
                0x00000000       0x10 build/stm32g4xx_hal_tim.o
 .text.HAL_TIM_ReadCapturedValue
                0x00000000       0x32 build/stm32g4xx_hal_tim.o
 .text.HAL_TIM_PeriodElapsedCallback
                0x00000000        0x2 build/stm32g4xx_hal_tim.o
 .text.TIM_DMAPeriodElapsedCplt
                0x00000000       0x16 build/stm32g4xx_hal_tim.o
 .text.HAL_TIM_PeriodElapsedHalfCpltCallback
                0x00000000        0x2 build/stm32g4xx_hal_tim.o
 .text.TIM_DMAPeriodElapsedHalfCplt
                0x00000000        0xa build/stm32g4xx_hal_tim.o
 .text.TIM_DMACaptureCplt
                0x00000000       0x80 build/stm32g4xx_hal_tim.o
 .text.HAL_TIM_IC_CaptureHalfCpltCallback
                0x00000000        0x2 build/stm32g4xx_hal_tim.o
 .text.TIM_DMACaptureHalfCplt
                0x00000000       0x3e build/stm32g4xx_hal_tim.o
 .text.TIM_DMADelayPulseCplt
                0x00000000       0x70 build/stm32g4xx_hal_tim.o
 .text.HAL_TIM_PWM_PulseFinishedHalfCpltCallback
                0x00000000        0x2 build/stm32g4xx_hal_tim.o
 .text.TIM_DMADelayPulseHalfCplt
                0x00000000       0x3e build/stm32g4xx_hal_tim.o
 .text.TIM_DMATriggerCplt
                0x00000000       0x16 build/stm32g4xx_hal_tim.o
 .text.HAL_TIM_TriggerHalfCpltCallback
                0x00000000        0x2 build/stm32g4xx_hal_tim.o
 .text.TIM_DMATriggerHalfCplt
                0x00000000        0xa build/stm32g4xx_hal_tim.o
 .text.HAL_TIM_ErrorCallback
                0x00000000        0x2 build/stm32g4xx_hal_tim.o
 .text.TIM_DMAError
                0x00000000       0x5c build/stm32g4xx_hal_tim.o
 .text.HAL_TIM_Base_GetState
                0x00000000        0x6 build/stm32g4xx_hal_tim.o
 .text.HAL_TIM_OC_GetState
                0x00000000        0x6 build/stm32g4xx_hal_tim.o
 .text.HAL_TIM_PWM_GetState
                0x00000000        0x6 build/stm32g4xx_hal_tim.o
 .text.HAL_TIM_IC_GetState
                0x00000000        0x6 build/stm32g4xx_hal_tim.o
 .text.HAL_TIM_OnePulse_GetState
                0x00000000        0x6 build/stm32g4xx_hal_tim.o
 .text.HAL_TIM_Encoder_GetState
                0x00000000        0x6 build/stm32g4xx_hal_tim.o
 .text.HAL_TIM_GetActiveChannel
                0x00000000        0x4 build/stm32g4xx_hal_tim.o
 .text.HAL_TIM_GetChannelState
                0x00000000       0x42 build/stm32g4xx_hal_tim.o
 .text.HAL_TIM_DMABurstState
                0x00000000        0x6 build/stm32g4xx_hal_tim.o
 .text.HAL_TIM_OC_Init
                0x00000000       0x60 build/stm32g4xx_hal_tim.o
 .text.HAL_TIM_PWM_Init
                0x00000000       0x60 build/stm32g4xx_hal_tim.o
 .text.HAL_TIM_IC_Init
                0x00000000       0x60 build/stm32g4xx_hal_tim.o
 .text.HAL_TIM_OnePulse_Init
                0x00000000       0x5c build/stm32g4xx_hal_tim.o
 .text.HAL_TIM_Encoder_Init
                0x00000000       0xb6 build/stm32g4xx_hal_tim.o
 .text.TIM_OC2_SetConfig
                0x00000000       0x8c build/stm32g4xx_hal_tim.o
 .text.HAL_TIM_OC_ConfigChannel
                0x00000000       0x7a build/stm32g4xx_hal_tim.o
 .text.HAL_TIM_PWM_ConfigChannel
                0x00000000      0x13a build/stm32g4xx_hal_tim.o
 .text.TIM_TI1_SetConfig
                0x00000000       0x68 build/stm32g4xx_hal_tim.o
 .text.HAL_TIM_IC_ConfigChannel
                0x00000000       0xc4 build/stm32g4xx_hal_tim.o
 .text.HAL_TIM_OnePulse_ConfigChannel
                0x00000000      0x10a build/stm32g4xx_hal_tim.o
 .text.TIM_ETR_SetConfig
                0x00000000       0x1a build/stm32g4xx_hal_tim.o
 .text.HAL_TIM_ConfigOCrefClear
                0x00000000      0x250 build/stm32g4xx_hal_tim.o
 .text.HAL_TIM_ConfigClockSource
                0x00000000      0x138 build/stm32g4xx_hal_tim.o
 .text.TIM_SlaveTimer_SetConfig
                0x00000000      0x114 build/stm32g4xx_hal_tim.o
 .text.HAL_TIM_SlaveConfigSynchro
                0x00000000       0x52 build/stm32g4xx_hal_tim.o
 .text.HAL_TIM_SlaveConfigSynchro_IT
                0x00000000       0x52 build/stm32g4xx_hal_tim.o
 .text.TIM_CCxChannelCmd
                0x00000000       0x1e build/stm32g4xx_hal_tim.o
 .text.HAL_TIM_OC_Start
                0x00000000      0x158 build/stm32g4xx_hal_tim.o
 .text.HAL_TIM_OC_Stop
                0x00000000       0xb8 build/stm32g4xx_hal_tim.o
 .text.HAL_TIM_OC_Start_IT
                0x00000000      0x1a0 build/stm32g4xx_hal_tim.o
 .text.HAL_TIM_OC_Stop_IT
                0x00000000      0x10c build/stm32g4xx_hal_tim.o
 .text.HAL_TIM_OC_Start_DMA
                0x00000000      0x2f0 build/stm32g4xx_hal_tim.o
 .text.HAL_TIM_OC_Stop_DMA
                0x00000000      0x128 build/stm32g4xx_hal_tim.o
 .text.HAL_TIM_PWM_Start
                0x00000000      0x158 build/stm32g4xx_hal_tim.o
 .text.HAL_TIM_PWM_Stop
                0x00000000       0xb8 build/stm32g4xx_hal_tim.o
 .text.HAL_TIM_PWM_Start_IT
                0x00000000      0x1a0 build/stm32g4xx_hal_tim.o
 .text.HAL_TIM_PWM_Stop_IT
                0x00000000      0x10c build/stm32g4xx_hal_tim.o
 .text.HAL_TIM_PWM_Start_DMA
                0x00000000      0x2f0 build/stm32g4xx_hal_tim.o
 .text.HAL_TIM_PWM_Stop_DMA
                0x00000000      0x128 build/stm32g4xx_hal_tim.o
 .text.HAL_TIM_IC_Start
                0x00000000      0x160 build/stm32g4xx_hal_tim.o
 .text.HAL_TIM_IC_Stop
                0x00000000       0x98 build/stm32g4xx_hal_tim.o
 .text.HAL_TIM_IC_Start_IT
                0x00000000      0x1a8 build/stm32g4xx_hal_tim.o
 .text.HAL_TIM_IC_Stop_IT
                0x00000000       0xe8 build/stm32g4xx_hal_tim.o
 .text.HAL_TIM_IC_Start_DMA
                0x00000000      0x29c build/stm32g4xx_hal_tim.o
 .text.HAL_TIM_IC_Stop_DMA
                0x00000000      0x100 build/stm32g4xx_hal_tim.o
 .text.HAL_TIM_OnePulse_Start
                0x00000000       0x98 build/stm32g4xx_hal_tim.o
 .text.HAL_TIM_OnePulse_Stop
                0x00000000       0x94 build/stm32g4xx_hal_tim.o
 .text.HAL_TIM_OnePulse_Start_IT
                0x00000000       0xb0 build/stm32g4xx_hal_tim.o
 .text.HAL_TIM_OnePulse_Stop_IT
                0x00000000       0xa8 build/stm32g4xx_hal_tim.o
 .text.HAL_TIM_Encoder_Start
                0x00000000       0xcc build/stm32g4xx_hal_tim.o
 .text.HAL_TIM_Encoder_Stop
                0x00000000       0xdc build/stm32g4xx_hal_tim.o
 .text.HAL_TIM_Encoder_Start_IT
                0x00000000       0xf6 build/stm32g4xx_hal_tim.o
 .text.HAL_TIM_Encoder_Stop_IT
                0x00000000      0x106 build/stm32g4xx_hal_tim.o
 .text.HAL_TIM_Encoder_Start_DMA
                0x00000000      0x264 build/stm32g4xx_hal_tim.o
 .text.HAL_TIM_Encoder_Stop_DMA
                0x00000000      0x11e build/stm32g4xx_hal_tim.o
 .text          0x00000000        0x0 build/stm32g4xx_hal_tim_ex.o
 .data          0x00000000        0x0 build/stm32g4xx_hal_tim_ex.o
 .bss           0x00000000        0x0 build/stm32g4xx_hal_tim_ex.o
 .text.TIM_CCxNChannelCmd
                0x00000000       0x1e build/stm32g4xx_hal_tim_ex.o
 .text.TIM_DMAErrorCCxN
                0x00000000       0x54 build/stm32g4xx_hal_tim_ex.o
 .text.TIM_DMADelayPulseNCplt
                0x00000000       0x70 build/stm32g4xx_hal_tim_ex.o
 .text.HAL_TIMEx_HallSensor_MspInit
                0x00000000        0x2 build/stm32g4xx_hal_tim_ex.o
 .text.HAL_TIMEx_HallSensor_Init
                0x00000000       0xe0 build/stm32g4xx_hal_tim_ex.o
 .text.HAL_TIMEx_HallSensor_MspDeInit
                0x00000000        0x2 build/stm32g4xx_hal_tim_ex.o
 .text.HAL_TIMEx_HallSensor_DeInit
                0x00000000       0x4e build/stm32g4xx_hal_tim_ex.o
 .text.HAL_TIMEx_HallSensor_Start
                0x00000000       0xb8 build/stm32g4xx_hal_tim_ex.o
 .text.HAL_TIMEx_HallSensor_Stop
                0x00000000       0x42 build/stm32g4xx_hal_tim_ex.o
 .text.HAL_TIMEx_HallSensor_Start_IT
                0x00000000       0xc4 build/stm32g4xx_hal_tim_ex.o
 .text.HAL_TIMEx_HallSensor_Stop_IT
                0x00000000       0x4c build/stm32g4xx_hal_tim_ex.o
 .text.HAL_TIMEx_HallSensor_Start_DMA
                0x00000000       0xe8 build/stm32g4xx_hal_tim_ex.o
 .text.HAL_TIMEx_HallSensor_Stop_DMA
                0x00000000       0x4a build/stm32g4xx_hal_tim_ex.o
 .text.HAL_TIMEx_OCN_Start
                0x00000000       0xf4 build/stm32g4xx_hal_tim_ex.o
 .text.HAL_TIMEx_OCN_Stop
                0x00000000       0x76 build/stm32g4xx_hal_tim_ex.o
 .text.HAL_TIMEx_OCN_Start_IT
                0x00000000      0x148 build/stm32g4xx_hal_tim_ex.o
 .text.HAL_TIMEx_OCN_Stop_IT
                0x00000000       0xda build/stm32g4xx_hal_tim_ex.o
 .text.HAL_TIMEx_OCN_Start_DMA
                0x00000000      0x264 build/stm32g4xx_hal_tim_ex.o
 .text.HAL_TIMEx_OCN_Stop_DMA
                0x00000000       0xde build/stm32g4xx_hal_tim_ex.o
 .text.HAL_TIMEx_PWMN_Start
                0x00000000       0xf4 build/stm32g4xx_hal_tim_ex.o
 .text.HAL_TIMEx_PWMN_Stop
                0x00000000       0x76 build/stm32g4xx_hal_tim_ex.o
 .text.HAL_TIMEx_PWMN_Start_IT
                0x00000000      0x148 build/stm32g4xx_hal_tim_ex.o
 .text.HAL_TIMEx_PWMN_Stop_IT
                0x00000000       0xda build/stm32g4xx_hal_tim_ex.o
 .text.HAL_TIMEx_PWMN_Start_DMA
                0x00000000      0x264 build/stm32g4xx_hal_tim_ex.o
 .text.HAL_TIMEx_PWMN_Stop_DMA
                0x00000000       0xde build/stm32g4xx_hal_tim_ex.o
 .text.HAL_TIMEx_OnePulseN_Start
                0x00000000       0x7a build/stm32g4xx_hal_tim_ex.o
 .text.HAL_TIMEx_OnePulseN_Stop
                0x00000000       0x72 build/stm32g4xx_hal_tim_ex.o
 .text.HAL_TIMEx_OnePulseN_Start_IT
                0x00000000       0x8e build/stm32g4xx_hal_tim_ex.o
 .text.HAL_TIMEx_OnePulseN_Stop_IT
                0x00000000       0x86 build/stm32g4xx_hal_tim_ex.o
 .text.HAL_TIMEx_ConfigCommutEvent
                0x00000000       0x98 build/stm32g4xx_hal_tim_ex.o
 .text.HAL_TIMEx_ConfigCommutEvent_IT
                0x00000000       0x98 build/stm32g4xx_hal_tim_ex.o
 .text.HAL_TIMEx_ConfigCommutEvent_DMA
                0x00000000       0xb8 build/stm32g4xx_hal_tim_ex.o
 .text.HAL_TIMEx_ConfigBreakDeadTime
                0x00000000       0xa0 build/stm32g4xx_hal_tim_ex.o
 .text.HAL_TIMEx_ConfigBreakInput
                0x00000000       0xd8 build/stm32g4xx_hal_tim_ex.o
 .text.HAL_TIMEx_RemapConfig
                0x00000000       0x28 build/stm32g4xx_hal_tim_ex.o
 .text.HAL_TIMEx_TISelection
                0x00000000       0x9c build/stm32g4xx_hal_tim_ex.o
 .text.HAL_TIMEx_GroupChannel5
                0x00000000       0x3e build/stm32g4xx_hal_tim_ex.o
 .text.HAL_TIMEx_DisarmBreakInput
                0x00000000       0x50 build/stm32g4xx_hal_tim_ex.o
 .text.HAL_TIMEx_ReArmBreakInput
                0x00000000       0x84 build/stm32g4xx_hal_tim_ex.o
 .text.HAL_TIMEx_DitheringEnable
                0x00000000        0xe build/stm32g4xx_hal_tim_ex.o
 .text.HAL_TIMEx_DitheringDisable
                0x00000000        0xe build/stm32g4xx_hal_tim_ex.o
 .text.HAL_TIMEx_OC_ConfigPulseOnCompare
                0x00000000       0x44 build/stm32g4xx_hal_tim_ex.o
 .text.HAL_TIMEx_ConfigSlaveModePreload
                0x00000000       0x10 build/stm32g4xx_hal_tim_ex.o
 .text.HAL_TIMEx_EnableSlaveModePreload
                0x00000000        0xe build/stm32g4xx_hal_tim_ex.o
 .text.HAL_TIMEx_DisableSlaveModePreload
                0x00000000        0xe build/stm32g4xx_hal_tim_ex.o
 .text.HAL_TIMEx_EnableDeadTimePreload
                0x00000000        0xe build/stm32g4xx_hal_tim_ex.o
 .text.HAL_TIMEx_DisableDeadTimePreload
                0x00000000        0xe build/stm32g4xx_hal_tim_ex.o
 .text.HAL_TIMEx_ConfigDeadTime
                0x00000000       0x10 build/stm32g4xx_hal_tim_ex.o
 .text.HAL_TIMEx_ConfigAsymmetricalDeadTime
                0x00000000       0x10 build/stm32g4xx_hal_tim_ex.o
 .text.HAL_TIMEx_EnableAsymmetricalDeadTime
                0x00000000        0xe build/stm32g4xx_hal_tim_ex.o
 .text.HAL_TIMEx_DisableAsymmetricalDeadTime
                0x00000000        0xe build/stm32g4xx_hal_tim_ex.o
 .text.HAL_TIMEx_ConfigEncoderIndex
                0x00000000       0x50 build/stm32g4xx_hal_tim_ex.o
 .text.HAL_TIMEx_EnableEncoderIndex
                0x00000000        0xe build/stm32g4xx_hal_tim_ex.o
 .text.HAL_TIMEx_DisableEncoderIndex
                0x00000000        0xe build/stm32g4xx_hal_tim_ex.o
 .text.HAL_TIMEx_EnableEncoderFirstIndex
                0x00000000        0xe build/stm32g4xx_hal_tim_ex.o
 .text.HAL_TIMEx_DisableEncoderFirstIndex
                0x00000000        0xe build/stm32g4xx_hal_tim_ex.o
 .text.TIMEx_DMACommutationCplt
                0x00000000       0x10 build/stm32g4xx_hal_tim_ex.o
 .text.HAL_TIMEx_CommutHalfCpltCallback
                0x00000000        0x2 build/stm32g4xx_hal_tim_ex.o
 .text.TIMEx_DMACommutationHalfCplt
                0x00000000       0x10 build/stm32g4xx_hal_tim_ex.o
 .text.HAL_TIMEx_HallSensor_GetState
                0x00000000        0x6 build/stm32g4xx_hal_tim_ex.o
 .text.HAL_TIMEx_GetChannelNState
                0x00000000       0x2a build/stm32g4xx_hal_tim_ex.o
 .text          0x00000000        0x0 build/stm32g4xx_hal_uart.o
 .data          0x00000000        0x0 build/stm32g4xx_hal_uart.o
 .bss           0x00000000        0x0 build/stm32g4xx_hal_uart.o
 .text.UART_TxISR_8BIT
                0x00000000       0x56 build/stm32g4xx_hal_uart.o
 .text.UART_TxISR_16BIT
                0x00000000       0x5a build/stm32g4xx_hal_uart.o
 .text.UART_TxISR_8BIT_FIFOEN
                0x00000000       0x74 build/stm32g4xx_hal_uart.o
 .text.UART_TxISR_16BIT_FIFOEN
                0x00000000       0x78 build/stm32g4xx_hal_uart.o
 .text.HAL_UART_MspInit
                0x00000000        0x2 build/stm32g4xx_hal_uart.o
 .text.HAL_UART_MspDeInit
                0x00000000        0x2 build/stm32g4xx_hal_uart.o
 .text.HAL_UART_DeInit
                0x00000000       0x44 build/stm32g4xx_hal_uart.o
 .text.HAL_UART_Transmit_IT
                0x00000000       0xac build/stm32g4xx_hal_uart.o
 .text.HAL_UART_Transmit_DMA
                0x00000000       0xa0 build/stm32g4xx_hal_uart.o
 .text.HAL_UART_DMAPause
                0x00000000       0x8c build/stm32g4xx_hal_uart.o
 .text.HAL_UART_DMAResume
                0x00000000       0x7c build/stm32g4xx_hal_uart.o
 .text.HAL_UART_DMAStop
                0x00000000       0xb2 build/stm32g4xx_hal_uart.o
 .text.HAL_UART_Abort
                0x00000000      0x122 build/stm32g4xx_hal_uart.o
 .text.HAL_UART_AbortTransmit
                0x00000000       0x98 build/stm32g4xx_hal_uart.o
 .text.HAL_UART_AbortReceive
                0x00000000       0xb8 build/stm32g4xx_hal_uart.o
 .text.UART_DMATransmitCplt
                0x00000000       0x48 build/stm32g4xx_hal_uart.o
 .text.HAL_UART_TxHalfCpltCallback
                0x00000000        0x2 build/stm32g4xx_hal_uart.o
 .text.UART_DMATxHalfCplt
                0x00000000        0xa build/stm32g4xx_hal_uart.o
 .text.HAL_UART_RxCpltCallback
                0x00000000        0x2 build/stm32g4xx_hal_uart.o
 .text.HAL_UART_AbortCpltCallback
                0x00000000        0x2 build/stm32g4xx_hal_uart.o
 .text.HAL_UART_Abort_IT
                0x00000000      0x150 build/stm32g4xx_hal_uart.o
 .text.UART_DMARxAbortCallback
                0x00000000       0x44 build/stm32g4xx_hal_uart.o
 .text.UART_DMATxAbortCallback
                0x00000000       0x50 build/stm32g4xx_hal_uart.o
 .text.HAL_UART_AbortTransmitCpltCallback
                0x00000000        0x2 build/stm32g4xx_hal_uart.o
 .text.HAL_UART_AbortTransmit_IT
                0x00000000       0xac build/stm32g4xx_hal_uart.o
 .text.UART_DMATxOnlyAbortCallback
                0x00000000       0x2a build/stm32g4xx_hal_uart.o
 .text.HAL_UART_AbortReceiveCpltCallback
                0x00000000        0x2 build/stm32g4xx_hal_uart.o
 .text.HAL_UART_AbortReceive_IT
                0x00000000       0xd8 build/stm32g4xx_hal_uart.o
 .text.UART_DMARxOnlyAbortCallback
                0x00000000       0x28 build/stm32g4xx_hal_uart.o
 .text.HAL_UART_ReceiverTimeout_Config
                0x00000000       0x18 build/stm32g4xx_hal_uart.o
 .text.HAL_UART_EnableReceiverTimeout
                0x00000000       0x4c build/stm32g4xx_hal_uart.o
 .text.HAL_UART_DisableReceiverTimeout
                0x00000000       0x4c build/stm32g4xx_hal_uart.o
 .text.HAL_MultiProcessor_EnterMuteMode
                0x00000000        0xc build/stm32g4xx_hal_uart.o
 .text.HAL_HalfDuplex_EnableTransmitter
                0x00000000       0x4c build/stm32g4xx_hal_uart.o
 .text.HAL_HalfDuplex_EnableReceiver
                0x00000000       0x4c build/stm32g4xx_hal_uart.o
 .text.HAL_LIN_SendBreak
                0x00000000       0x32 build/stm32g4xx_hal_uart.o
 .text.HAL_UART_GetState
                0x00000000        0xc build/stm32g4xx_hal_uart.o
 .text.HAL_UART_GetError
                0x00000000        0x6 build/stm32g4xx_hal_uart.o
 .text.HAL_UART_Receive
                0x00000000      0x118 build/stm32g4xx_hal_uart.o
 .text.HAL_HalfDuplex_Init
                0x00000000       0x72 build/stm32g4xx_hal_uart.o
 .text.HAL_LIN_Init
                0x00000000       0x96 build/stm32g4xx_hal_uart.o
 .text.HAL_MultiProcessor_Init
                0x00000000       0x8e build/stm32g4xx_hal_uart.o
 .text.HAL_MultiProcessor_EnableMuteMode
                0x00000000       0x38 build/stm32g4xx_hal_uart.o
 .text.HAL_MultiProcessor_DisableMuteMode
                0x00000000       0x38 build/stm32g4xx_hal_uart.o
 .text          0x00000000        0x0 build/stm32g4xx_hal_uart_ex.o
 .data          0x00000000        0x0 build/stm32g4xx_hal_uart_ex.o
 .bss           0x00000000        0x0 build/stm32g4xx_hal_uart_ex.o
 .text.UARTEx_Wakeup_AddressConfig
                0x00000000       0x2e build/stm32g4xx_hal_uart_ex.o
 .text.HAL_RS485Ex_Init
                0x00000000       0x86 build/stm32g4xx_hal_uart_ex.o
 .text.HAL_MultiProcessorEx_AddressLength_Set
                0x00000000       0x38 build/stm32g4xx_hal_uart_ex.o
 .text.HAL_UARTEx_StopModeWakeUpSourceConfig
                0x00000000       0x82 build/stm32g4xx_hal_uart_ex.o
 .text.HAL_UARTEx_EnableStopMode
                0x00000000       0x2e build/stm32g4xx_hal_uart_ex.o
 .text.HAL_UARTEx_DisableStopMode
                0x00000000       0x2e build/stm32g4xx_hal_uart_ex.o
 .text.HAL_UARTEx_EnableFifoMode
                0x00000000       0x48 build/stm32g4xx_hal_uart_ex.o
 .text.HAL_UARTEx_ReceiveToIdle
                0x00000000      0x162 build/stm32g4xx_hal_uart_ex.o
 .text.HAL_UARTEx_ReceiveToIdle_IT
                0x00000000       0x4e build/stm32g4xx_hal_uart_ex.o
 .text.HAL_UARTEx_ReceiveToIdle_DMA
                0x00000000       0x50 build/stm32g4xx_hal_uart_ex.o
 .text.HAL_UARTEx_GetRxEventType
                0x00000000        0x4 build/stm32g4xx_hal_uart_ex.o
 .text          0x00000000        0x0 build/system_stm32g4xx.o
 .data          0x00000000        0x0 build/system_stm32g4xx.o
 .bss           0x00000000        0x0 build/system_stm32g4xx.o
 .text.SystemCoreClockUpdate
                0x00000000       0x90 build/system_stm32g4xx.o
 .text          0x00000000        0x0 build/sysmem.o
 .data          0x00000000        0x0 build/sysmem.o
 .bss           0x00000000        0x0 build/sysmem.o
 .text          0x00000000        0x0 build/syscalls.o
 .data          0x00000000        0x0 build/syscalls.o
 .bss           0x00000000        0x0 build/syscalls.o
 .text.initialise_monitor_handles
                0x00000000        0x2 build/syscalls.o
 .text._getpid  0x00000000        0x4 build/syscalls.o
 .text._kill    0x00000000       0x10 build/syscalls.o
 .text._exit    0x00000000        0xc build/syscalls.o
 .text._read    0x00000000       0x20 build/syscalls.o
 .text._write   0x00000000       0x1c build/syscalls.o
 .text._close   0x00000000        0x6 build/syscalls.o
 .text._fstat   0x00000000        0xa build/syscalls.o
 .text._isatty  0x00000000        0x4 build/syscalls.o
 .text._lseek   0x00000000        0x4 build/syscalls.o
 .text._open    0x00000000        0xa build/syscalls.o
 .text._wait    0x00000000       0x10 build/syscalls.o
 .text._unlink  0x00000000       0x10 build/syscalls.o
 .text._times   0x00000000        0x6 build/syscalls.o
 .text._stat    0x00000000        0xa build/syscalls.o
 .text._link    0x00000000       0x10 build/syscalls.o
 .text._fork    0x00000000       0x10 build/syscalls.o
 .text._execve  0x00000000       0x10 build/syscalls.o
 .bss.__env     0x00000000        0x4 build/syscalls.o
 .data.environ  0x00000000        0x4 build/syscalls.o
 .debug_info    0x00000000      0x835 build/syscalls.o
 .debug_abbrev  0x00000000      0x1c4 build/syscalls.o
 .debug_loc     0x00000000      0x511 build/syscalls.o
 .debug_aranges
                0x00000000       0xa8 build/syscalls.o
 .debug_ranges  0x00000000       0x98 build/syscalls.o
 .debug_line    0x00000000      0x3cc build/syscalls.o
 .debug_str     0x00000000      0x3d8 build/syscalls.o
 .comment       0x00000000       0x4a build/syscalls.o
 .debug_frame   0x00000000      0x190 build/syscalls.o
 .ARM.attributes
                0x00000000       0x34 build/syscalls.o
 .text          0x00000000        0x0 build/Servo_Move.o
 .data          0x00000000        0x0 build/Servo_Move.o
 .bss           0x00000000        0x0 build/Servo_Move.o
 .text.Servo_SetZeroAngle
                0x00000000       0xc0 build/Servo_Move.o
 .bss.Delay_time
                0x00000000        0x2 build/Servo_Move.o
 .bss.MoveStart_Flag
                0x00000000        0x2 build/Servo_Move.o
 .bss.MoveStop_Flag
                0x00000000        0x2 build/Servo_Move.o
 .bss.Rectangle_TargetAngle
                0x00000000        0x8 build/Servo_Move.o
 .bss.Servo_OriginAngle
                0x00000000        0x4 build/Servo_Move.o
 .bss.Servo_OriginXY
                0x00000000        0x4 build/Servo_Move.o
 .bss.Servo_ZeroXY
                0x00000000        0x4 build/Servo_Move.o
 .text          0x00000000        0x0 build/My_KeyBoard.o
 .data          0x00000000        0x0 build/My_KeyBoard.o
 .bss           0x00000000        0x0 build/My_KeyBoard.o
 .text          0x00000000        0x0 build/oled.o
 .data          0x00000000        0x0 build/oled.o
 .bss           0x00000000        0x0 build/oled.o
 .text.OLED_On  0x00000000       0x3a build/oled.o
 .text.OLED_Display_On
                0x00000000       0x16 build/oled.o
 .text.OLED_Display_Off
                0x00000000       0x16 build/oled.o
 .text.oled_pow
                0x00000000       0x16 build/oled.o
 .text.OLED_ShowNum
                0x00000000       0x9c build/oled.o
 .text.OLED_Showdecimal
                0x00000000      0x158 build/oled.o
 .text.OLED_ShowCHinese
                0x00000000       0x88 build/oled.o
 .text.OLED_DrawBMP
                0x00000000       0x66 build/oled.o
 .text.OLED_HorizontalShift
                0x00000000       0x3c build/oled.o
 .text.OLED_Some_HorizontalShift
                0x00000000       0x40 build/oled.o
 .text.OLED_VerticalAndHorizontalShift
                0x00000000       0x42 build/oled.o
 .text.OLED_DisplayMode
                0x00000000        0x8 build/oled.o
 .text.OLED_IntensityControl
                0x00000000       0x12 build/oled.o
 .bss.GetOriginData_Flag
                0x00000000        0x1 build/oled.o
 .text          0x00000000        0x0 build/oledfont.o
 .data          0x00000000        0x0 build/oledfont.o
 .bss           0x00000000        0x0 build/oledfont.o
 .data.BMP1     0x00000000       0x80 build/oledfont.o
 .rodata.Hzk    0x00000000       0xc0 build/oledfont.o
 .text          0x00000000        0x0 build/ring_buffer.o
 .data          0x00000000        0x0 build/ring_buffer.o
 .bss           0x00000000        0x0 build/ring_buffer.o
 .text.RingBuffer_Reset
                0x00000000        0x8 build/ring_buffer.o
 .text.RingBuffer_ReadByteArray
                0x00000000       0x1e build/ring_buffer.o
 .text.RingBuffer_ReadShort
                0x00000000       0x18 build/ring_buffer.o
 .text.RingBuffer_ReadUShort
                0x00000000       0x18 build/ring_buffer.o
 .text.RingBuffer_ReadLong
                0x00000000       0x16 build/ring_buffer.o
 .text.RingBuffer_ReadULong
                0x00000000       0x16 build/ring_buffer.o
 .text.RingBuffer_ReadFloat
                0x00000000       0x18 build/ring_buffer.o
 .text.RingBuffer_WriteShort
                0x00000000       0x18 build/ring_buffer.o
 .text.RingBuffer_WriteLong
                0x00000000       0x16 build/ring_buffer.o
 .text.RingBuffer_WriteULong
                0x00000000       0x16 build/ring_buffer.o
 .text.RingBuffer_WriteFloat
                0x00000000       0x18 build/ring_buffer.o
 .text          0x00000000        0x0 build/Tick.o
 .data          0x00000000        0x0 build/Tick.o
 .bss           0x00000000        0x0 build/Tick.o
 .text.Tick_DelayUs
                0x00000000       0x28 build/Tick.o
 .text          0x00000000        0x0 build/uart_servo_lite.o
 .data          0x00000000        0x0 build/uart_servo_lite.o
 .bss           0x00000000        0x0 build/uart_servo_lite.o
 .text.USL_Send_HEX
                0x00000000       0x18 build/uart_servo_lite.o
 .text.US_Ping  0x00000000       0x2e build/uart_servo_lite.o
 .text.SET_Torque
                0x00000000       0x2a build/uart_servo_lite.o
 .text          0x00000000        0x0 build/Master_PC.o
 .data          0x00000000        0x0 build/Master_PC.o
 .bss           0x00000000        0x0 build/Master_PC.o
 .text.Get_On_or_off_Rxflag
                0x00000000       0x18 build/Master_PC.o
 .text          0x00000000        0x0 build/Variable.o
 .data          0x00000000        0x0 build/Variable.o
 .bss           0x00000000        0x0 build/Variable.o
 .bss.Car_on_off
                0x00000000        0x1 build/Variable.o
 .text          0x00000000       0x14 build/startup_stm32g431xx.o
 .data          0x00000000        0x0 build/startup_stm32g431xx.o
 .bss           0x00000000        0x0 build/startup_stm32g431xx.o
 .text          0x00000000        0x0 d:/stm32_vscode_bag/gnu/bin/../lib/gcc/arm-none-eabi/10.3.1/../../../../arm-none-eabi/lib/thumb/v7e-m+fp/hard\libc_nano.a(lib_a-errno.o)
 .data          0x00000000        0x0 d:/stm32_vscode_bag/gnu/bin/../lib/gcc/arm-none-eabi/10.3.1/../../../../arm-none-eabi/lib/thumb/v7e-m+fp/hard\libc_nano.a(lib_a-errno.o)
 .bss           0x00000000        0x0 d:/stm32_vscode_bag/gnu/bin/../lib/gcc/arm-none-eabi/10.3.1/../../../../arm-none-eabi/lib/thumb/v7e-m+fp/hard\libc_nano.a(lib_a-errno.o)
 .text          0x00000000        0x0 d:/stm32_vscode_bag/gnu/bin/../lib/gcc/arm-none-eabi/10.3.1/../../../../arm-none-eabi/lib/thumb/v7e-m+fp/hard\libc_nano.a(lib_a-exit.o)
 .data          0x00000000        0x0 d:/stm32_vscode_bag/gnu/bin/../lib/gcc/arm-none-eabi/10.3.1/../../../../arm-none-eabi/lib/thumb/v7e-m+fp/hard\libc_nano.a(lib_a-exit.o)
 .bss           0x00000000        0x0 d:/stm32_vscode_bag/gnu/bin/../lib/gcc/arm-none-eabi/10.3.1/../../../../arm-none-eabi/lib/thumb/v7e-m+fp/hard\libc_nano.a(lib_a-exit.o)
 .text.exit     0x00000000       0x28 d:/stm32_vscode_bag/gnu/bin/../lib/gcc/arm-none-eabi/10.3.1/../../../../arm-none-eabi/lib/thumb/v7e-m+fp/hard\libc_nano.a(lib_a-exit.o)
 .debug_frame   0x00000000       0x28 d:/stm32_vscode_bag/gnu/bin/../lib/gcc/arm-none-eabi/10.3.1/../../../../arm-none-eabi/lib/thumb/v7e-m+fp/hard\libc_nano.a(lib_a-exit.o)
 .ARM.attributes
                0x00000000       0x34 d:/stm32_vscode_bag/gnu/bin/../lib/gcc/arm-none-eabi/10.3.1/../../../../arm-none-eabi/lib/thumb/v7e-m+fp/hard\libc_nano.a(lib_a-exit.o)
 .text          0x00000000        0x0 d:/stm32_vscode_bag/gnu/bin/../lib/gcc/arm-none-eabi/10.3.1/../../../../arm-none-eabi/lib/thumb/v7e-m+fp/hard\libc_nano.a(lib_a-impure.o)
 .data          0x00000000        0x0 d:/stm32_vscode_bag/gnu/bin/../lib/gcc/arm-none-eabi/10.3.1/../../../../arm-none-eabi/lib/thumb/v7e-m+fp/hard\libc_nano.a(lib_a-impure.o)
 .bss           0x00000000        0x0 d:/stm32_vscode_bag/gnu/bin/../lib/gcc/arm-none-eabi/10.3.1/../../../../arm-none-eabi/lib/thumb/v7e-m+fp/hard\libc_nano.a(lib_a-impure.o)
 .rodata._global_impure_ptr
                0x00000000        0x4 d:/stm32_vscode_bag/gnu/bin/../lib/gcc/arm-none-eabi/10.3.1/../../../../arm-none-eabi/lib/thumb/v7e-m+fp/hard\libc_nano.a(lib_a-impure.o)
 .text          0x00000000        0x0 d:/stm32_vscode_bag/gnu/bin/../lib/gcc/arm-none-eabi/10.3.1/../../../../arm-none-eabi/lib/thumb/v7e-m+fp/hard\libc_nano.a(lib_a-init.o)
 .data          0x00000000        0x0 d:/stm32_vscode_bag/gnu/bin/../lib/gcc/arm-none-eabi/10.3.1/../../../../arm-none-eabi/lib/thumb/v7e-m+fp/hard\libc_nano.a(lib_a-init.o)
 .bss           0x00000000        0x0 d:/stm32_vscode_bag/gnu/bin/../lib/gcc/arm-none-eabi/10.3.1/../../../../arm-none-eabi/lib/thumb/v7e-m+fp/hard\libc_nano.a(lib_a-init.o)
 .text          0x00000000        0x0 d:/stm32_vscode_bag/gnu/bin/../lib/gcc/arm-none-eabi/10.3.1/../../../../arm-none-eabi/lib/thumb/v7e-m+fp/hard\libc_nano.a(lib_a-memset.o)
 .data          0x00000000        0x0 d:/stm32_vscode_bag/gnu/bin/../lib/gcc/arm-none-eabi/10.3.1/../../../../arm-none-eabi/lib/thumb/v7e-m+fp/hard\libc_nano.a(lib_a-memset.o)
 .bss           0x00000000        0x0 d:/stm32_vscode_bag/gnu/bin/../lib/gcc/arm-none-eabi/10.3.1/../../../../arm-none-eabi/lib/thumb/v7e-m+fp/hard\libc_nano.a(lib_a-memset.o)
 .text          0x00000000        0x0 d:/stm32_vscode_bag/gnu/bin/../lib/gcc/arm-none-eabi/10.3.1/../../../../arm-none-eabi/lib/thumb/v7e-m+fp/hard\libc_nano.a(lib_a-sprintf.o)
 .data          0x00000000        0x0 d:/stm32_vscode_bag/gnu/bin/../lib/gcc/arm-none-eabi/10.3.1/../../../../arm-none-eabi/lib/thumb/v7e-m+fp/hard\libc_nano.a(lib_a-sprintf.o)
 .bss           0x00000000        0x0 d:/stm32_vscode_bag/gnu/bin/../lib/gcc/arm-none-eabi/10.3.1/../../../../arm-none-eabi/lib/thumb/v7e-m+fp/hard\libc_nano.a(lib_a-sprintf.o)
 .text._sprintf_r
                0x00000000       0x38 d:/stm32_vscode_bag/gnu/bin/../lib/gcc/arm-none-eabi/10.3.1/../../../../arm-none-eabi/lib/thumb/v7e-m+fp/hard\libc_nano.a(lib_a-sprintf.o)
 .text          0x00000000        0x0 d:/stm32_vscode_bag/gnu/bin/../lib/gcc/arm-none-eabi/10.3.1/../../../../arm-none-eabi/lib/thumb/v7e-m+fp/hard\libc_nano.a(lib_a-nano-svfprintf.o)
 .data          0x00000000        0x0 d:/stm32_vscode_bag/gnu/bin/../lib/gcc/arm-none-eabi/10.3.1/../../../../arm-none-eabi/lib/thumb/v7e-m+fp/hard\libc_nano.a(lib_a-nano-svfprintf.o)
 .bss           0x00000000        0x0 d:/stm32_vscode_bag/gnu/bin/../lib/gcc/arm-none-eabi/10.3.1/../../../../arm-none-eabi/lib/thumb/v7e-m+fp/hard\libc_nano.a(lib_a-nano-svfprintf.o)
 .text.__ssprint_r
                0x00000000       0xf6 d:/stm32_vscode_bag/gnu/bin/../lib/gcc/arm-none-eabi/10.3.1/../../../../arm-none-eabi/lib/thumb/v7e-m+fp/hard\libc_nano.a(lib_a-nano-svfprintf.o)
 .text          0x00000000        0x0 d:/stm32_vscode_bag/gnu/bin/../lib/gcc/arm-none-eabi/10.3.1/../../../../arm-none-eabi/lib/thumb/v7e-m+fp/hard\libc_nano.a(lib_a-nano-vfprintf_i.o)
 .data          0x00000000        0x0 d:/stm32_vscode_bag/gnu/bin/../lib/gcc/arm-none-eabi/10.3.1/../../../../arm-none-eabi/lib/thumb/v7e-m+fp/hard\libc_nano.a(lib_a-nano-vfprintf_i.o)
 .bss           0x00000000        0x0 d:/stm32_vscode_bag/gnu/bin/../lib/gcc/arm-none-eabi/10.3.1/../../../../arm-none-eabi/lib/thumb/v7e-m+fp/hard\libc_nano.a(lib_a-nano-vfprintf_i.o)
 .data          0x00000000        0x0 d:/stm32_vscode_bag/gnu/bin/../lib/gcc/arm-none-eabi/10.3.1/../../../../arm-none-eabi/lib/thumb/v7e-m+fp/hard\libc_nano.a(lib_a-memchr.o)
 .bss           0x00000000        0x0 d:/stm32_vscode_bag/gnu/bin/../lib/gcc/arm-none-eabi/10.3.1/../../../../arm-none-eabi/lib/thumb/v7e-m+fp/hard\libc_nano.a(lib_a-memchr.o)
 .text          0x00000000        0x0 d:/stm32_vscode_bag/gnu/bin/../lib/gcc/arm-none-eabi/10.3.1/../../../../arm-none-eabi/lib/thumb/v7e-m+fp/hard\libc_nano.a(lib_a-memcpy-stub.o)
 .data          0x00000000        0x0 d:/stm32_vscode_bag/gnu/bin/../lib/gcc/arm-none-eabi/10.3.1/../../../../arm-none-eabi/lib/thumb/v7e-m+fp/hard\libc_nano.a(lib_a-memcpy-stub.o)
 .bss           0x00000000        0x0 d:/stm32_vscode_bag/gnu/bin/../lib/gcc/arm-none-eabi/10.3.1/../../../../arm-none-eabi/lib/thumb/v7e-m+fp/hard\libc_nano.a(lib_a-memcpy-stub.o)
 .text          0x00000000        0x0 d:/stm32_vscode_bag/gnu/bin/../lib/gcc/arm-none-eabi/10.3.1/../../../../arm-none-eabi/lib/thumb/v7e-m+fp/hard\libc_nano.a(lib_a-memmove.o)
 .data          0x00000000        0x0 d:/stm32_vscode_bag/gnu/bin/../lib/gcc/arm-none-eabi/10.3.1/../../../../arm-none-eabi/lib/thumb/v7e-m+fp/hard\libc_nano.a(lib_a-memmove.o)
 .bss           0x00000000        0x0 d:/stm32_vscode_bag/gnu/bin/../lib/gcc/arm-none-eabi/10.3.1/../../../../arm-none-eabi/lib/thumb/v7e-m+fp/hard\libc_nano.a(lib_a-memmove.o)
 .text          0x00000000        0x0 d:/stm32_vscode_bag/gnu/bin/../lib/gcc/arm-none-eabi/10.3.1/../../../../arm-none-eabi/lib/thumb/v7e-m+fp/hard\libc_nano.a(lib_a-nano-freer.o)
 .data          0x00000000        0x0 d:/stm32_vscode_bag/gnu/bin/../lib/gcc/arm-none-eabi/10.3.1/../../../../arm-none-eabi/lib/thumb/v7e-m+fp/hard\libc_nano.a(lib_a-nano-freer.o)
 .bss           0x00000000        0x0 d:/stm32_vscode_bag/gnu/bin/../lib/gcc/arm-none-eabi/10.3.1/../../../../arm-none-eabi/lib/thumb/v7e-m+fp/hard\libc_nano.a(lib_a-nano-freer.o)
 .text          0x00000000        0x0 d:/stm32_vscode_bag/gnu/bin/../lib/gcc/arm-none-eabi/10.3.1/../../../../arm-none-eabi/lib/thumb/v7e-m+fp/hard\libc_nano.a(lib_a-nano-mallocr.o)
 .data          0x00000000        0x0 d:/stm32_vscode_bag/gnu/bin/../lib/gcc/arm-none-eabi/10.3.1/../../../../arm-none-eabi/lib/thumb/v7e-m+fp/hard\libc_nano.a(lib_a-nano-mallocr.o)
 .bss           0x00000000        0x0 d:/stm32_vscode_bag/gnu/bin/../lib/gcc/arm-none-eabi/10.3.1/../../../../arm-none-eabi/lib/thumb/v7e-m+fp/hard\libc_nano.a(lib_a-nano-mallocr.o)
 .text          0x00000000        0x0 d:/stm32_vscode_bag/gnu/bin/../lib/gcc/arm-none-eabi/10.3.1/../../../../arm-none-eabi/lib/thumb/v7e-m+fp/hard\libc_nano.a(lib_a-nano-reallocr.o)
 .data          0x00000000        0x0 d:/stm32_vscode_bag/gnu/bin/../lib/gcc/arm-none-eabi/10.3.1/../../../../arm-none-eabi/lib/thumb/v7e-m+fp/hard\libc_nano.a(lib_a-nano-reallocr.o)
 .bss           0x00000000        0x0 d:/stm32_vscode_bag/gnu/bin/../lib/gcc/arm-none-eabi/10.3.1/../../../../arm-none-eabi/lib/thumb/v7e-m+fp/hard\libc_nano.a(lib_a-nano-reallocr.o)
 .text          0x00000000        0x0 d:/stm32_vscode_bag/gnu/bin/../lib/gcc/arm-none-eabi/10.3.1/../../../../arm-none-eabi/lib/thumb/v7e-m+fp/hard\libc_nano.a(lib_a-sbrkr.o)
 .data          0x00000000        0x0 d:/stm32_vscode_bag/gnu/bin/../lib/gcc/arm-none-eabi/10.3.1/../../../../arm-none-eabi/lib/thumb/v7e-m+fp/hard\libc_nano.a(lib_a-sbrkr.o)
 .bss           0x00000000        0x0 d:/stm32_vscode_bag/gnu/bin/../lib/gcc/arm-none-eabi/10.3.1/../../../../arm-none-eabi/lib/thumb/v7e-m+fp/hard\libc_nano.a(lib_a-sbrkr.o)
 .text          0x00000000        0x0 d:/stm32_vscode_bag/gnu/bin/../lib/gcc/arm-none-eabi/10.3.1/../../../../arm-none-eabi/lib/thumb/v7e-m+fp/hard\libc_nano.a(lib_a-mlock.o)
 .data          0x00000000        0x0 d:/stm32_vscode_bag/gnu/bin/../lib/gcc/arm-none-eabi/10.3.1/../../../../arm-none-eabi/lib/thumb/v7e-m+fp/hard\libc_nano.a(lib_a-mlock.o)
 .bss           0x00000000        0x0 d:/stm32_vscode_bag/gnu/bin/../lib/gcc/arm-none-eabi/10.3.1/../../../../arm-none-eabi/lib/thumb/v7e-m+fp/hard\libc_nano.a(lib_a-mlock.o)
 .text          0x00000000        0x0 d:/stm32_vscode_bag/gnu/bin/../lib/gcc/arm-none-eabi/10.3.1/../../../../arm-none-eabi/lib/thumb/v7e-m+fp/hard\libc_nano.a(lib_a-nano-msizer.o)
 .data          0x00000000        0x0 d:/stm32_vscode_bag/gnu/bin/../lib/gcc/arm-none-eabi/10.3.1/../../../../arm-none-eabi/lib/thumb/v7e-m+fp/hard\libc_nano.a(lib_a-nano-msizer.o)
 .bss           0x00000000        0x0 d:/stm32_vscode_bag/gnu/bin/../lib/gcc/arm-none-eabi/10.3.1/../../../../arm-none-eabi/lib/thumb/v7e-m+fp/hard\libc_nano.a(lib_a-nano-msizer.o)
 .text          0x00000000        0x0 d:/stm32_vscode_bag/gnu/bin/../lib/gcc/arm-none-eabi/10.3.1/../../../../arm-none-eabi/lib/thumb/v7e-m+fp/hard\libc_nano.a(lib_a-reent.o)
 .data          0x00000000        0x0 d:/stm32_vscode_bag/gnu/bin/../lib/gcc/arm-none-eabi/10.3.1/../../../../arm-none-eabi/lib/thumb/v7e-m+fp/hard\libc_nano.a(lib_a-reent.o)
 .bss           0x00000000        0x0 d:/stm32_vscode_bag/gnu/bin/../lib/gcc/arm-none-eabi/10.3.1/../../../../arm-none-eabi/lib/thumb/v7e-m+fp/hard\libc_nano.a(lib_a-reent.o)
 .text.cleanup_glue
                0x00000000       0x1a d:/stm32_vscode_bag/gnu/bin/../lib/gcc/arm-none-eabi/10.3.1/../../../../arm-none-eabi/lib/thumb/v7e-m+fp/hard\libc_nano.a(lib_a-reent.o)
 .text._reclaim_reent
                0x00000000       0xb8 d:/stm32_vscode_bag/gnu/bin/../lib/gcc/arm-none-eabi/10.3.1/../../../../arm-none-eabi/lib/thumb/v7e-m+fp/hard\libc_nano.a(lib_a-reent.o)
 .text          0x00000000        0x0 d:/stm32_vscode_bag/gnu/bin/../lib/gcc/arm-none-eabi/10.3.1/../../../../arm-none-eabi/lib/thumb/v7e-m+fp/hard\libc_nano.a(lib_a-lock.o)
 .data          0x00000000        0x0 d:/stm32_vscode_bag/gnu/bin/../lib/gcc/arm-none-eabi/10.3.1/../../../../arm-none-eabi/lib/thumb/v7e-m+fp/hard\libc_nano.a(lib_a-lock.o)
 .bss           0x00000000        0x0 d:/stm32_vscode_bag/gnu/bin/../lib/gcc/arm-none-eabi/10.3.1/../../../../arm-none-eabi/lib/thumb/v7e-m+fp/hard\libc_nano.a(lib_a-lock.o)
 .text.__retarget_lock_init
                0x00000000        0x2 d:/stm32_vscode_bag/gnu/bin/../lib/gcc/arm-none-eabi/10.3.1/../../../../arm-none-eabi/lib/thumb/v7e-m+fp/hard\libc_nano.a(lib_a-lock.o)
 .text.__retarget_lock_init_recursive
                0x00000000        0x2 d:/stm32_vscode_bag/gnu/bin/../lib/gcc/arm-none-eabi/10.3.1/../../../../arm-none-eabi/lib/thumb/v7e-m+fp/hard\libc_nano.a(lib_a-lock.o)
 .text.__retarget_lock_close
                0x00000000        0x2 d:/stm32_vscode_bag/gnu/bin/../lib/gcc/arm-none-eabi/10.3.1/../../../../arm-none-eabi/lib/thumb/v7e-m+fp/hard\libc_nano.a(lib_a-lock.o)
 .text.__retarget_lock_close_recursive
                0x00000000        0x2 d:/stm32_vscode_bag/gnu/bin/../lib/gcc/arm-none-eabi/10.3.1/../../../../arm-none-eabi/lib/thumb/v7e-m+fp/hard\libc_nano.a(lib_a-lock.o)
 .text.__retarget_lock_acquire
                0x00000000        0x2 d:/stm32_vscode_bag/gnu/bin/../lib/gcc/arm-none-eabi/10.3.1/../../../../arm-none-eabi/lib/thumb/v7e-m+fp/hard\libc_nano.a(lib_a-lock.o)
 .text.__retarget_lock_try_acquire
                0x00000000        0x4 d:/stm32_vscode_bag/gnu/bin/../lib/gcc/arm-none-eabi/10.3.1/../../../../arm-none-eabi/lib/thumb/v7e-m+fp/hard\libc_nano.a(lib_a-lock.o)
 .text.__retarget_lock_try_acquire_recursive
                0x00000000        0x4 d:/stm32_vscode_bag/gnu/bin/../lib/gcc/arm-none-eabi/10.3.1/../../../../arm-none-eabi/lib/thumb/v7e-m+fp/hard\libc_nano.a(lib_a-lock.o)
 .text.__retarget_lock_release
                0x00000000        0x2 d:/stm32_vscode_bag/gnu/bin/../lib/gcc/arm-none-eabi/10.3.1/../../../../arm-none-eabi/lib/thumb/v7e-m+fp/hard\libc_nano.a(lib_a-lock.o)
 .bss.__lock___arc4random_mutex
                0x00000000        0x1 d:/stm32_vscode_bag/gnu/bin/../lib/gcc/arm-none-eabi/10.3.1/../../../../arm-none-eabi/lib/thumb/v7e-m+fp/hard\libc_nano.a(lib_a-lock.o)
 .bss.__lock___at_quick_exit_mutex
                0x00000000        0x1 d:/stm32_vscode_bag/gnu/bin/../lib/gcc/arm-none-eabi/10.3.1/../../../../arm-none-eabi/lib/thumb/v7e-m+fp/hard\libc_nano.a(lib_a-lock.o)
 .bss.__lock___atexit_recursive_mutex
                0x00000000        0x1 d:/stm32_vscode_bag/gnu/bin/../lib/gcc/arm-none-eabi/10.3.1/../../../../arm-none-eabi/lib/thumb/v7e-m+fp/hard\libc_nano.a(lib_a-lock.o)
 .bss.__lock___dd_hash_mutex
                0x00000000        0x1 d:/stm32_vscode_bag/gnu/bin/../lib/gcc/arm-none-eabi/10.3.1/../../../../arm-none-eabi/lib/thumb/v7e-m+fp/hard\libc_nano.a(lib_a-lock.o)
 .bss.__lock___env_recursive_mutex
                0x00000000        0x1 d:/stm32_vscode_bag/gnu/bin/../lib/gcc/arm-none-eabi/10.3.1/../../../../arm-none-eabi/lib/thumb/v7e-m+fp/hard\libc_nano.a(lib_a-lock.o)
 .bss.__lock___sfp_recursive_mutex
                0x00000000        0x1 d:/stm32_vscode_bag/gnu/bin/../lib/gcc/arm-none-eabi/10.3.1/../../../../arm-none-eabi/lib/thumb/v7e-m+fp/hard\libc_nano.a(lib_a-lock.o)
 .bss.__lock___sinit_recursive_mutex
                0x00000000        0x1 d:/stm32_vscode_bag/gnu/bin/../lib/gcc/arm-none-eabi/10.3.1/../../../../arm-none-eabi/lib/thumb/v7e-m+fp/hard\libc_nano.a(lib_a-lock.o)
 .bss.__lock___tz_mutex
                0x00000000        0x1 d:/stm32_vscode_bag/gnu/bin/../lib/gcc/arm-none-eabi/10.3.1/../../../../arm-none-eabi/lib/thumb/v7e-m+fp/hard\libc_nano.a(lib_a-lock.o)
 .data          0x00000000        0x0 d:/stm32_vscode_bag/gnu/bin/../lib/gcc/arm-none-eabi/10.3.1/thumb/v7e-m+fp/hard\libgcc.a(_arm_muldf3.o)
 .bss           0x00000000        0x0 d:/stm32_vscode_bag/gnu/bin/../lib/gcc/arm-none-eabi/10.3.1/thumb/v7e-m+fp/hard\libgcc.a(_arm_muldf3.o)
 .data          0x00000000        0x0 d:/stm32_vscode_bag/gnu/bin/../lib/gcc/arm-none-eabi/10.3.1/thumb/v7e-m+fp/hard\libgcc.a(_arm_addsubdf3.o)
 .bss           0x00000000        0x0 d:/stm32_vscode_bag/gnu/bin/../lib/gcc/arm-none-eabi/10.3.1/thumb/v7e-m+fp/hard\libgcc.a(_arm_addsubdf3.o)
 .data          0x00000000        0x0 d:/stm32_vscode_bag/gnu/bin/../lib/gcc/arm-none-eabi/10.3.1/thumb/v7e-m+fp/hard\libgcc.a(_arm_cmpdf2.o)
 .bss           0x00000000        0x0 d:/stm32_vscode_bag/gnu/bin/../lib/gcc/arm-none-eabi/10.3.1/thumb/v7e-m+fp/hard\libgcc.a(_arm_cmpdf2.o)
 .data          0x00000000        0x0 d:/stm32_vscode_bag/gnu/bin/../lib/gcc/arm-none-eabi/10.3.1/thumb/v7e-m+fp/hard\libgcc.a(_arm_fixunsdfsi.o)
 .bss           0x00000000        0x0 d:/stm32_vscode_bag/gnu/bin/../lib/gcc/arm-none-eabi/10.3.1/thumb/v7e-m+fp/hard\libgcc.a(_arm_fixunsdfsi.o)
 .data          0x00000000        0x0 d:/stm32_vscode_bag/gnu/bin/../lib/gcc/arm-none-eabi/10.3.1/thumb/v7e-m+fp/hard\libgcc.a(_aeabi_uldivmod.o)
 .bss           0x00000000        0x0 d:/stm32_vscode_bag/gnu/bin/../lib/gcc/arm-none-eabi/10.3.1/thumb/v7e-m+fp/hard\libgcc.a(_aeabi_uldivmod.o)
 .data          0x00000000        0x0 d:/stm32_vscode_bag/gnu/bin/../lib/gcc/arm-none-eabi/10.3.1/thumb/v7e-m+fp/hard\libgcc.a(_udivmoddi4.o)
 .bss           0x00000000        0x0 d:/stm32_vscode_bag/gnu/bin/../lib/gcc/arm-none-eabi/10.3.1/thumb/v7e-m+fp/hard\libgcc.a(_udivmoddi4.o)
 .ARM.extab     0x00000000        0x0 d:/stm32_vscode_bag/gnu/bin/../lib/gcc/arm-none-eabi/10.3.1/thumb/v7e-m+fp/hard\libgcc.a(_udivmoddi4.o)
 .data          0x00000000        0x0 d:/stm32_vscode_bag/gnu/bin/../lib/gcc/arm-none-eabi/10.3.1/thumb/v7e-m+fp/hard\libgcc.a(_dvmd_tls.o)
 .bss           0x00000000        0x0 d:/stm32_vscode_bag/gnu/bin/../lib/gcc/arm-none-eabi/10.3.1/thumb/v7e-m+fp/hard\libgcc.a(_dvmd_tls.o)
 .text          0x00000000        0x0 d:/stm32_vscode_bag/gnu/bin/../lib/gcc/arm-none-eabi/10.3.1/thumb/v7e-m+fp/hard/crtend.o
 .data          0x00000000        0x0 d:/stm32_vscode_bag/gnu/bin/../lib/gcc/arm-none-eabi/10.3.1/thumb/v7e-m+fp/hard/crtend.o
 .bss           0x00000000        0x0 d:/stm32_vscode_bag/gnu/bin/../lib/gcc/arm-none-eabi/10.3.1/thumb/v7e-m+fp/hard/crtend.o
 .rodata        0x00000000       0x24 d:/stm32_vscode_bag/gnu/bin/../lib/gcc/arm-none-eabi/10.3.1/thumb/v7e-m+fp/hard/crtend.o
 .eh_frame      0x00000000        0x4 d:/stm32_vscode_bag/gnu/bin/../lib/gcc/arm-none-eabi/10.3.1/thumb/v7e-m+fp/hard/crtend.o
 .ARM.attributes
                0x00000000       0x34 d:/stm32_vscode_bag/gnu/bin/../lib/gcc/arm-none-eabi/10.3.1/thumb/v7e-m+fp/hard/crtend.o
 .text          0x00000000        0x0 d:/stm32_vscode_bag/gnu/bin/../lib/gcc/arm-none-eabi/10.3.1/thumb/v7e-m+fp/hard/crtn.o
 .data          0x00000000        0x0 d:/stm32_vscode_bag/gnu/bin/../lib/gcc/arm-none-eabi/10.3.1/thumb/v7e-m+fp/hard/crtn.o
 .bss           0x00000000        0x0 d:/stm32_vscode_bag/gnu/bin/../lib/gcc/arm-none-eabi/10.3.1/thumb/v7e-m+fp/hard/crtn.o

Memory Configuration

Name             Origin             Length             Attributes
RAM              0x20000000         0x00008000         xrw
FLASH            0x08000000         0x0001c000         xr
*default*        0x00000000         0xffffffff

Linker script and memory map

LOAD d:/stm32_vscode_bag/gnu/bin/../lib/gcc/arm-none-eabi/10.3.1/thumb/v7e-m+fp/hard/crti.o
LOAD d:/stm32_vscode_bag/gnu/bin/../lib/gcc/arm-none-eabi/10.3.1/thumb/v7e-m+fp/hard/crtbegin.o
LOAD d:/stm32_vscode_bag/gnu/bin/../lib/gcc/arm-none-eabi/10.3.1/../../../../arm-none-eabi/lib/thumb/v7e-m+fp/hard/crt0.o
LOAD build/main.o
LOAD build/gpio.o
LOAD build/dma.o
LOAD build/i2c.o
LOAD build/tim.o
LOAD build/usart.o
LOAD build/stm32g4xx_it.o
LOAD build/stm32g4xx_hal_msp.o
LOAD build/stm32g4xx_hal_i2c.o
LOAD build/stm32g4xx_hal_i2c_ex.o
LOAD build/stm32g4xx_hal.o
LOAD build/stm32g4xx_hal_rcc.o
LOAD build/stm32g4xx_hal_rcc_ex.o
LOAD build/stm32g4xx_hal_flash.o
LOAD build/stm32g4xx_hal_flash_ex.o
LOAD build/stm32g4xx_hal_flash_ramfunc.o
LOAD build/stm32g4xx_hal_gpio.o
LOAD build/stm32g4xx_hal_exti.o
LOAD build/stm32g4xx_hal_dma.o
LOAD build/stm32g4xx_hal_dma_ex.o
LOAD build/stm32g4xx_hal_pwr.o
LOAD build/stm32g4xx_hal_pwr_ex.o
LOAD build/stm32g4xx_hal_cortex.o
LOAD build/stm32g4xx_hal_tim.o
LOAD build/stm32g4xx_hal_tim_ex.o
LOAD build/stm32g4xx_hal_uart.o
LOAD build/stm32g4xx_hal_uart_ex.o
LOAD build/system_stm32g4xx.o
LOAD build/sysmem.o
LOAD build/syscalls.o
LOAD build/Servo_Move.o
LOAD build/My_KeyBoard.o
LOAD build/oled.o
LOAD build/oledfont.o
LOAD build/ring_buffer.o
LOAD build/Tick.o
LOAD build/uart_servo_lite.o
LOAD build/Master_PC.o
LOAD build/Variable.o
LOAD build/startup_stm32g431xx.o
LOAD d:/stm32_vscode_bag/gnu/bin/../lib/gcc/arm-none-eabi/10.3.1/../../../../arm-none-eabi/lib/thumb/v7e-m+fp/hard\libc_nano.a
LOAD d:/stm32_vscode_bag/gnu/bin/../lib/gcc/arm-none-eabi/10.3.1/../../../../arm-none-eabi/lib/thumb/v7e-m+fp/hard\libm.a
LOAD d:/stm32_vscode_bag/gnu/bin/../lib/gcc/arm-none-eabi/10.3.1/../../../../arm-none-eabi/lib/thumb/v7e-m+fp/hard\libnosys.a
START GROUP
LOAD d:/stm32_vscode_bag/gnu/bin/../lib/gcc/arm-none-eabi/10.3.1/thumb/v7e-m+fp/hard\libgcc.a
LOAD d:/stm32_vscode_bag/gnu/bin/../lib/gcc/arm-none-eabi/10.3.1/../../../../arm-none-eabi/lib/thumb/v7e-m+fp/hard\libc_nano.a
END GROUP
START GROUP
LOAD d:/stm32_vscode_bag/gnu/bin/../lib/gcc/arm-none-eabi/10.3.1/thumb/v7e-m+fp/hard\libgcc.a
LOAD d:/stm32_vscode_bag/gnu/bin/../lib/gcc/arm-none-eabi/10.3.1/../../../../arm-none-eabi/lib/thumb/v7e-m+fp/hard\libc_nano.a
END GROUP
LOAD d:/stm32_vscode_bag/gnu/bin/../lib/gcc/arm-none-eabi/10.3.1/thumb/v7e-m+fp/hard/crtend.o
LOAD d:/stm32_vscode_bag/gnu/bin/../lib/gcc/arm-none-eabi/10.3.1/thumb/v7e-m+fp/hard/crtn.o
                0x20008000                _estack = (ORIGIN (RAM) + LENGTH (RAM))
                0x00000200                _Min_Heap_Size = 0x200
                0x00000400                _Min_Stack_Size = 0x400

.isr_vector     0x08000000      0x1d8
                0x08000000                . = ALIGN (0x4)
 *(.isr_vector)
 .isr_vector    0x08000000      0x1d8 build/startup_stm32g431xx.o
                0x08000000                g_pfnVectors
                0x080001d8                . = ALIGN (0x4)

.text           0x080001e0     0x6dac
                0x080001e0                . = ALIGN (0x4)
 *(.text)
 .text          0x080001e0       0x40 d:/stm32_vscode_bag/gnu/bin/../lib/gcc/arm-none-eabi/10.3.1/thumb/v7e-m+fp/hard/crtbegin.o
 .text          0x08000220       0xa0 d:/stm32_vscode_bag/gnu/bin/../lib/gcc/arm-none-eabi/10.3.1/../../../../arm-none-eabi/lib/thumb/v7e-m+fp/hard\libc_nano.a(lib_a-memchr.o)
                0x08000220                memchr
 .text          0x080002c0      0x254 d:/stm32_vscode_bag/gnu/bin/../lib/gcc/arm-none-eabi/10.3.1/thumb/v7e-m+fp/hard\libgcc.a(_arm_muldf3.o)
                0x080002c0                __muldf3
                0x080002c0                __aeabi_dmul
 .text          0x08000514      0x378 d:/stm32_vscode_bag/gnu/bin/../lib/gcc/arm-none-eabi/10.3.1/thumb/v7e-m+fp/hard\libgcc.a(_arm_addsubdf3.o)
                0x08000514                __aeabi_drsub
                0x0800051c                __aeabi_dsub
                0x0800051c                __subdf3
                0x08000520                __aeabi_dadd
                0x08000520                __adddf3
                0x08000798                __floatunsidf
                0x08000798                __aeabi_ui2d
                0x080007b8                __floatsidf
                0x080007b8                __aeabi_i2d
                0x080007dc                __aeabi_f2d
                0x080007dc                __extendsfdf2
                0x08000820                __floatundidf
                0x08000820                __aeabi_ul2d
                0x08000830                __floatdidf
                0x08000830                __aeabi_l2d
 .text          0x0800088c      0x110 d:/stm32_vscode_bag/gnu/bin/../lib/gcc/arm-none-eabi/10.3.1/thumb/v7e-m+fp/hard\libgcc.a(_arm_cmpdf2.o)
                0x0800088c                __gtdf2
                0x0800088c                __gedf2
                0x08000894                __ltdf2
                0x08000894                __ledf2
                0x0800089c                __nedf2
                0x0800089c                __eqdf2
                0x0800089c                __cmpdf2
                0x08000918                __aeabi_cdrcmple
                0x08000928                __aeabi_cdcmpeq
                0x08000928                __aeabi_cdcmple
                0x08000938                __aeabi_dcmpeq
                0x0800094c                __aeabi_dcmplt
                0x08000960                __aeabi_dcmple
                0x08000974                __aeabi_dcmpge
                0x08000988                __aeabi_dcmpgt
 .text          0x0800099c       0x40 d:/stm32_vscode_bag/gnu/bin/../lib/gcc/arm-none-eabi/10.3.1/thumb/v7e-m+fp/hard\libgcc.a(_arm_fixunsdfsi.o)
                0x0800099c                __aeabi_d2uiz
                0x0800099c                __fixunsdfsi
 .text          0x080009dc       0x30 d:/stm32_vscode_bag/gnu/bin/../lib/gcc/arm-none-eabi/10.3.1/thumb/v7e-m+fp/hard\libgcc.a(_aeabi_uldivmod.o)
                0x080009dc                __aeabi_uldivmod
 .text          0x08000a0c      0x2d0 d:/stm32_vscode_bag/gnu/bin/../lib/gcc/arm-none-eabi/10.3.1/thumb/v7e-m+fp/hard\libgcc.a(_udivmoddi4.o)
                0x08000a0c                __udivmoddi4
 .text          0x08000cdc        0x4 d:/stm32_vscode_bag/gnu/bin/../lib/gcc/arm-none-eabi/10.3.1/thumb/v7e-m+fp/hard\libgcc.a(_dvmd_tls.o)
                0x08000cdc                __aeabi_idiv0
                0x08000cdc                __aeabi_ldiv0
 *(.text*)
 .text.HAL_UART_RxCpltCallback
                0x08000ce0      0x300 build/main.o
                0x08000ce0                HAL_UART_RxCpltCallback
 .text.HAL_TIM_PeriodElapsedCallback
                0x08000fe0       0x9c build/main.o
                0x08000fe0                HAL_TIM_PeriodElapsedCallback
 .text.Error_Handler
                0x0800107c        0x4 build/main.o
                0x0800107c                Error_Handler
 .text.SystemClock_Config
                0x08001080       0x70 build/main.o
                0x08001080                SystemClock_Config
 .text.main     0x080010f0      0x14c build/main.o
                0x080010f0                main
 .text.MX_GPIO_Init
                0x0800123c       0xf0 build/gpio.o
                0x0800123c                MX_GPIO_Init
 .text.MX_DMA_Init
                0x0800132c       0x44 build/dma.o
                0x0800132c                MX_DMA_Init
 .text.MX_I2C1_Init
                0x08001370       0x60 build/i2c.o
                0x08001370                MX_I2C1_Init
 .text.HAL_I2C_MspInit
                0x080013d0       0xc0 build/i2c.o
                0x080013d0                HAL_I2C_MspInit
 .text.MX_TIM6_Init
                0x08001490       0x50 build/tim.o
                0x08001490                MX_TIM6_Init
 .text.MX_TIM7_Init
                0x080014e0       0x50 build/tim.o
                0x080014e0                MX_TIM7_Init
 .text.HAL_TIM_Base_MspInit
                0x08001530       0x70 build/tim.o
                0x08001530                HAL_TIM_Base_MspInit
 .text.MX_USART1_UART_Init
                0x080015a0       0xa4 build/usart.o
                0x080015a0                MX_USART1_UART_Init
 .text.MX_USART2_UART_Init
                0x08001644       0x68 build/usart.o
                0x08001644                MX_USART2_UART_Init
 .text.MX_USART3_UART_Init
                0x080016ac       0x68 build/usart.o
                0x080016ac                MX_USART3_UART_Init
 .text.HAL_UART_MspInit
                0x08001714      0x1b4 build/usart.o
                0x08001714                HAL_UART_MspInit
 .text.NMI_Handler
                0x080018c8        0x2 build/stm32g4xx_it.o
                0x080018c8                NMI_Handler
 .text.HardFault_Handler
                0x080018ca        0x2 build/stm32g4xx_it.o
                0x080018ca                HardFault_Handler
 .text.MemManage_Handler
                0x080018cc        0x2 build/stm32g4xx_it.o
                0x080018cc                MemManage_Handler
 .text.BusFault_Handler
                0x080018ce        0x2 build/stm32g4xx_it.o
                0x080018ce                BusFault_Handler
 .text.UsageFault_Handler
                0x080018d0        0x2 build/stm32g4xx_it.o
                0x080018d0                UsageFault_Handler
 .text.SVC_Handler
                0x080018d2        0x2 build/stm32g4xx_it.o
                0x080018d2                SVC_Handler
 .text.DebugMon_Handler
                0x080018d4        0x2 build/stm32g4xx_it.o
                0x080018d4                DebugMon_Handler
 .text.PendSV_Handler
                0x080018d6        0x2 build/stm32g4xx_it.o
                0x080018d6                PendSV_Handler
 .text.SysTick_Handler
                0x080018d8        0x8 build/stm32g4xx_it.o
                0x080018d8                SysTick_Handler
 .text.DMA1_Channel1_IRQHandler
                0x080018e0       0x10 build/stm32g4xx_it.o
                0x080018e0                DMA1_Channel1_IRQHandler
 .text.USART1_IRQHandler
                0x080018f0       0x10 build/stm32g4xx_it.o
                0x080018f0                USART1_IRQHandler
 .text.USART2_IRQHandler
                0x08001900       0x10 build/stm32g4xx_it.o
                0x08001900                USART2_IRQHandler
 .text.USART3_IRQHandler
                0x08001910       0x10 build/stm32g4xx_it.o
                0x08001910                USART3_IRQHandler
 .text.TIM6_DAC_IRQHandler
                0x08001920       0x10 build/stm32g4xx_it.o
                0x08001920                TIM6_DAC_IRQHandler
 .text.TIM7_IRQHandler
                0x08001930       0x10 build/stm32g4xx_it.o
                0x08001930                TIM7_IRQHandler
 .text.HAL_MspInit
                0x08001940       0x38 build/stm32g4xx_hal_msp.o
                0x08001940                HAL_MspInit
 .text.I2C_Flush_TXDR
                0x08001978       0x22 build/stm32g4xx_hal_i2c.o
 .text.I2C_TransferConfig
                0x0800199a       0x3c build/stm32g4xx_hal_i2c.o
 .text.I2C_IsErrorOccurred
                0x080019d6      0x114 build/stm32g4xx_hal_i2c.o
 .text.I2C_WaitOnTXISFlagUntilTimeout
                0x08001aea       0x60 build/stm32g4xx_hal_i2c.o
 .text.I2C_WaitOnFlagUntilTimeout
                0x08001b4a       0x7c build/stm32g4xx_hal_i2c.o
 *fill*         0x08001bc6        0x2 
 .text.I2C_RequestMemoryWrite
                0x08001bc8       0x7c build/stm32g4xx_hal_i2c.o
 .text.I2C_WaitOnSTOPFlagUntilTimeout
                0x08001c44       0x5e build/stm32g4xx_hal_i2c.o
 .text.HAL_I2C_Init
                0x08001ca2       0xc8 build/stm32g4xx_hal_i2c.o
                0x08001ca2                HAL_I2C_Init
 .text.HAL_I2C_Mem_Write
                0x08001d6a      0x1a8 build/stm32g4xx_hal_i2c.o
                0x08001d6a                HAL_I2C_Mem_Write
 .text.HAL_I2CEx_ConfigAnalogFilter
                0x08001f12       0x5c build/stm32g4xx_hal_i2c_ex.o
                0x08001f12                HAL_I2CEx_ConfigAnalogFilter
 .text.HAL_I2CEx_ConfigDigitalFilter
                0x08001f6e       0x58 build/stm32g4xx_hal_i2c_ex.o
                0x08001f6e                HAL_I2CEx_ConfigDigitalFilter
 *fill*         0x08001fc6        0x2 
 .text.HAL_I2CEx_EnableFastModePlus
                0x08001fc8       0x2c build/stm32g4xx_hal_i2c_ex.o
                0x08001fc8                HAL_I2CEx_EnableFastModePlus
 .text.HAL_InitTick
                0x08001ff4       0x50 build/stm32g4xx_hal.o
                0x08001ff4                HAL_InitTick
 .text.HAL_Init
                0x08002044       0x1e build/stm32g4xx_hal.o
                0x08002044                HAL_Init
 *fill*         0x08002062        0x2 
 .text.HAL_IncTick
                0x08002064       0x18 build/stm32g4xx_hal.o
                0x08002064                HAL_IncTick
 .text.HAL_GetTick
                0x0800207c        0xc build/stm32g4xx_hal.o
                0x0800207c                HAL_GetTick
 .text.HAL_Delay
                0x08002088       0x28 build/stm32g4xx_hal.o
                0x08002088                HAL_Delay
 .text.RCC_GetSysClockFreqFromPLLSource
                0x080020b0       0x58 build/stm32g4xx_hal_rcc.o
 .text.HAL_RCC_OscConfig
                0x08002108      0x4e4 build/stm32g4xx_hal_rcc.o
                0x08002108                HAL_RCC_OscConfig
 .text.HAL_RCC_GetSysClockFreq
                0x080025ec       0x88 build/stm32g4xx_hal_rcc.o
                0x080025ec                HAL_RCC_GetSysClockFreq
 .text.HAL_RCC_ClockConfig
                0x08002674      0x1f8 build/stm32g4xx_hal_rcc.o
                0x08002674                HAL_RCC_ClockConfig
 .text.HAL_RCC_GetHCLKFreq
                0x0800286c        0xc build/stm32g4xx_hal_rcc.o
                0x0800286c                HAL_RCC_GetHCLKFreq
 .text.HAL_RCC_GetPCLK1Freq
                0x08002878       0x24 build/stm32g4xx_hal_rcc.o
                0x08002878                HAL_RCC_GetPCLK1Freq
 .text.HAL_RCC_GetPCLK2Freq
                0x0800289c       0x24 build/stm32g4xx_hal_rcc.o
                0x0800289c                HAL_RCC_GetPCLK2Freq
 .text.HAL_RCCEx_PeriphCLKConfig
                0x080028c0      0x2e4 build/stm32g4xx_hal_rcc_ex.o
                0x080028c0                HAL_RCCEx_PeriphCLKConfig
 .text.HAL_GPIO_Init
                0x08002ba4      0x1d4 build/stm32g4xx_hal_gpio.o
                0x08002ba4                HAL_GPIO_Init
 .text.HAL_GPIO_ReadPin
                0x08002d78        0xe build/stm32g4xx_hal_gpio.o
                0x08002d78                HAL_GPIO_ReadPin
 .text.HAL_GPIO_WritePin
                0x08002d86        0xa build/stm32g4xx_hal_gpio.o
                0x08002d86                HAL_GPIO_WritePin
 .text.DMA_SetConfig
                0x08002d90       0x42 build/stm32g4xx_hal_dma.o
 *fill*         0x08002dd2        0x2 
 .text.DMA_CalcDMAMUXChannelBaseAndMask
                0x08002dd4       0x48 build/stm32g4xx_hal_dma.o
 .text.DMA_CalcDMAMUXRequestGenBaseAndMask
                0x08002e1c       0x28 build/stm32g4xx_hal_dma.o
 .text.HAL_DMA_Init
                0x08002e44       0xd8 build/stm32g4xx_hal_dma.o
                0x08002e44                HAL_DMA_Init
 .text.HAL_DMA_Start_IT
                0x08002f1c       0x94 build/stm32g4xx_hal_dma.o
                0x08002f1c                HAL_DMA_Start_IT
 .text.HAL_DMA_Abort
                0x08002fb0       0x6c build/stm32g4xx_hal_dma.o
                0x08002fb0                HAL_DMA_Abort
 .text.HAL_DMA_Abort_IT
                0x0800301c       0x7e build/stm32g4xx_hal_dma.o
                0x0800301c                HAL_DMA_Abort_IT
 .text.HAL_DMA_IRQHandler
                0x0800309a       0xc4 build/stm32g4xx_hal_dma.o
                0x0800309a                HAL_DMA_IRQHandler
 *fill*         0x0800315e        0x2 
 .text.HAL_PWREx_ControlVoltageScaling
                0x08003160      0x10c build/stm32g4xx_hal_pwr_ex.o
                0x08003160                HAL_PWREx_ControlVoltageScaling
 .text.HAL_PWREx_DisableUCPDDeadBattery
                0x0800326c       0x10 build/stm32g4xx_hal_pwr_ex.o
                0x0800326c                HAL_PWREx_DisableUCPDDeadBattery
 .text.HAL_NVIC_SetPriorityGrouping
                0x0800327c       0x24 build/stm32g4xx_hal_cortex.o
                0x0800327c                HAL_NVIC_SetPriorityGrouping
 .text.HAL_NVIC_SetPriority
                0x080032a0       0x70 build/stm32g4xx_hal_cortex.o
                0x080032a0                HAL_NVIC_SetPriority
 .text.HAL_NVIC_EnableIRQ
                0x08003310       0x1c build/stm32g4xx_hal_cortex.o
                0x08003310                HAL_NVIC_EnableIRQ
 .text.HAL_SYSTICK_Config
                0x0800332c       0x28 build/stm32g4xx_hal_cortex.o
                0x0800332c                HAL_SYSTICK_Config
 .text.HAL_TIM_Base_Start_IT
                0x08003354       0x84 build/stm32g4xx_hal_tim.o
                0x08003354                HAL_TIM_Base_Start_IT
 .text.HAL_TIM_Base_Stop_IT
                0x080033d8       0x32 build/stm32g4xx_hal_tim.o
                0x080033d8                HAL_TIM_Base_Stop_IT
 .text.HAL_TIM_OC_DelayElapsedCallback
                0x0800340a        0x2 build/stm32g4xx_hal_tim.o
                0x0800340a                HAL_TIM_OC_DelayElapsedCallback
 .text.HAL_TIM_IC_CaptureCallback
                0x0800340c        0x2 build/stm32g4xx_hal_tim.o
                0x0800340c                HAL_TIM_IC_CaptureCallback
 .text.HAL_TIM_PWM_PulseFinishedCallback
                0x0800340e        0x2 build/stm32g4xx_hal_tim.o
                0x0800340e                HAL_TIM_PWM_PulseFinishedCallback
 .text.HAL_TIM_TriggerCallback
                0x08003410        0x2 build/stm32g4xx_hal_tim.o
                0x08003410                HAL_TIM_TriggerCallback
 .text.HAL_TIM_IRQHandler
                0x08003412      0x1ea build/stm32g4xx_hal_tim.o
                0x08003412                HAL_TIM_IRQHandler
 .text.TIM_Base_SetConfig
                0x080035fc       0xc8 build/stm32g4xx_hal_tim.o
                0x080035fc                TIM_Base_SetConfig
 .text.HAL_TIM_Base_Init
                0x080036c4       0x60 build/stm32g4xx_hal_tim.o
                0x080036c4                HAL_TIM_Base_Init
 .text.HAL_TIMEx_MasterConfigSynchronization
                0x08003724       0x94 build/stm32g4xx_hal_tim_ex.o
                0x08003724                HAL_TIMEx_MasterConfigSynchronization
 .text.HAL_TIMEx_CommutCallback
                0x080037b8        0x2 build/stm32g4xx_hal_tim_ex.o
                0x080037b8                HAL_TIMEx_CommutCallback
 .text.HAL_TIMEx_BreakCallback
                0x080037ba        0x2 build/stm32g4xx_hal_tim_ex.o
                0x080037ba                HAL_TIMEx_BreakCallback
 .text.HAL_TIMEx_Break2Callback
                0x080037bc        0x2 build/stm32g4xx_hal_tim_ex.o
                0x080037bc                HAL_TIMEx_Break2Callback
 .text.HAL_TIMEx_EncoderIndexCallback
                0x080037be        0x2 build/stm32g4xx_hal_tim_ex.o
                0x080037be                HAL_TIMEx_EncoderIndexCallback
 .text.HAL_TIMEx_DirectionChangeCallback
                0x080037c0        0x2 build/stm32g4xx_hal_tim_ex.o
                0x080037c0                HAL_TIMEx_DirectionChangeCallback
 .text.HAL_TIMEx_IndexErrorCallback
                0x080037c2        0x2 build/stm32g4xx_hal_tim_ex.o
                0x080037c2                HAL_TIMEx_IndexErrorCallback
 .text.HAL_TIMEx_TransitionErrorCallback
                0x080037c4        0x2 build/stm32g4xx_hal_tim_ex.o
                0x080037c4                HAL_TIMEx_TransitionErrorCallback
 .text.UART_EndTxTransfer
                0x080037c6       0x32 build/stm32g4xx_hal_uart.o
 .text.UART_EndRxTransfer
                0x080037f8       0x56 build/stm32g4xx_hal_uart.o
 .text.HAL_UART_TxCpltCallback
                0x0800384e        0x2 build/stm32g4xx_hal_uart.o
                0x0800384e                HAL_UART_TxCpltCallback
 .text.UART_EndTransmit_IT
                0x08003850       0x24 build/stm32g4xx_hal_uart.o
 .text.HAL_UART_RxHalfCpltCallback
                0x08003874        0x2 build/stm32g4xx_hal_uart.o
                0x08003874                HAL_UART_RxHalfCpltCallback
 .text.HAL_UART_ErrorCallback
                0x08003876        0x2 build/stm32g4xx_hal_uart.o
                0x08003876                HAL_UART_ErrorCallback
 .text.UART_DMAError
                0x08003878       0x58 build/stm32g4xx_hal_uart.o
 .text.UART_DMAAbortOnError
                0x080038d0       0x10 build/stm32g4xx_hal_uart.o
 .text.HAL_UARTEx_RxEventCallback
                0x080038e0        0x2 build/stm32g4xx_hal_uart.o
                0x080038e0                HAL_UARTEx_RxEventCallback
 *fill*         0x080038e2        0x2 
 .text.HAL_UART_IRQHandler
                0x080038e4      0x364 build/stm32g4xx_hal_uart.o
                0x080038e4                HAL_UART_IRQHandler
 .text.UART_RxISR_8BIT
                0x08003c48       0xdc build/stm32g4xx_hal_uart.o
 .text.UART_RxISR_16BIT
                0x08003d24       0xd8 build/stm32g4xx_hal_uart.o
 .text.UART_RxISR_8BIT_FIFOEN
                0x08003dfc      0x1c8 build/stm32g4xx_hal_uart.o
 .text.UART_RxISR_16BIT_FIFOEN
                0x08003fc4      0x1c8 build/stm32g4xx_hal_uart.o
 .text.UART_DMARxHalfCplt
                0x0800418c       0x20 build/stm32g4xx_hal_uart.o
 .text.UART_DMAReceiveCplt
                0x080041ac       0x92 build/stm32g4xx_hal_uart.o
 *fill*         0x0800423e        0x2 
 .text.UART_SetConfig
                0x08004240      0x344 build/stm32g4xx_hal_uart.o
                0x08004240                UART_SetConfig
 .text.UART_AdvFeatureConfig
                0x08004584       0xca build/stm32g4xx_hal_uart.o
                0x08004584                UART_AdvFeatureConfig
 .text.UART_WaitOnFlagUntilTimeout
                0x0800464e       0xa2 build/stm32g4xx_hal_uart.o
                0x0800464e                UART_WaitOnFlagUntilTimeout
 .text.HAL_UART_Transmit
                0x080046f0       0xd2 build/stm32g4xx_hal_uart.o
                0x080046f0                HAL_UART_Transmit
 .text.UART_CheckIdleState
                0x080047c2       0xca build/stm32g4xx_hal_uart.o
                0x080047c2                UART_CheckIdleState
 .text.HAL_UART_Init
                0x0800488c       0x66 build/stm32g4xx_hal_uart.o
                0x0800488c                HAL_UART_Init
 *fill*         0x080048f2        0x2 
 .text.UART_Start_Receive_IT
                0x080048f4      0x13c build/stm32g4xx_hal_uart.o
                0x080048f4                UART_Start_Receive_IT
 .text.HAL_UART_Receive_IT
                0x08004a30       0x4c build/stm32g4xx_hal_uart.o
                0x08004a30                HAL_UART_Receive_IT
 .text.UART_Start_Receive_DMA
                0x08004a7c       0xb0 build/stm32g4xx_hal_uart.o
                0x08004a7c                UART_Start_Receive_DMA
 .text.HAL_UART_Receive_DMA
                0x08004b2c       0x4c build/stm32g4xx_hal_uart.o
                0x08004b2c                HAL_UART_Receive_DMA
 .text.UARTEx_SetNbDataToProcess
                0x08004b78       0x4c build/stm32g4xx_hal_uart_ex.o
 .text.HAL_UARTEx_WakeupCallback
                0x08004bc4        0x2 build/stm32g4xx_hal_uart_ex.o
                0x08004bc4                HAL_UARTEx_WakeupCallback
 .text.HAL_UARTEx_RxFifoFullCallback
                0x08004bc6        0x2 build/stm32g4xx_hal_uart_ex.o
                0x08004bc6                HAL_UARTEx_RxFifoFullCallback
 .text.HAL_UARTEx_TxFifoEmptyCallback
                0x08004bc8        0x2 build/stm32g4xx_hal_uart_ex.o
                0x08004bc8                HAL_UARTEx_TxFifoEmptyCallback
 .text.HAL_UARTEx_DisableFifoMode
                0x08004bca       0x3e build/stm32g4xx_hal_uart_ex.o
                0x08004bca                HAL_UARTEx_DisableFifoMode
 .text.HAL_UARTEx_SetTxFifoThreshold
                0x08004c08       0x4a build/stm32g4xx_hal_uart_ex.o
                0x08004c08                HAL_UARTEx_SetTxFifoThreshold
 .text.HAL_UARTEx_SetRxFifoThreshold
                0x08004c52       0x4a build/stm32g4xx_hal_uart_ex.o
                0x08004c52                HAL_UARTEx_SetRxFifoThreshold
 .text.SystemInit
                0x08004c9c       0x14 build/system_stm32g4xx.o
                0x08004c9c                SystemInit
 .text._sbrk    0x08004cb0       0x48 build/sysmem.o
                0x08004cb0                _sbrk
 .text.Penstring_Locate
                0x08004cf8       0x98 build/Servo_Move.o
                0x08004cf8                Penstring_Locate
 .text.Penstring_Moving_1
                0x08004d90      0x288 build/Servo_Move.o
                0x08004d90                Penstring_Moving_1
 .text.Servo_Position_PID
                0x08005018       0x6c build/Servo_Move.o
                0x08005018                Servo_Position_PID
 .text.Get_RectangleXY
                0x08005084       0x5c build/Servo_Move.o
                0x08005084                Get_RectangleXY
 .text.Set_RectangleXY
                0x080050e0      0x154 build/Servo_Move.o
                0x080050e0                Set_RectangleXY
 .text.Get_LaserXY_ALLtime
                0x08005234       0x48 build/Servo_Move.o
                0x08005234                Get_LaserXY_ALLtime
 .text.limit_SetAngle
                0x0800527c       0x1e build/Servo_Move.o
                0x0800527c                limit_SetAngle
 *fill*         0x0800529a        0x2 
 .text.Set_LaserTracking
                0x0800529c      0x13c build/Servo_Move.o
                0x0800529c                Set_LaserTracking
 .text.Key_Init
                0x080053d8       0x38 build/My_KeyBoard.o
                0x080053d8                Key_Init
 .text.Key_Scan
                0x08005410      0x3e8 build/My_KeyBoard.o
                0x08005410                Key_Scan
 .text.OLED_WR_CMD
                0x080057f8       0x2c build/oled.o
                0x080057f8                OLED_WR_CMD
 .text.OLED_Init
                0x08005824       0x24 build/oled.o
                0x08005824                OLED_Init
 .text.OLED_WR_DATA
                0x08005848       0x2c build/oled.o
                0x08005848                OLED_WR_DATA
 .text.OLED_Clear
                0x08005874       0x3a build/oled.o
                0x08005874                OLED_Clear
 .text.OLED_Set_Pos
                0x080058ae       0x22 build/oled.o
                0x080058ae                OLED_Set_Pos
 .text.OLED_ShowChar
                0x080058d0       0xe0 build/oled.o
                0x080058d0                OLED_ShowChar
 .text.OLED_ShowString
                0x080059b0       0x66 build/oled.o
                0x080059b0                OLED_ShowString
 *fill*         0x08005a16        0x2 
 .text.menu1    0x08005a18      0x10c build/oled.o
                0x08005a18                menu1
 .text.LOCATE_MODE_Menu
                0x08005b24      0x1a0 build/oled.o
                0x08005b24                LOCATE_MODE_Menu
 .text.LASER_RESET
                0x08005cc4       0x84 build/oled.o
                0x08005cc4                LASER_RESET
 .text.LASER_RESET_Start
                0x08005d48       0x54 build/oled.o
                0x08005d48                LASER_RESET_Start
 .text.LASER_RESET_Menu
                0x08005d9c       0x64 build/oled.o
                0x08005d9c                LASER_RESET_Menu
 .text.LASER_MOVE_Menu
                0x08005e00       0xa8 build/oled.o
                0x08005e00                LASER_MOVE_Menu
 .text.RECTANGLE_MOVE_Menu
                0x08005ea8       0xa8 build/oled.o
                0x08005ea8                RECTANGLE_MOVE_Menu
 .text.GET_RECTANGLE_menu
                0x08005f50       0xf0 build/oled.o
                0x08005f50                GET_RECTANGLE_menu
 .text.RingBuffer_Init
                0x08006040       0x20 build/ring_buffer.o
                0x08006040                RingBuffer_Init
 .text.RingBuffer_GetCapacity
                0x08006060        0x8 build/ring_buffer.o
                0x08006060                RingBuffer_GetCapacity
 .text.RingBuffer_GetByteUsed
                0x08006068       0x20 build/ring_buffer.o
                0x08006068                RingBuffer_GetByteUsed
 .text.RingBuffer_GetByteFree
                0x08006088       0x16 build/ring_buffer.o
                0x08006088                RingBuffer_GetByteFree
 .text.RingBuffer_IsEmpty
                0x0800609e       0x1a build/ring_buffer.o
                0x0800609e                RingBuffer_IsEmpty
 .text.RingBuffer_IsFull
                0x080060b8        0xe build/ring_buffer.o
                0x080060b8                RingBuffer_IsFull
 .text.RingBuffer_GetValueByIndex
                0x080060c6       0x2a build/ring_buffer.o
                0x080060c6                RingBuffer_GetValueByIndex
 .text.RingBuffer_Pop
                0x080060f0       0x2a build/ring_buffer.o
                0x080060f0                RingBuffer_Pop
 .text.RingBuffer_Push
                0x0800611a       0x2c build/ring_buffer.o
                0x0800611a                RingBuffer_Push
 .text.RingBuffer_ReadByte
                0x08006146        0x8 build/ring_buffer.o
                0x08006146                RingBuffer_ReadByte
 .text.RingBuffer_WriteByte
                0x0800614e        0x8 build/ring_buffer.o
                0x0800614e                RingBuffer_WriteByte
 .text.RingBuffer_WriteByteArray
                0x08006156       0x1e build/ring_buffer.o
                0x08006156                RingBuffer_WriteByteArray
 .text.RingBuffer_WriteUShort
                0x08006174       0x18 build/ring_buffer.o
                0x08006174                RingBuffer_WriteUShort
 .text.RingBuffer_GetChecksum
                0x0800618c       0x26 build/ring_buffer.o
                0x0800618c                RingBuffer_GetChecksum
 *fill*         0x080061b2        0x2 
 .text.Tick_Wait
                0x080061b4       0x20 build/Tick.o
                0x080061b4                Tick_Wait
 .text.Tick_DelayMs
                0x080061d4       0x1c build/Tick.o
                0x080061d4                Tick_DelayMs
 .text.Tick_CountdownBegin
                0x080061f0       0x20 build/Tick.o
                0x080061f0                Tick_CountdownBegin
 .text.Tick_CountdownCancel
                0x08006210       0x18 build/Tick.o
                0x08006210                Tick_CountdownCancel
 .text.Tick_CountdownIsTimeout
                0x08006228       0x10 build/Tick.o
                0x08006228                Tick_CountdownIsTimeout
 .text.Usart_SendAll
                0x08006238       0x30 build/uart_servo_lite.o
                0x08006238                Usart_SendAll
 .text.JOHO_Package2RingBuffer
                0x08006268       0x4a build/uart_servo_lite.o
                0x08006268                JOHO_Package2RingBuffer
 .text.JOHO_PackageBuild_Send
                0x080062b2       0x48 build/uart_servo_lite.o
                0x080062b2                JOHO_PackageBuild_Send
 .text.JOHO_CalcChecksum
                0x080062fa       0x2c build/uart_servo_lite.o
                0x080062fa                JOHO_CalcChecksum
 .text.USL_RecvPackage
                0x08006326      0x126 build/uart_servo_lite.o
                0x08006326                USL_RecvPackage
 .text.USL_SetServoAngle
                0x0800644c       0x68 build/uart_servo_lite.o
                0x0800644c                USL_SetServoAngle
 .text.USL_GETPositionVal
                0x080064b4       0x3e build/uart_servo_lite.o
                0x080064b4                USL_GETPositionVal
 *fill*         0x080064f2        0x2 
 .text.Get_vofa_PID_Rxflag
                0x080064f4       0x18 build/Master_PC.o
                0x080064f4                Get_vofa_PID_Rxflag
 .text.Get_id_Flag_1
                0x0800650c       0x10 build/Master_PC.o
                0x0800650c                Get_id_Flag_1
 .text.Get_id_Flag_2
                0x0800651c       0x14 build/Master_PC.o
                0x0800651c                Get_id_Flag_2
 .text.Pow_invert
                0x08006530       0x1e build/Master_PC.o
                0x08006530                Pow_invert
 *fill*         0x0800654e        0x2 
 .text.RxPacket_Data_Handle
                0x08006550       0x90 build/Master_PC.o
                0x08006550                RxPacket_Data_Handle
 .text.Reset_Handler
                0x080065e0       0x50 build/startup_stm32g431xx.o
                0x080065e0                Reset_Handler
 .text.Default_Handler
                0x08006630        0x2 build/startup_stm32g431xx.o
                0x08006630                RTC_Alarm_IRQHandler
                0x08006630                EXTI2_IRQHandler
                0x08006630                TIM8_TRG_COM_IRQHandler
                0x08006630                TIM8_CC_IRQHandler
                0x08006630                TIM1_CC_IRQHandler
                0x08006630                USB_HP_IRQHandler
                0x08006630                CORDIC_IRQHandler
                0x08006630                EXTI3_IRQHandler
                0x08006630                I2C3_ER_IRQHandler
                0x08006630                EXTI0_IRQHandler
                0x08006630                I2C2_EV_IRQHandler
                0x08006630                FPU_IRQHandler
                0x08006630                FDCAN1_IT1_IRQHandler
                0x08006630                TIM1_UP_TIM16_IRQHandler
                0x08006630                ADC1_2_IRQHandler
                0x08006630                SPI1_IRQHandler
                0x08006630                TIM8_UP_IRQHandler
                0x08006630                DMA2_Channel2_IRQHandler
                0x08006630                DMA1_Channel4_IRQHandler
                0x08006630                TIM4_IRQHandler
                0x08006630                DMA2_Channel1_IRQHandler
                0x08006630                I2C1_EV_IRQHandler
                0x08006630                DMA1_Channel6_IRQHandler
                0x08006630                UART4_IRQHandler
                0x08006630                DMA2_Channel4_IRQHandler
                0x08006630                TIM3_IRQHandler
                0x08006630                RCC_IRQHandler
                0x08006630                Default_Handler
                0x08006630                RTC_TAMP_LSECSS_IRQHandler
                0x08006630                FMAC_IRQHandler
                0x08006630                EXTI15_10_IRQHandler
                0x08006630                UCPD1_IRQHandler
                0x08006630                I2C3_EV_IRQHandler
                0x08006630                EXTI9_5_IRQHandler
                0x08006630                RTC_WKUP_IRQHandler
                0x08006630                PVD_PVM_IRQHandler
                0x08006630                SPI2_IRQHandler
                0x08006630                DMA2_Channel5_IRQHandler
                0x08006630                CRS_IRQHandler
                0x08006630                DMA1_Channel5_IRQHandler
                0x08006630                USB_LP_IRQHandler
                0x08006630                EXTI4_IRQHandler
                0x08006630                RNG_IRQHandler
                0x08006630                TIM1_TRG_COM_TIM17_IRQHandler
                0x08006630                DMA1_Channel3_IRQHandler
                0x08006630                WWDG_IRQHandler
                0x08006630                LPUART1_IRQHandler
                0x08006630                DMA2_Channel6_IRQHandler
                0x08006630                FDCAN1_IT0_IRQHandler
                0x08006630                TIM2_IRQHandler
                0x08006630                COMP1_2_3_IRQHandler
                0x08006630                EXTI1_IRQHandler
                0x08006630                I2C2_ER_IRQHandler
                0x08006630                DMA1_Channel2_IRQHandler
                0x08006630                TIM8_BRK_IRQHandler
                0x08006630                FLASH_IRQHandler
                0x08006630                SPI3_IRQHandler
                0x08006630                I2C1_ER_IRQHandler
                0x08006630                LPTIM1_IRQHandler
                0x08006630                DMAMUX_OVR_IRQHandler
                0x08006630                USBWakeUp_IRQHandler
                0x08006630                SAI1_IRQHandler
                0x08006630                DMA2_Channel3_IRQHandler
                0x08006630                COMP4_IRQHandler
                0x08006630                TIM1_BRK_TIM15_IRQHandler
 *fill*         0x08006632        0x2 
 .text.__errno  0x08006634        0xc d:/stm32_vscode_bag/gnu/bin/../lib/gcc/arm-none-eabi/10.3.1/../../../../arm-none-eabi/lib/thumb/v7e-m+fp/hard\libc_nano.a(lib_a-errno.o)
                0x08006634                __errno
 .text.__libc_init_array
                0x08006640       0x48 d:/stm32_vscode_bag/gnu/bin/../lib/gcc/arm-none-eabi/10.3.1/../../../../arm-none-eabi/lib/thumb/v7e-m+fp/hard\libc_nano.a(lib_a-init.o)
                0x08006640                __libc_init_array
 .text.memset   0x08006688       0x10 d:/stm32_vscode_bag/gnu/bin/../lib/gcc/arm-none-eabi/10.3.1/../../../../arm-none-eabi/lib/thumb/v7e-m+fp/hard\libc_nano.a(lib_a-memset.o)
                0x08006688                memset
 .text.sprintf  0x08006698       0x40 d:/stm32_vscode_bag/gnu/bin/../lib/gcc/arm-none-eabi/10.3.1/../../../../arm-none-eabi/lib/thumb/v7e-m+fp/hard\libc_nano.a(lib_a-sprintf.o)
                0x08006698                siprintf
                0x08006698                sprintf
 .text.__ssputs_r
                0x080066d8       0xb6 d:/stm32_vscode_bag/gnu/bin/../lib/gcc/arm-none-eabi/10.3.1/../../../../arm-none-eabi/lib/thumb/v7e-m+fp/hard\libc_nano.a(lib_a-nano-svfprintf.o)
                0x080066d8                __ssputs_r
 *fill*         0x0800678e        0x2 
 .text._svfprintf_r
                0x08006790      0x200 d:/stm32_vscode_bag/gnu/bin/../lib/gcc/arm-none-eabi/10.3.1/../../../../arm-none-eabi/lib/thumb/v7e-m+fp/hard\libc_nano.a(lib_a-nano-svfprintf.o)
                0x08006790                _svfiprintf_r
                0x08006790                _svfprintf_r
 .text._printf_common
                0x08006990       0xda d:/stm32_vscode_bag/gnu/bin/../lib/gcc/arm-none-eabi/10.3.1/../../../../arm-none-eabi/lib/thumb/v7e-m+fp/hard\libc_nano.a(lib_a-nano-vfprintf_i.o)
                0x08006990                _printf_common
 *fill*         0x08006a6a        0x2 
 .text._printf_i
                0x08006a6c      0x24c d:/stm32_vscode_bag/gnu/bin/../lib/gcc/arm-none-eabi/10.3.1/../../../../arm-none-eabi/lib/thumb/v7e-m+fp/hard\libc_nano.a(lib_a-nano-vfprintf_i.o)
                0x08006a6c                _printf_i
 .text.memcpy   0x08006cb8       0x1c d:/stm32_vscode_bag/gnu/bin/../lib/gcc/arm-none-eabi/10.3.1/../../../../arm-none-eabi/lib/thumb/v7e-m+fp/hard\libc_nano.a(lib_a-memcpy-stub.o)
                0x08006cb8                memcpy
 .text.memmove  0x08006cd4       0x34 d:/stm32_vscode_bag/gnu/bin/../lib/gcc/arm-none-eabi/10.3.1/../../../../arm-none-eabi/lib/thumb/v7e-m+fp/hard\libc_nano.a(lib_a-memmove.o)
                0x08006cd4                memmove
 .text._free_r  0x08006d08       0x98 d:/stm32_vscode_bag/gnu/bin/../lib/gcc/arm-none-eabi/10.3.1/../../../../arm-none-eabi/lib/thumb/v7e-m+fp/hard\libc_nano.a(lib_a-nano-freer.o)
                0x08006d08                _free_r
 .text.sbrk_aligned
                0x08006da0       0x40 d:/stm32_vscode_bag/gnu/bin/../lib/gcc/arm-none-eabi/10.3.1/../../../../arm-none-eabi/lib/thumb/v7e-m+fp/hard\libc_nano.a(lib_a-nano-mallocr.o)
 .text._malloc_r
                0x08006de0       0xe8 d:/stm32_vscode_bag/gnu/bin/../lib/gcc/arm-none-eabi/10.3.1/../../../../arm-none-eabi/lib/thumb/v7e-m+fp/hard\libc_nano.a(lib_a-nano-mallocr.o)
                0x08006de0                _malloc_r
 .text._realloc_r
                0x08006ec8       0x5e d:/stm32_vscode_bag/gnu/bin/../lib/gcc/arm-none-eabi/10.3.1/../../../../arm-none-eabi/lib/thumb/v7e-m+fp/hard\libc_nano.a(lib_a-nano-reallocr.o)
                0x08006ec8                _realloc_r
 *fill*         0x08006f26        0x2 
 .text._sbrk_r  0x08006f28       0x20 d:/stm32_vscode_bag/gnu/bin/../lib/gcc/arm-none-eabi/10.3.1/../../../../arm-none-eabi/lib/thumb/v7e-m+fp/hard\libc_nano.a(lib_a-sbrkr.o)
                0x08006f28                _sbrk_r
 .text.__malloc_lock
                0x08006f48        0xc d:/stm32_vscode_bag/gnu/bin/../lib/gcc/arm-none-eabi/10.3.1/../../../../arm-none-eabi/lib/thumb/v7e-m+fp/hard\libc_nano.a(lib_a-mlock.o)
                0x08006f48                __malloc_lock
 .text.__malloc_unlock
                0x08006f54        0xc d:/stm32_vscode_bag/gnu/bin/../lib/gcc/arm-none-eabi/10.3.1/../../../../arm-none-eabi/lib/thumb/v7e-m+fp/hard\libc_nano.a(lib_a-mlock.o)
                0x08006f54                __malloc_unlock
 .text._malloc_usable_size_r
                0x08006f60       0x10 d:/stm32_vscode_bag/gnu/bin/../lib/gcc/arm-none-eabi/10.3.1/../../../../arm-none-eabi/lib/thumb/v7e-m+fp/hard\libc_nano.a(lib_a-nano-msizer.o)
                0x08006f60                _malloc_usable_size_r
 .text.__retarget_lock_acquire_recursive
                0x08006f70        0x2 d:/stm32_vscode_bag/gnu/bin/../lib/gcc/arm-none-eabi/10.3.1/../../../../arm-none-eabi/lib/thumb/v7e-m+fp/hard\libc_nano.a(lib_a-lock.o)
                0x08006f70                __retarget_lock_acquire_recursive
 .text.__retarget_lock_release_recursive
                0x08006f72        0x2 d:/stm32_vscode_bag/gnu/bin/../lib/gcc/arm-none-eabi/10.3.1/../../../../arm-none-eabi/lib/thumb/v7e-m+fp/hard\libc_nano.a(lib_a-lock.o)
                0x08006f72                __retarget_lock_release_recursive
 *(.glue_7)
 .glue_7        0x08006f74        0x0 linker stubs
 *(.glue_7t)
 .glue_7t       0x08006f74        0x0 linker stubs
 *(.eh_frame)
 .eh_frame      0x08006f74        0x0 d:/stm32_vscode_bag/gnu/bin/../lib/gcc/arm-none-eabi/10.3.1/thumb/v7e-m+fp/hard/crtbegin.o
 *(.init)
 .init          0x08006f74        0x4 d:/stm32_vscode_bag/gnu/bin/../lib/gcc/arm-none-eabi/10.3.1/thumb/v7e-m+fp/hard/crti.o
                0x08006f74                _init
 .init          0x08006f78        0x8 d:/stm32_vscode_bag/gnu/bin/../lib/gcc/arm-none-eabi/10.3.1/thumb/v7e-m+fp/hard/crtn.o
 *(.fini)
 .fini          0x08006f80        0x4 d:/stm32_vscode_bag/gnu/bin/../lib/gcc/arm-none-eabi/10.3.1/thumb/v7e-m+fp/hard/crti.o
                0x08006f80                _fini
 .fini          0x08006f84        0x8 d:/stm32_vscode_bag/gnu/bin/../lib/gcc/arm-none-eabi/10.3.1/thumb/v7e-m+fp/hard/crtn.o
                0x08006f8c                . = ALIGN (0x4)
                0x08006f8c                _etext = .

.vfp11_veneer   0x08006f8c        0x0
 .vfp11_veneer  0x08006f8c        0x0 linker stubs

.v4_bx          0x08006f8c        0x0
 .v4_bx         0x08006f8c        0x0 linker stubs

.iplt           0x08006f8c        0x0
 .iplt          0x08006f8c        0x0 d:/stm32_vscode_bag/gnu/bin/../lib/gcc/arm-none-eabi/10.3.1/thumb/v7e-m+fp/hard/crtbegin.o

.rodata         0x08006f8c      0x8f8
                0x08006f8c                . = ALIGN (0x4)
 *(.rodata)
 *(.rodata*)
 .rodata.UARTPrescTable
                0x08006f8c       0x18 build/stm32g4xx_hal_uart.o
                0x08006f8c                UARTPrescTable
 .rodata.denominator.0
                0x08006fa4        0x8 build/stm32g4xx_hal_uart_ex.o
 .rodata.numerator.1
                0x08006fac        0x8 build/stm32g4xx_hal_uart_ex.o
 .rodata.AHBPrescTable
                0x08006fb4       0x10 build/system_stm32g4xx.o
                0x08006fb4                AHBPrescTable
 .rodata.APBPrescTable
                0x08006fc4        0x8 build/system_stm32g4xx.o
                0x08006fc4                APBPrescTable
 .rodata.menu1.str1.4
                0x08006fcc       0x23 build/oled.o
 *fill*         0x08006fef        0x1 
 .rodata.LOCATE_MODE_Menu.str1.4
                0x08006ff0        0xa build/oled.o
 *fill*         0x08006ffa        0x2 
 .rodata.LASER_RESET_Menu.str1.4
                0x08006ffc        0xd build/oled.o
 *fill*         0x08007009        0x3 
 .rodata.LASER_MOVE_Menu.str1.4
                0x0800700c       0x1f build/oled.o
 *fill*         0x0800702b        0x1 
 .rodata.RECTANGLE_MOVE_Menu.str1.4
                0x0800702c       0x1b build/oled.o
 *fill*         0x08007047        0x1 
 .rodata.F6x8   0x08007048      0x228 build/oledfont.o
                0x08007048                F6x8
 .rodata.F8X16  0x08007270      0x5e0 build/oledfont.o
                0x08007270                F8X16
 .rodata._svfprintf_r.str1.1
                0x08007850       0x11 d:/stm32_vscode_bag/gnu/bin/../lib/gcc/arm-none-eabi/10.3.1/../../../../arm-none-eabi/lib/thumb/v7e-m+fp/hard\libc_nano.a(lib_a-nano-svfprintf.o)
 .rodata._printf_i.str1.1
                0x08007861       0x22 d:/stm32_vscode_bag/gnu/bin/../lib/gcc/arm-none-eabi/10.3.1/../../../../arm-none-eabi/lib/thumb/v7e-m+fp/hard\libc_nano.a(lib_a-nano-vfprintf_i.o)
                0x08007884                . = ALIGN (0x4)
 *fill*         0x08007883        0x1 

.ARM.extab
 *(.ARM.extab* .gnu.linkonce.armextab.*)

.ARM            0x08007884        0x8
                0x08007884                __exidx_start = .
 *(.ARM.exidx*)
 .ARM.exidx     0x08007884        0x8 d:/stm32_vscode_bag/gnu/bin/../lib/gcc/arm-none-eabi/10.3.1/thumb/v7e-m+fp/hard\libgcc.a(_udivmoddi4.o)
                0x0800788c                __exidx_end = .

.rel.dyn        0x0800788c        0x0
 .rel.iplt      0x0800788c        0x0 d:/stm32_vscode_bag/gnu/bin/../lib/gcc/arm-none-eabi/10.3.1/thumb/v7e-m+fp/hard/crtbegin.o

.preinit_array  0x0800788c        0x0
                0x0800788c                PROVIDE (__preinit_array_start = .)
 *(.preinit_array*)
                0x0800788c                PROVIDE (__preinit_array_end = .)

.init_array     0x0800788c        0x4
                0x0800788c                PROVIDE (__init_array_start = .)
 *(SORT_BY_NAME(.init_array.*))
 *(.init_array*)
 .init_array    0x0800788c        0x4 d:/stm32_vscode_bag/gnu/bin/../lib/gcc/arm-none-eabi/10.3.1/thumb/v7e-m+fp/hard/crtbegin.o
                0x08007890                PROVIDE (__init_array_end = .)

.fini_array     0x08007890        0x4
                [!provide]                PROVIDE (__fini_array_start = .)
 *(SORT_BY_NAME(.fini_array.*))
 *(.fini_array*)
 .fini_array    0x08007890        0x4 d:/stm32_vscode_bag/gnu/bin/../lib/gcc/arm-none-eabi/10.3.1/thumb/v7e-m+fp/hard/crtbegin.o
                [!provide]                PROVIDE (__fini_array_end = .)
                0x08007894                _sidata = LOADADDR (.data)

.data           0x20000000       0x90 load address 0x08007894
                0x20000000                . = ALIGN (0x4)
                0x20000000                _sdata = .
 *(.data)
 *(.data*)
 .data.Rectangle_Send
                0x20000000        0x1 build/main.o
                0x20000000                Rectangle_Send
 .data.RxData   0x20000001        0x1 build/main.o
                0x20000001                RxData
 .data.sid_1    0x20000002        0x1 build/main.o
                0x20000002                sid_1
 .data.sid_2    0x20000003        0x1 build/main.o
                0x20000003                sid_2
 .data.uwTickFreq
                0x20000004        0x4 build/stm32g4xx_hal.o
                0x20000004                uwTickFreq
 .data.uwTickPrio
                0x20000008        0x4 build/stm32g4xx_hal.o
                0x20000008                uwTickPrio
 .data.SystemCoreClock
                0x2000000c        0x4 build/system_stm32g4xx.o
                0x2000000c                SystemCoreClock
 .data.CMD_Data
                0x20000010       0x17 build/oled.o
                0x20000010                CMD_Data
 *fill*         0x20000027        0x1 
 .data.servoUsart
                0x20000028        0x4 build/uart_servo_lite.o
                0x20000028                servoUsart
 .data._impure_ptr
                0x2000002c        0x4 d:/stm32_vscode_bag/gnu/bin/../lib/gcc/arm-none-eabi/10.3.1/../../../../arm-none-eabi/lib/thumb/v7e-m+fp/hard\libc_nano.a(lib_a-impure.o)
                0x2000002c                _impure_ptr
 .data.impure_data
                0x20000030       0x60 d:/stm32_vscode_bag/gnu/bin/../lib/gcc/arm-none-eabi/10.3.1/../../../../arm-none-eabi/lib/thumb/v7e-m+fp/hard\libc_nano.a(lib_a-impure.o)
                0x20000090                . = ALIGN (0x4)
                0x20000090                _edata = .

.igot.plt       0x20000090        0x0 load address 0x08007924
 .igot.plt      0x20000090        0x0 d:/stm32_vscode_bag/gnu/bin/../lib/gcc/arm-none-eabi/10.3.1/thumb/v7e-m+fp/hard/crtbegin.o
                0x20000090                . = ALIGN (0x4)

.bss            0x20000090      0x9b4 load address 0x08007924
                0x20000090                _sbss = .
                0x20000090                __bss_start__ = _sbss
 *(.bss)
 .bss           0x20000090       0x1c d:/stm32_vscode_bag/gnu/bin/../lib/gcc/arm-none-eabi/10.3.1/thumb/v7e-m+fp/hard/crtbegin.o
 *(.bss*)
 .bss.DataRecv_Flag.1
                0x200000ac        0x1 build/main.o
 .bss.Data_FinishGet
                0x200000ad        0x1 build/main.o
                0x200000ad                Data_FinishGet
 .bss.Data_StartGet
                0x200000ae        0x1 build/main.o
                0x200000ae                Data_StartGet
 .bss.FinishRectangle_Flag
                0x200000af        0x1 build/main.o
                0x200000af                FinishRectangle_Flag
 .bss.HeadBagRecv_Flag.2
                0x200000b0        0x1 build/main.o
 .bss.KeyNum    0x200000b1        0x1 build/main.o
                0x200000b1                KeyNum
 .bss.Key_GetCnt
                0x200000b2        0x1 build/main.o
                0x200000b2                Key_GetCnt
 .bss.Key_GetCntFlag
                0x200000b3        0x1 build/main.o
                0x200000b3                Key_GetCntFlag
 .bss.Key_Start
                0x200000b4        0x1 build/main.o
                0x200000b4                Key_Start
 .bss.Monitor_Flag
                0x200000b5        0x1 build/main.o
                0x200000b5                Monitor_Flag
 .bss.MovingReset_flag
                0x200000b6        0x1 build/main.o
                0x200000b6                MovingReset_flag
 .bss.On_or_off_RxState.4
                0x200000b7        0x1 build/main.o
 .bss.On_or_off_pRxPacket.3
                0x200000b8        0x1 build/main.o
 .bss.PID_RxState.6
                0x200000b9        0x1 build/main.o
 .bss.PID_pRxPacket.5
                0x200000ba        0x1 build/main.o
 .bss.Recv_time.0
                0x200000bb        0x1 build/main.o
 .bss.ShijueRecv_Buffer
                0x200000bc       0x14 build/main.o
                0x200000bc                ShijueRecv_Buffer
 .bss.pRxPacket
                0x200000d0        0x1 build/main.o
                0x200000d0                pRxPacket
 .bss.shijue_RxData
                0x200000d1        0x1 build/main.o
                0x200000d1                shijue_RxData
 *fill*         0x200000d2        0x2 
 .bss.hi2c1     0x200000d4       0x54 build/i2c.o
                0x200000d4                hi2c1
 .bss.htim6     0x20000128       0x4c build/tim.o
                0x20000128                htim6
 .bss.htim7     0x20000174       0x4c build/tim.o
                0x20000174                htim7
 .bss.hdma_usart3_rx
                0x200001c0       0x60 build/usart.o
                0x200001c0                hdma_usart3_rx
 .bss.huart1    0x20000220       0x94 build/usart.o
                0x20000220                huart1
 .bss.huart2    0x200002b4       0x94 build/usart.o
                0x200002b4                huart2
 .bss.huart3    0x20000348       0x94 build/usart.o
                0x20000348                huart3
 .bss.uwTick    0x200003dc        0x4 build/stm32g4xx_hal.o
                0x200003dc                uwTick
 .bss.__sbrk_heap_end
                0x200003e0        0x4 build/sysmem.o
 .bss.CenterLocate_angleX
                0x200003e4        0x8 build/Servo_Move.o
                0x200003e4                CenterLocate_angleX
 .bss.CenterLocate_angleY
                0x200003ec        0x8 build/Servo_Move.o
                0x200003ec                CenterLocate_angleY
 .bss.Laser_XY  0x200003f4        0x8 build/Servo_Move.o
                0x200003f4                Laser_XY
 .bss.Locate_angleX
                0x200003fc        0x8 build/Servo_Move.o
                0x200003fc                Locate_angleX
 .bss.Locate_angleY
                0x20000404        0x8 build/Servo_Move.o
                0x20000404                Locate_angleY
 .bss.Now_OriginAngle.0
                0x2000040c        0x4 build/Servo_Move.o
 .bss.RelaServo_Angle
                0x20000410        0x8 build/Servo_Move.o
                0x20000410                RelaServo_Angle
 .bss.Set_rectangle_XY
                0x20000418       0x80 build/Servo_Move.o
                0x20000418                Set_rectangle_XY
 .bss.Tracking_CNT
                0x20000498        0x2 build/Servo_Move.o
                0x20000498                Tracking_CNT
 .bss.Tracking_Enable
                0x2000049a        0x2 build/Servo_Move.o
                0x2000049a                Tracking_Enable
 .bss.Tracking_Start_Flag
                0x2000049c        0x2 build/Servo_Move.o
                0x2000049c                Tracking_Start_Flag
 *fill*         0x2000049e        0x2 
 .bss.X_Pid     0x200004a0        0xc build/Servo_Move.o
                0x200004a0                X_Pid
 .bss.Y_Pid     0x200004ac        0xc build/Servo_Move.o
                0x200004ac                Y_Pid
 .bss.integral.2
                0x200004b8        0x4 build/Servo_Move.o
 .bss.last_error.1
                0x200004bc        0x4 build/Servo_Move.o
 .bss.rectangle_XY
                0x200004c0       0x20 build/Servo_Move.o
                0x200004c0                rectangle_XY
 .bss.My_ResetXY
                0x200004e0        0x4 build/oled.o
                0x200004e0                My_ResetXY
 .bss.Restart_Flag.0
                0x200004e4        0x1 build/oled.o
 *fill*         0x200004e5        0x3 
 .bss.menu2     0x200004e8        0x4 build/oled.o
                0x200004e8                menu2
 .bss.menu3     0x200004ec        0x4 build/oled.o
                0x200004ec                menu3
 .bss.menu4     0x200004f0        0x4 build/oled.o
                0x200004f0                menu4
 .bss.point_1   0x200004f4        0x9 build/oled.o
                0x200004f4                point_1
 *fill*         0x200004fd        0x3 
 .bss.point_2   0x20000500        0x9 build/oled.o
                0x20000500                point_2
 *fill*         0x20000509        0x3 
 .bss.point_3   0x2000050c        0x9 build/oled.o
                0x2000050c                point_3
 *fill*         0x20000515        0x3 
 .bss.point_4   0x20000518        0x9 build/oled.o
                0x20000518                point_4
 *fill*         0x20000521        0x3 
 .bss.TickCnt   0x20000524        0x4 build/Tick.o
                0x20000524                TickCnt
 .bss.usart1    0x20000528        0xc build/uart_servo_lite.o
                0x20000528                usart1
 .bss.usart1RecvBuf
                0x20000534      0x1f5 build/uart_servo_lite.o
                0x20000534                usart1RecvBuf
 *fill*         0x20000729        0x3 
 .bss.usart1RecvRingBuf
                0x2000072c        0xc build/uart_servo_lite.o
                0x2000072c                usart1RecvRingBuf
 .bss.usart1SendBuf
                0x20000738      0x1f5 build/uart_servo_lite.o
                0x20000738                usart1SendBuf
 *fill*         0x2000092d        0x3 
 .bss.usart1SendRingBuf
                0x20000930        0xc build/uart_servo_lite.o
                0x20000930                usart1SendRingBuf
 .bss.Data_BitNum
                0x2000093c        0x1 build/Variable.o
                0x2000093c                Data_BitNum
 *fill*         0x2000093d        0x3 
 .bss.Get_On_or_off
                0x20000940       0x64 build/Variable.o
                0x20000940                Get_On_or_off
 .bss.Get_Vofa_RxData
                0x200009a4       0x64 build/Variable.o
                0x200009a4                Get_Vofa_RxData
 .bss.On_or_off_RxFlag
                0x20000a08        0x1 build/Variable.o
                0x20000a08                On_or_off_RxFlag
 *fill*         0x20000a09        0x3 
 .bss.PID_Mode  0x20000a0c       0x20 build/Variable.o
                0x20000a0c                PID_Mode
 .bss.PID_RxFlag
                0x20000a2c        0x1 build/Variable.o
                0x20000a2c                PID_RxFlag
 .bss.PID_index_1
                0x20000a2d        0x1 build/Variable.o
                0x20000a2d                PID_index_1
 .bss.PID_index_2
                0x20000a2e        0x1 build/Variable.o
                0x20000a2e                PID_index_2
 .bss.Rx_Byte   0x20000a2f        0x1 build/Variable.o
                0x20000a2f                Rx_Byte
 .bss.id_Flag_1
                0x20000a30        0x1 build/Variable.o
                0x20000a30                id_Flag_1
 .bss.id_Flag_2
                0x20000a31        0x1 build/Variable.o
                0x20000a31                id_Flag_2
 *fill*         0x20000a32        0x2 
 .bss.__malloc_free_list
                0x20000a34        0x4 d:/stm32_vscode_bag/gnu/bin/../lib/gcc/arm-none-eabi/10.3.1/../../../../arm-none-eabi/lib/thumb/v7e-m+fp/hard\libc_nano.a(lib_a-nano-mallocr.o)
                0x20000a34                __malloc_free_list
 .bss.__malloc_sbrk_start
                0x20000a38        0x4 d:/stm32_vscode_bag/gnu/bin/../lib/gcc/arm-none-eabi/10.3.1/../../../../arm-none-eabi/lib/thumb/v7e-m+fp/hard\libc_nano.a(lib_a-nano-mallocr.o)
                0x20000a38                __malloc_sbrk_start
 .bss.errno     0x20000a3c        0x4 d:/stm32_vscode_bag/gnu/bin/../lib/gcc/arm-none-eabi/10.3.1/../../../../arm-none-eabi/lib/thumb/v7e-m+fp/hard\libc_nano.a(lib_a-reent.o)
                0x20000a3c                errno
 .bss.__lock___malloc_recursive_mutex
                0x20000a40        0x1 d:/stm32_vscode_bag/gnu/bin/../lib/gcc/arm-none-eabi/10.3.1/../../../../arm-none-eabi/lib/thumb/v7e-m+fp/hard\libc_nano.a(lib_a-lock.o)
                0x20000a40                __lock___malloc_recursive_mutex
 *(COMMON)
                0x20000a44                . = ALIGN (0x4)
 *fill*         0x20000a41        0x3 
                0x20000a44                _ebss = .
                0x20000a44                __bss_end__ = _ebss

._user_heap_stack
                0x20000a44      0x604 load address 0x08007924
                0x20000a48                . = ALIGN (0x8)
 *fill*         0x20000a44        0x4 
                [!provide]                PROVIDE (end = .)
                0x20000a48                PROVIDE (_end = .)
                0x20000c48                . = (. + _Min_Heap_Size)
 *fill*         0x20000a48      0x200 
                0x20001048                . = (. + _Min_Stack_Size)
 *fill*         0x20000c48      0x400 
                0x20001048                . = ALIGN (0x8)

/DISCARD/
 libc.a(*)
 libm.a(*)
 libgcc.a(*)

.ARM.attributes
                0x00000000       0x30
 *(.ARM.attributes)
 .ARM.attributes
                0x00000000       0x1e d:/stm32_vscode_bag/gnu/bin/../lib/gcc/arm-none-eabi/10.3.1/thumb/v7e-m+fp/hard/crti.o
 .ARM.attributes
                0x0000001e       0x34 d:/stm32_vscode_bag/gnu/bin/../lib/gcc/arm-none-eabi/10.3.1/thumb/v7e-m+fp/hard/crtbegin.o
 .ARM.attributes
                0x00000052       0x34 build/main.o
 .ARM.attributes
                0x00000086       0x34 build/gpio.o
 .ARM.attributes
                0x000000ba       0x34 build/dma.o
 .ARM.attributes
                0x000000ee       0x34 build/i2c.o
 .ARM.attributes
                0x00000122       0x34 build/tim.o
 .ARM.attributes
                0x00000156       0x34 build/usart.o
 .ARM.attributes
                0x0000018a       0x34 build/stm32g4xx_it.o
 .ARM.attributes
                0x000001be       0x34 build/stm32g4xx_hal_msp.o
 .ARM.attributes
                0x000001f2       0x34 build/stm32g4xx_hal_i2c.o
 .ARM.attributes
                0x00000226       0x34 build/stm32g4xx_hal_i2c_ex.o
 .ARM.attributes
                0x0000025a       0x34 build/stm32g4xx_hal.o
 .ARM.attributes
                0x0000028e       0x34 build/stm32g4xx_hal_rcc.o
 .ARM.attributes
                0x000002c2       0x34 build/stm32g4xx_hal_rcc_ex.o
 .ARM.attributes
                0x000002f6       0x34 build/stm32g4xx_hal_gpio.o
 .ARM.attributes
                0x0000032a       0x34 build/stm32g4xx_hal_dma.o
 .ARM.attributes
                0x0000035e       0x34 build/stm32g4xx_hal_pwr_ex.o
 .ARM.attributes
                0x00000392       0x34 build/stm32g4xx_hal_cortex.o
 .ARM.attributes
                0x000003c6       0x34 build/stm32g4xx_hal_tim.o
 .ARM.attributes
                0x000003fa       0x34 build/stm32g4xx_hal_tim_ex.o
 .ARM.attributes
                0x0000042e       0x34 build/stm32g4xx_hal_uart.o
 .ARM.attributes
                0x00000462       0x34 build/stm32g4xx_hal_uart_ex.o
 .ARM.attributes
                0x00000496       0x34 build/system_stm32g4xx.o
 .ARM.attributes
                0x000004ca       0x34 build/sysmem.o
 .ARM.attributes
                0x000004fe       0x34 build/Servo_Move.o
 .ARM.attributes
                0x00000532       0x34 build/My_KeyBoard.o
 .ARM.attributes
                0x00000566       0x34 build/oled.o
 .ARM.attributes
                0x0000059a       0x34 build/oledfont.o
 .ARM.attributes
                0x000005ce       0x34 build/ring_buffer.o
 .ARM.attributes
                0x00000602       0x34 build/Tick.o
 .ARM.attributes
                0x00000636       0x34 build/uart_servo_lite.o
 .ARM.attributes
                0x0000066a       0x34 build/Master_PC.o
 .ARM.attributes
                0x0000069e       0x34 build/Variable.o
 .ARM.attributes
                0x000006d2       0x21 build/startup_stm32g431xx.o
 .ARM.attributes
                0x000006f3       0x34 d:/stm32_vscode_bag/gnu/bin/../lib/gcc/arm-none-eabi/10.3.1/../../../../arm-none-eabi/lib/thumb/v7e-m+fp/hard\libc_nano.a(lib_a-errno.o)
 .ARM.attributes
                0x00000727       0x34 d:/stm32_vscode_bag/gnu/bin/../lib/gcc/arm-none-eabi/10.3.1/../../../../arm-none-eabi/lib/thumb/v7e-m+fp/hard\libc_nano.a(lib_a-impure.o)
 .ARM.attributes
                0x0000075b       0x34 d:/stm32_vscode_bag/gnu/bin/../lib/gcc/arm-none-eabi/10.3.1/../../../../arm-none-eabi/lib/thumb/v7e-m+fp/hard\libc_nano.a(lib_a-init.o)
 .ARM.attributes
                0x0000078f       0x34 d:/stm32_vscode_bag/gnu/bin/../lib/gcc/arm-none-eabi/10.3.1/../../../../arm-none-eabi/lib/thumb/v7e-m+fp/hard\libc_nano.a(lib_a-memset.o)
 .ARM.attributes
                0x000007c3       0x34 d:/stm32_vscode_bag/gnu/bin/../lib/gcc/arm-none-eabi/10.3.1/../../../../arm-none-eabi/lib/thumb/v7e-m+fp/hard\libc_nano.a(lib_a-sprintf.o)
 .ARM.attributes
                0x000007f7       0x34 d:/stm32_vscode_bag/gnu/bin/../lib/gcc/arm-none-eabi/10.3.1/../../../../arm-none-eabi/lib/thumb/v7e-m+fp/hard\libc_nano.a(lib_a-nano-svfprintf.o)
 .ARM.attributes
                0x0000082b       0x34 d:/stm32_vscode_bag/gnu/bin/../lib/gcc/arm-none-eabi/10.3.1/../../../../arm-none-eabi/lib/thumb/v7e-m+fp/hard\libc_nano.a(lib_a-nano-vfprintf_i.o)
 .ARM.attributes
                0x0000085f       0x1c d:/stm32_vscode_bag/gnu/bin/../lib/gcc/arm-none-eabi/10.3.1/../../../../arm-none-eabi/lib/thumb/v7e-m+fp/hard\libc_nano.a(lib_a-memchr.o)
 .ARM.attributes
                0x0000087b       0x34 d:/stm32_vscode_bag/gnu/bin/../lib/gcc/arm-none-eabi/10.3.1/../../../../arm-none-eabi/lib/thumb/v7e-m+fp/hard\libc_nano.a(lib_a-memcpy-stub.o)
 .ARM.attributes
                0x000008af       0x34 d:/stm32_vscode_bag/gnu/bin/../lib/gcc/arm-none-eabi/10.3.1/../../../../arm-none-eabi/lib/thumb/v7e-m+fp/hard\libc_nano.a(lib_a-memmove.o)
 .ARM.attributes
                0x000008e3       0x34 d:/stm32_vscode_bag/gnu/bin/../lib/gcc/arm-none-eabi/10.3.1/../../../../arm-none-eabi/lib/thumb/v7e-m+fp/hard\libc_nano.a(lib_a-nano-freer.o)
 .ARM.attributes
                0x00000917       0x34 d:/stm32_vscode_bag/gnu/bin/../lib/gcc/arm-none-eabi/10.3.1/../../../../arm-none-eabi/lib/thumb/v7e-m+fp/hard\libc_nano.a(lib_a-nano-mallocr.o)
 .ARM.attributes
                0x0000094b       0x34 d:/stm32_vscode_bag/gnu/bin/../lib/gcc/arm-none-eabi/10.3.1/../../../../arm-none-eabi/lib/thumb/v7e-m+fp/hard\libc_nano.a(lib_a-nano-reallocr.o)
 .ARM.attributes
                0x0000097f       0x34 d:/stm32_vscode_bag/gnu/bin/../lib/gcc/arm-none-eabi/10.3.1/../../../../arm-none-eabi/lib/thumb/v7e-m+fp/hard\libc_nano.a(lib_a-sbrkr.o)
 .ARM.attributes
                0x000009b3       0x34 d:/stm32_vscode_bag/gnu/bin/../lib/gcc/arm-none-eabi/10.3.1/../../../../arm-none-eabi/lib/thumb/v7e-m+fp/hard\libc_nano.a(lib_a-mlock.o)
 .ARM.attributes
                0x000009e7       0x34 d:/stm32_vscode_bag/gnu/bin/../lib/gcc/arm-none-eabi/10.3.1/../../../../arm-none-eabi/lib/thumb/v7e-m+fp/hard\libc_nano.a(lib_a-nano-msizer.o)
 .ARM.attributes
                0x00000a1b       0x34 d:/stm32_vscode_bag/gnu/bin/../lib/gcc/arm-none-eabi/10.3.1/../../../../arm-none-eabi/lib/thumb/v7e-m+fp/hard\libc_nano.a(lib_a-reent.o)
 .ARM.attributes
                0x00000a4f       0x34 d:/stm32_vscode_bag/gnu/bin/../lib/gcc/arm-none-eabi/10.3.1/../../../../arm-none-eabi/lib/thumb/v7e-m+fp/hard\libc_nano.a(lib_a-lock.o)
 .ARM.attributes
                0x00000a83       0x1e d:/stm32_vscode_bag/gnu/bin/../lib/gcc/arm-none-eabi/10.3.1/thumb/v7e-m+fp/hard\libgcc.a(_arm_muldf3.o)
 .ARM.attributes
                0x00000aa1       0x1e d:/stm32_vscode_bag/gnu/bin/../lib/gcc/arm-none-eabi/10.3.1/thumb/v7e-m+fp/hard\libgcc.a(_arm_addsubdf3.o)
 .ARM.attributes
                0x00000abf       0x1e d:/stm32_vscode_bag/gnu/bin/../lib/gcc/arm-none-eabi/10.3.1/thumb/v7e-m+fp/hard\libgcc.a(_arm_cmpdf2.o)
 .ARM.attributes
                0x00000add       0x1e d:/stm32_vscode_bag/gnu/bin/../lib/gcc/arm-none-eabi/10.3.1/thumb/v7e-m+fp/hard\libgcc.a(_arm_fixunsdfsi.o)
 .ARM.attributes
                0x00000afb       0x1e d:/stm32_vscode_bag/gnu/bin/../lib/gcc/arm-none-eabi/10.3.1/thumb/v7e-m+fp/hard\libgcc.a(_aeabi_uldivmod.o)
 .ARM.attributes
                0x00000b19       0x34 d:/stm32_vscode_bag/gnu/bin/../lib/gcc/arm-none-eabi/10.3.1/thumb/v7e-m+fp/hard\libgcc.a(_udivmoddi4.o)
 .ARM.attributes
                0x00000b4d       0x1e d:/stm32_vscode_bag/gnu/bin/../lib/gcc/arm-none-eabi/10.3.1/thumb/v7e-m+fp/hard\libgcc.a(_dvmd_tls.o)
 .ARM.attributes
                0x00000b6b       0x1e d:/stm32_vscode_bag/gnu/bin/../lib/gcc/arm-none-eabi/10.3.1/thumb/v7e-m+fp/hard/crtn.o
OUTPUT(build/Target_tracking.elf elf32-littlearm)
LOAD linker stubs
LOAD d:/stm32_vscode_bag/gnu/bin/../lib/gcc/arm-none-eabi/10.3.1/../../../../arm-none-eabi/lib/thumb/v7e-m+fp/hard\libc.a
LOAD d:/stm32_vscode_bag/gnu/bin/../lib/gcc/arm-none-eabi/10.3.1/../../../../arm-none-eabi/lib/thumb/v7e-m+fp/hard\libm.a
LOAD d:/stm32_vscode_bag/gnu/bin/../lib/gcc/arm-none-eabi/10.3.1/thumb/v7e-m+fp/hard\libgcc.a

.debug_info     0x00000000    0x28b85
 .debug_info    0x00000000     0x190d build/main.o
 .debug_info    0x0000190d      0x632 build/gpio.o
 .debug_info    0x00001f3f      0x5bc build/dma.o
 .debug_info    0x000024fb      0xf78 build/i2c.o
 .debug_info    0x00003473     0x1017 build/tim.o
 .debug_info    0x0000448a     0x1721 build/usart.o
 .debug_info    0x00005bab      0xf09 build/stm32g4xx_it.o
 .debug_info    0x00006ab4      0x3a1 build/stm32g4xx_hal_msp.o
 .debug_info    0x00006e55     0x47a8 build/stm32g4xx_hal_i2c.o
 .debug_info    0x0000b5fd      0xca6 build/stm32g4xx_hal_i2c_ex.o
 .debug_info    0x0000c2a3      0xce4 build/stm32g4xx_hal.o
 .debug_info    0x0000cf87      0xfdb build/stm32g4xx_hal_rcc.o
 .debug_info    0x0000df62     0x1035 build/stm32g4xx_hal_rcc_ex.o
 .debug_info    0x0000ef97      0x92d build/stm32g4xx_hal_gpio.o
 .debug_info    0x0000f8c4      0xaeb build/stm32g4xx_hal_dma.o
 .debug_info    0x000103af      0xb20 build/stm32g4xx_hal_pwr_ex.o
 .debug_info    0x00010ecf     0x1173 build/stm32g4xx_hal_cortex.o
 .debug_info    0x00012042     0x4445 build/stm32g4xx_hal_tim.o
 .debug_info    0x00016487     0x2776 build/stm32g4xx_hal_tim_ex.o
 .debug_info    0x00018bfd     0x667b build/stm32g4xx_hal_uart.o
 .debug_info    0x0001f278     0x13ad build/stm32g4xx_hal_uart_ex.o
 .debug_info    0x00020625      0x649 build/system_stm32g4xx.o
 .debug_info    0x00020c6e      0x185 build/sysmem.o
 .debug_info    0x00020df3     0x1432 build/Servo_Move.o
 .debug_info    0x00022225     0x1115 build/My_KeyBoard.o
 .debug_info    0x0002333a     0x294c build/oled.o
 .debug_info    0x00025c86      0x154 build/oledfont.o
 .debug_info    0x00025dda      0xb39 build/ring_buffer.o
 .debug_info    0x00026913      0xa16 build/Tick.o
 .debug_info    0x00027329     0x136b build/uart_servo_lite.o
 .debug_info    0x00028694      0x291 build/Master_PC.o
 .debug_info    0x00028925      0x23e build/Variable.o
 .debug_info    0x00028b63       0x22 build/startup_stm32g431xx.o

.debug_abbrev   0x00000000     0x4251
 .debug_abbrev  0x00000000      0x2a0 build/main.o
 .debug_abbrev  0x000002a0      0x151 build/gpio.o
 .debug_abbrev  0x000003f1      0x117 build/dma.o
 .debug_abbrev  0x00000508      0x1f4 build/i2c.o
 .debug_abbrev  0x000006fc      0x1f1 build/tim.o
 .debug_abbrev  0x000008ed      0x256 build/usart.o
 .debug_abbrev  0x00000b43      0x1ae build/stm32g4xx_it.o
 .debug_abbrev  0x00000cf1       0xd9 build/stm32g4xx_hal_msp.o
 .debug_abbrev  0x00000dca      0x2b0 build/stm32g4xx_hal_i2c.o
 .debug_abbrev  0x0000107a      0x1b5 build/stm32g4xx_hal_i2c_ex.o
 .debug_abbrev  0x0000122f      0x25d build/stm32g4xx_hal.o
 .debug_abbrev  0x0000148c      0x2ac build/stm32g4xx_hal_rcc.o
 .debug_abbrev  0x00001738      0x262 build/stm32g4xx_hal_rcc_ex.o
 .debug_abbrev  0x0000199a      0x222 build/stm32g4xx_hal_gpio.o
 .debug_abbrev  0x00001bbc      0x251 build/stm32g4xx_hal_dma.o
 .debug_abbrev  0x00001e0d      0x264 build/stm32g4xx_hal_pwr_ex.o
 .debug_abbrev  0x00002071      0x379 build/stm32g4xx_hal_cortex.o
 .debug_abbrev  0x000023ea      0x298 build/stm32g4xx_hal_tim.o
 .debug_abbrev  0x00002682      0x2ae build/stm32g4xx_hal_tim_ex.o
 .debug_abbrev  0x00002930      0x343 build/stm32g4xx_hal_uart.o
 .debug_abbrev  0x00002c73      0x311 build/stm32g4xx_hal_uart_ex.o
 .debug_abbrev  0x00002f84      0x11b build/system_stm32g4xx.o
 .debug_abbrev  0x0000309f       0xea build/sysmem.o
 .debug_abbrev  0x00003189      0x2f1 build/Servo_Move.o
 .debug_abbrev  0x0000347a      0x1a9 build/My_KeyBoard.o
 .debug_abbrev  0x00003623      0x355 build/oled.o
 .debug_abbrev  0x00003978       0x79 build/oledfont.o
 .debug_abbrev  0x000039f1      0x19a build/ring_buffer.o
 .debug_abbrev  0x00003b8b      0x1dc build/Tick.o
 .debug_abbrev  0x00003d67      0x310 build/uart_servo_lite.o
 .debug_abbrev  0x00004077      0x12e build/Master_PC.o
 .debug_abbrev  0x000041a5       0x9a build/Variable.o
 .debug_abbrev  0x0000423f       0x12 build/startup_stm32g431xx.o

.debug_loc      0x00000000    0x1db7c
 .debug_loc     0x00000000       0xc2 build/main.o
 .debug_loc     0x000000c2       0x39 build/gpio.o
 .debug_loc     0x000000fb       0x38 build/dma.o
 .debug_loc     0x00000133      0x124 build/i2c.o
 .debug_loc     0x00000257      0x1aa build/tim.o
 .debug_loc     0x00000401      0x1b5 build/usart.o
 .debug_loc     0x000005b6       0xe0 build/stm32g4xx_it.o
 .debug_loc     0x00000696       0x38 build/stm32g4xx_hal_msp.o
 .debug_loc     0x000006ce     0x5dee build/stm32g4xx_hal_i2c.o
 .debug_loc     0x000064bc      0x25a build/stm32g4xx_hal_i2c_ex.o
 .debug_loc     0x00006716      0x2af build/stm32g4xx_hal.o
 .debug_loc     0x000069c5      0x999 build/stm32g4xx_hal_rcc.o
 .debug_loc     0x0000735e     0x12f1 build/stm32g4xx_hal_rcc_ex.o
 .debug_loc     0x0000864f      0x46f build/stm32g4xx_hal_gpio.o
 .debug_loc     0x00008abe      0x9d0 build/stm32g4xx_hal_dma.o
 .debug_loc     0x0000948e      0xa26 build/stm32g4xx_hal_pwr_ex.o
 .debug_loc     0x00009eb4      0x796 build/stm32g4xx_hal_cortex.o
 .debug_loc     0x0000a64a     0x637d build/stm32g4xx_hal_tim.o
 .debug_loc     0x000109c7     0x332b build/stm32g4xx_hal_tim_ex.o
 .debug_loc     0x00013cf2     0x61ef build/stm32g4xx_hal_uart.o
 .debug_loc     0x00019ee1      0xe2a build/stm32g4xx_hal_uart_ex.o
 .debug_loc     0x0001ad0b       0x9d build/system_stm32g4xx.o
 .debug_loc     0x0001ada8       0x84 build/sysmem.o
 .debug_loc     0x0001ae2c      0x483 build/Servo_Move.o
 .debug_loc     0x0001b2af       0x62 build/My_KeyBoard.o
 .debug_loc     0x0001b311     0x124e build/oled.o
 .debug_loc     0x0001c55f      0xb81 build/ring_buffer.o
 .debug_loc     0x0001d0e0      0x16c build/Tick.o
 .debug_loc     0x0001d24c      0x753 build/uart_servo_lite.o
 .debug_loc     0x0001d99f      0x1dd build/Master_PC.o

.debug_aranges  0x00000000     0x1738
 .debug_aranges
                0x00000000       0x40 build/main.o
 .debug_aranges
                0x00000040       0x20 build/gpio.o
 .debug_aranges
                0x00000060       0x20 build/dma.o
 .debug_aranges
                0x00000080       0x30 build/i2c.o
 .debug_aranges
                0x000000b0       0x38 build/tim.o
 .debug_aranges
                0x000000e8       0x40 build/usart.o
 .debug_aranges
                0x00000128       0x90 build/stm32g4xx_it.o
 .debug_aranges
                0x000001b8       0x20 build/stm32g4xx_hal_msp.o
 .debug_aranges
                0x000001d8      0x2a0 build/stm32g4xx_hal_i2c.o
 .debug_aranges
                0x00000478       0x48 build/stm32g4xx_hal_i2c_ex.o
 .debug_aranges
                0x000004c0      0x148 build/stm32g4xx_hal.o
 .debug_aranges
                0x00000608       0x98 build/stm32g4xx_hal_rcc.o
 .debug_aranges
                0x000006a0       0xb0 build/stm32g4xx_hal_rcc_ex.o
 .debug_aranges
                0x00000750       0x58 build/stm32g4xx_hal_gpio.o
 .debug_aranges
                0x000007a8       0x90 build/stm32g4xx_hal_dma.o
 .debug_aranges
                0x00000838      0x140 build/stm32g4xx_hal_pwr_ex.o
 .debug_aranges
                0x00000978       0xb8 build/stm32g4xx_hal_cortex.o
 .debug_aranges
                0x00000a30      0x3e0 build/stm32g4xx_hal_tim.o
 .debug_aranges
                0x00000e10      0x240 build/stm32g4xx_hal_tim_ex.o
 .debug_aranges
                0x00001050      0x248 build/stm32g4xx_hal_uart.o
 .debug_aranges
                0x00001298       0xa8 build/stm32g4xx_hal_uart_ex.o
 .debug_aranges
                0x00001340       0x28 build/system_stm32g4xx.o
 .debug_aranges
                0x00001368       0x20 build/sysmem.o
 .debug_aranges
                0x00001388       0x60 build/Servo_Move.o
 .debug_aranges
                0x000013e8       0x28 build/My_KeyBoard.o
 .debug_aranges
                0x00001410       0xf8 build/oled.o
 .debug_aranges
                0x00001508       0x18 build/oledfont.o
 .debug_aranges
                0x00001520       0xe0 build/ring_buffer.o
 .debug_aranges
                0x00001600       0x48 build/Tick.o
 .debug_aranges
                0x00001648       0x68 build/uart_servo_lite.o
 .debug_aranges
                0x000016b0       0x48 build/Master_PC.o
 .debug_aranges
                0x000016f8       0x18 build/Variable.o
 .debug_aranges
                0x00001710       0x28 build/startup_stm32g431xx.o

.debug_ranges   0x00000000     0x1678
 .debug_ranges  0x00000000       0x48 build/main.o
 .debug_ranges  0x00000048       0x10 build/gpio.o
 .debug_ranges  0x00000058       0x10 build/dma.o
 .debug_ranges  0x00000068       0x20 build/i2c.o
 .debug_ranges  0x00000088       0x28 build/tim.o
 .debug_ranges  0x000000b0       0x30 build/usart.o
 .debug_ranges  0x000000e0       0x80 build/stm32g4xx_it.o
 .debug_ranges  0x00000160       0x10 build/stm32g4xx_hal_msp.o
 .debug_ranges  0x00000170      0x290 build/stm32g4xx_hal_i2c.o
 .debug_ranges  0x00000400       0x38 build/stm32g4xx_hal_i2c_ex.o
 .debug_ranges  0x00000438      0x138 build/stm32g4xx_hal.o
 .debug_ranges  0x00000570       0xa0 build/stm32g4xx_hal_rcc.o
 .debug_ranges  0x00000610       0xb8 build/stm32g4xx_hal_rcc_ex.o
 .debug_ranges  0x000006c8       0x48 build/stm32g4xx_hal_gpio.o
 .debug_ranges  0x00000710       0x80 build/stm32g4xx_hal_dma.o
 .debug_ranges  0x00000790      0x130 build/stm32g4xx_hal_pwr_ex.o
 .debug_ranges  0x000008c0      0x108 build/stm32g4xx_hal_cortex.o
 .debug_ranges  0x000009c8      0x3d0 build/stm32g4xx_hal_tim.o
 .debug_ranges  0x00000d98      0x230 build/stm32g4xx_hal_tim_ex.o
 .debug_ranges  0x00000fc8      0x238 build/stm32g4xx_hal_uart.o
 .debug_ranges  0x00001200       0xb0 build/stm32g4xx_hal_uart_ex.o
 .debug_ranges  0x000012b0       0x18 build/system_stm32g4xx.o
 .debug_ranges  0x000012c8       0x10 build/sysmem.o
 .debug_ranges  0x000012d8       0x98 build/Servo_Move.o
 .debug_ranges  0x00001370       0x18 build/My_KeyBoard.o
 .debug_ranges  0x00001388      0x108 build/oled.o
 .debug_ranges  0x00001490       0xe8 build/ring_buffer.o
 .debug_ranges  0x00001578       0x38 build/Tick.o
 .debug_ranges  0x000015b0       0x58 build/uart_servo_lite.o
 .debug_ranges  0x00001608       0x50 build/Master_PC.o
 .debug_ranges  0x00001658       0x20 build/startup_stm32g431xx.o

.debug_line     0x00000000    0x1dc58
 .debug_line    0x00000000      0x98e build/main.o
 .debug_line    0x0000098e      0x1fc build/gpio.o
 .debug_line    0x00000b8a      0x153 build/dma.o
 .debug_line    0x00000cdd      0x34c build/i2c.o
 .debug_line    0x00001029      0x322 build/tim.o
 .debug_line    0x0000134b      0x65d build/usart.o
 .debug_line    0x000019a8      0x330 build/stm32g4xx_it.o
 .debug_line    0x00001cd8      0x161 build/stm32g4xx_hal_msp.o
 .debug_line    0x00001e39     0x51ab build/stm32g4xx_hal_i2c.o
 .debug_line    0x00006fe4      0x47f build/stm32g4xx_hal_i2c_ex.o
 .debug_line    0x00007463      0x693 build/stm32g4xx_hal.o
 .debug_line    0x00007af6      0xdb0 build/stm32g4xx_hal_rcc.o
 .debug_line    0x000088a6     0x1022 build/stm32g4xx_hal_rcc_ex.o
 .debug_line    0x000098c8      0x648 build/stm32g4xx_hal_gpio.o
 .debug_line    0x00009f10      0xc0a build/stm32g4xx_hal_dma.o
 .debug_line    0x0000ab1a      0xa32 build/stm32g4xx_hal_pwr_ex.o
 .debug_line    0x0000b54c      0x752 build/stm32g4xx_hal_cortex.o
 .debug_line    0x0000bc9e     0x5333 build/stm32g4xx_hal_tim.o
 .debug_line    0x00010fd1     0x257d build/stm32g4xx_hal_tim_ex.o
 .debug_line    0x0001354e     0x63e5 build/stm32g4xx_hal_uart.o
 .debug_line    0x00019933      0xc58 build/stm32g4xx_hal_uart_ex.o
 .debug_line    0x0001a58b      0x207 build/system_stm32g4xx.o
 .debug_line    0x0001a792      0x171 build/sysmem.o
 .debug_line    0x0001a903      0xb61 build/Servo_Move.o
 .debug_line    0x0001b464      0x66c build/My_KeyBoard.o
 .debug_line    0x0001bad0      0xe96 build/oled.o
 .debug_line    0x0001c966       0x76 build/oledfont.o
 .debug_line    0x0001c9dc      0x5d1 build/ring_buffer.o
 .debug_line    0x0001cfad      0x293 build/Tick.o
 .debug_line    0x0001d240      0x613 build/uart_servo_lite.o
 .debug_line    0x0001d853      0x298 build/Master_PC.o
 .debug_line    0x0001daeb       0xf6 build/Variable.o
 .debug_line    0x0001dbe1       0x77 build/startup_stm32g431xx.o

.debug_str      0x00000000     0x6e24
 .debug_str     0x00000000      0xf8a build/main.o
                               0x10d4 (size before relaxing)
 .debug_str     0x00000f8a      0x19e build/gpio.o
                                0x3a1 (size before relaxing)
 .debug_str     0x00001128      0x48c build/dma.o
                                0x75f (size before relaxing)
 .debug_str     0x000015b4      0x49b build/i2c.o
                                0xb75 (size before relaxing)
 .debug_str     0x00001a4f      0x101 build/tim.o
                                0xe97 (size before relaxing)
 .debug_str     0x00001b50      0x120 build/usart.o
                               0x10f4 (size before relaxing)
 .debug_str     0x00001c70      0x161 build/stm32g4xx_it.o
                                0xb9e (size before relaxing)
 .debug_str     0x00001dd1       0x4a build/stm32g4xx_hal_msp.o
                                0x311 (size before relaxing)
 .debug_str     0x00001e1b      0x906 build/stm32g4xx_hal_i2c.o
                               0x10b3 (size before relaxing)
 .debug_str     0x00002721       0xcb build/stm32g4xx_hal_i2c_ex.o
                                0x9c9 (size before relaxing)
 .debug_str     0x000027ec      0x453 build/stm32g4xx_hal.o
                                0xc45 (size before relaxing)
 .debug_str     0x00002c3f      0x2f5 build/stm32g4xx_hal_rcc.o
                                0x812 (size before relaxing)
 .debug_str     0x00002f34      0x3a7 build/stm32g4xx_hal_rcc_ex.o
                                0x9f9 (size before relaxing)
 .debug_str     0x000032db       0xcc build/stm32g4xx_hal_gpio.o
                                0x523 (size before relaxing)
 .debug_str     0x000033a7      0x261 build/stm32g4xx_hal_dma.o
                                0x784 (size before relaxing)
 .debug_str     0x00003608      0x4d3 build/stm32g4xx_hal_pwr_ex.o
                                0x7c5 (size before relaxing)
 .debug_str     0x00003adb      0x45c build/stm32g4xx_hal_cortex.o
                                0xba5 (size before relaxing)
 .debug_str     0x00003f37      0xf46 build/stm32g4xx_hal_tim.o
                               0x1852 (size before relaxing)
 .debug_str     0x00004e7d      0x922 build/stm32g4xx_hal_tim_ex.o
                               0x14aa (size before relaxing)
 .debug_str     0x0000579f      0x81c build/stm32g4xx_hal_uart.o
                               0x120d (size before relaxing)
 .debug_str     0x00005fbb      0x23f build/stm32g4xx_hal_uart_ex.o
                                0xb36 (size before relaxing)
 .debug_str     0x000061fa       0x3d build/system_stm32g4xx.o
                                0x3aa (size before relaxing)
 .debug_str     0x00006237       0x7a build/sysmem.o
                                0x204 (size before relaxing)
 .debug_str     0x000062b1      0x2e1 build/Servo_Move.o
                                0xb75 (size before relaxing)
 .debug_str     0x00006592       0x58 build/My_KeyBoard.o
                                0x8be (size before relaxing)
 .debug_str     0x000065ea      0x285 build/oled.o
                                0xe82 (size before relaxing)
 .debug_str     0x0000686f       0x4d build/oledfont.o
                                0x13d (size before relaxing)
 .debug_str     0x000068bc      0x26c build/ring_buffer.o
                                0x47e (size before relaxing)
 .debug_str     0x00006b28       0xa6 build/Tick.o
                                0x880 (size before relaxing)
 .debug_str     0x00006bce      0x146 build/uart_servo_lite.o
                                0xa32 (size before relaxing)
 .debug_str     0x00006d14       0xa2 build/Master_PC.o
                                0x2a8 (size before relaxing)
 .debug_str     0x00006db6       0x4a build/Variable.o
                                0x25a (size before relaxing)
 .debug_str     0x00006e00       0x24 build/startup_stm32g431xx.o
                                 0x49 (size before relaxing)

.comment        0x00000000       0x49
 .comment       0x00000000       0x49 build/main.o
                                 0x4a (size before relaxing)
 .comment       0x00000049       0x4a build/gpio.o
 .comment       0x00000049       0x4a build/dma.o
 .comment       0x00000049       0x4a build/i2c.o
 .comment       0x00000049       0x4a build/tim.o
 .comment       0x00000049       0x4a build/usart.o
 .comment       0x00000049       0x4a build/stm32g4xx_it.o
 .comment       0x00000049       0x4a build/stm32g4xx_hal_msp.o
 .comment       0x00000049       0x4a build/stm32g4xx_hal_i2c.o
 .comment       0x00000049       0x4a build/stm32g4xx_hal_i2c_ex.o
 .comment       0x00000049       0x4a build/stm32g4xx_hal.o
 .comment       0x00000049       0x4a build/stm32g4xx_hal_rcc.o
 .comment       0x00000049       0x4a build/stm32g4xx_hal_rcc_ex.o
 .comment       0x00000049       0x4a build/stm32g4xx_hal_gpio.o
 .comment       0x00000049       0x4a build/stm32g4xx_hal_dma.o
 .comment       0x00000049       0x4a build/stm32g4xx_hal_pwr_ex.o
 .comment       0x00000049       0x4a build/stm32g4xx_hal_cortex.o
 .comment       0x00000049       0x4a build/stm32g4xx_hal_tim.o
 .comment       0x00000049       0x4a build/stm32g4xx_hal_tim_ex.o
 .comment       0x00000049       0x4a build/stm32g4xx_hal_uart.o
 .comment       0x00000049       0x4a build/stm32g4xx_hal_uart_ex.o
 .comment       0x00000049       0x4a build/system_stm32g4xx.o
 .comment       0x00000049       0x4a build/sysmem.o
 .comment       0x00000049       0x4a build/Servo_Move.o
 .comment       0x00000049       0x4a build/My_KeyBoard.o
 .comment       0x00000049       0x4a build/oled.o
 .comment       0x00000049       0x4a build/oledfont.o
 .comment       0x00000049       0x4a build/ring_buffer.o
 .comment       0x00000049       0x4a build/Tick.o
 .comment       0x00000049       0x4a build/uart_servo_lite.o
 .comment       0x00000049       0x4a build/Master_PC.o
 .comment       0x00000049       0x4a build/Variable.o

.debug_frame    0x00000000     0x441c
 .debug_frame   0x00000000       0x84 build/main.o
 .debug_frame   0x00000084       0x34 build/gpio.o
 .debug_frame   0x000000b8       0x2c build/dma.o
 .debug_frame   0x000000e4       0x6c build/i2c.o
 .debug_frame   0x00000150       0x88 build/tim.o
 .debug_frame   0x000001d8       0x98 build/usart.o
 .debug_frame   0x00000270      0x138 build/stm32g4xx_it.o
 .debug_frame   0x000003a8       0x2c build/stm32g4xx_hal_msp.o
 .debug_frame   0x000003d4      0x970 build/stm32g4xx_hal_i2c.o
 .debug_frame   0x00000d44       0x80 build/stm32g4xx_hal_i2c_ex.o
 .debug_frame   0x00000dc4      0x2a4 build/stm32g4xx_hal.o
 .debug_frame   0x00001068      0x198 build/stm32g4xx_hal_rcc.o
 .debug_frame   0x00001200      0x1a0 build/stm32g4xx_hal_rcc_ex.o
 .debug_frame   0x000013a0       0xd0 build/stm32g4xx_hal_gpio.o
 .debug_frame   0x00001470      0x170 build/stm32g4xx_hal_dma.o
 .debug_frame   0x000015e0      0x268 build/stm32g4xx_hal_pwr_ex.o
 .debug_frame   0x00001848      0x168 build/stm32g4xx_hal_cortex.o
 .debug_frame   0x000019b0      0xb58 build/stm32g4xx_hal_tim.o
 .debug_frame   0x00002508      0x610 build/stm32g4xx_hal_tim_ex.o
 .debug_frame   0x00002b18      0x67c build/stm32g4xx_hal_uart.o
 .debug_frame   0x00003194      0x1d8 build/stm32g4xx_hal_uart_ex.o
 .debug_frame   0x0000336c       0x30 build/system_stm32g4xx.o
 .debug_frame   0x0000339c       0x28 build/sysmem.o
 .debug_frame   0x000033c4      0x100 build/Servo_Move.o
 .debug_frame   0x000034c4       0x44 build/My_KeyBoard.o
 .debug_frame   0x00003508      0x374 build/oled.o
 .debug_frame   0x0000387c      0x2a4 build/ring_buffer.o
 .debug_frame   0x00003b20       0xa4 build/Tick.o
 .debug_frame   0x00003bc4      0x144 build/uart_servo_lite.o
 .debug_frame   0x00003d08       0x90 build/Master_PC.o
 .debug_frame   0x00003d98       0x20 d:/stm32_vscode_bag/gnu/bin/../lib/gcc/arm-none-eabi/10.3.1/../../../../arm-none-eabi/lib/thumb/v7e-m+fp/hard\libc_nano.a(lib_a-errno.o)
 .debug_frame   0x00003db8       0x2c d:/stm32_vscode_bag/gnu/bin/../lib/gcc/arm-none-eabi/10.3.1/../../../../arm-none-eabi/lib/thumb/v7e-m+fp/hard\libc_nano.a(lib_a-init.o)
 .debug_frame   0x00003de4       0x20 d:/stm32_vscode_bag/gnu/bin/../lib/gcc/arm-none-eabi/10.3.1/../../../../arm-none-eabi/lib/thumb/v7e-m+fp/hard\libc_nano.a(lib_a-memset.o)
 .debug_frame   0x00003e04       0x6c d:/stm32_vscode_bag/gnu/bin/../lib/gcc/arm-none-eabi/10.3.1/../../../../arm-none-eabi/lib/thumb/v7e-m+fp/hard\libc_nano.a(lib_a-sprintf.o)
 .debug_frame   0x00003e70       0x90 d:/stm32_vscode_bag/gnu/bin/../lib/gcc/arm-none-eabi/10.3.1/../../../../arm-none-eabi/lib/thumb/v7e-m+fp/hard\libc_nano.a(lib_a-nano-svfprintf.o)
 .debug_frame   0x00003f00       0x60 d:/stm32_vscode_bag/gnu/bin/../lib/gcc/arm-none-eabi/10.3.1/../../../../arm-none-eabi/lib/thumb/v7e-m+fp/hard\libc_nano.a(lib_a-nano-vfprintf_i.o)
 .debug_frame   0x00003f60       0x28 d:/stm32_vscode_bag/gnu/bin/../lib/gcc/arm-none-eabi/10.3.1/../../../../arm-none-eabi/lib/thumb/v7e-m+fp/hard\libc_nano.a(lib_a-memcpy-stub.o)
 .debug_frame   0x00003f88       0x28 d:/stm32_vscode_bag/gnu/bin/../lib/gcc/arm-none-eabi/10.3.1/../../../../arm-none-eabi/lib/thumb/v7e-m+fp/hard\libc_nano.a(lib_a-memmove.o)
 .debug_frame   0x00003fb0       0x38 d:/stm32_vscode_bag/gnu/bin/../lib/gcc/arm-none-eabi/10.3.1/../../../../arm-none-eabi/lib/thumb/v7e-m+fp/hard\libc_nano.a(lib_a-nano-freer.o)
 .debug_frame   0x00003fe8       0x4c d:/stm32_vscode_bag/gnu/bin/../lib/gcc/arm-none-eabi/10.3.1/../../../../arm-none-eabi/lib/thumb/v7e-m+fp/hard\libc_nano.a(lib_a-nano-mallocr.o)
 .debug_frame   0x00004034       0x3c d:/stm32_vscode_bag/gnu/bin/../lib/gcc/arm-none-eabi/10.3.1/../../../../arm-none-eabi/lib/thumb/v7e-m+fp/hard\libc_nano.a(lib_a-nano-reallocr.o)
 .debug_frame   0x00004070       0x2c d:/stm32_vscode_bag/gnu/bin/../lib/gcc/arm-none-eabi/10.3.1/../../../../arm-none-eabi/lib/thumb/v7e-m+fp/hard\libc_nano.a(lib_a-sbrkr.o)
 .debug_frame   0x0000409c       0x30 d:/stm32_vscode_bag/gnu/bin/../lib/gcc/arm-none-eabi/10.3.1/../../../../arm-none-eabi/lib/thumb/v7e-m+fp/hard\libc_nano.a(lib_a-mlock.o)
 .debug_frame   0x000040cc       0x20 d:/stm32_vscode_bag/gnu/bin/../lib/gcc/arm-none-eabi/10.3.1/../../../../arm-none-eabi/lib/thumb/v7e-m+fp/hard\libc_nano.a(lib_a-nano-msizer.o)
 .debug_frame   0x000040ec       0x5c d:/stm32_vscode_bag/gnu/bin/../lib/gcc/arm-none-eabi/10.3.1/../../../../arm-none-eabi/lib/thumb/v7e-m+fp/hard\libc_nano.a(lib_a-reent.o)
 .debug_frame   0x00004148       0xb0 d:/stm32_vscode_bag/gnu/bin/../lib/gcc/arm-none-eabi/10.3.1/../../../../arm-none-eabi/lib/thumb/v7e-m+fp/hard\libc_nano.a(lib_a-lock.o)
 .debug_frame   0x000041f8       0x30 d:/stm32_vscode_bag/gnu/bin/../lib/gcc/arm-none-eabi/10.3.1/thumb/v7e-m+fp/hard\libgcc.a(_arm_muldf3.o)
 .debug_frame   0x00004228       0xac d:/stm32_vscode_bag/gnu/bin/../lib/gcc/arm-none-eabi/10.3.1/thumb/v7e-m+fp/hard\libgcc.a(_arm_addsubdf3.o)
 .debug_frame   0x000042d4       0xc4 d:/stm32_vscode_bag/gnu/bin/../lib/gcc/arm-none-eabi/10.3.1/thumb/v7e-m+fp/hard\libgcc.a(_arm_cmpdf2.o)
 .debug_frame   0x00004398       0x24 d:/stm32_vscode_bag/gnu/bin/../lib/gcc/arm-none-eabi/10.3.1/thumb/v7e-m+fp/hard\libgcc.a(_arm_fixunsdfsi.o)
 .debug_frame   0x000043bc       0x2c d:/stm32_vscode_bag/gnu/bin/../lib/gcc/arm-none-eabi/10.3.1/thumb/v7e-m+fp/hard\libgcc.a(_aeabi_uldivmod.o)
 .debug_frame   0x000043e8       0x34 d:/stm32_vscode_bag/gnu/bin/../lib/gcc/arm-none-eabi/10.3.1/thumb/v7e-m+fp/hard\libgcc.a(_udivmoddi4.o)

Cross Reference Table

Symbol                                            File
ADC1_2_IRQHandler                                 build/startup_stm32g431xx.o
AHBPrescTable                                     build/system_stm32g4xx.o
                                                  build/stm32g4xx_hal_rcc.o
APBPrescTable                                     build/system_stm32g4xx.o
                                                  build/stm32g4xx_hal_rcc.o
BMP1                                              build/oledfont.o
BusFault_Handler                                  build/stm32g4xx_it.o
CMD_Data                                          build/oled.o
COMP1_2_3_IRQHandler                              build/startup_stm32g431xx.o
COMP4_IRQHandler                                  build/startup_stm32g431xx.o
CORDIC_IRQHandler                                 build/startup_stm32g431xx.o
CRS_IRQHandler                                    build/startup_stm32g431xx.o
Car_on_off                                        build/Variable.o
CenterLocate_angleX                               build/Servo_Move.o
CenterLocate_angleY                               build/Servo_Move.o
DMA1_Channel1_IRQHandler                          build/stm32g4xx_it.o
DMA1_Channel2_IRQHandler                          build/startup_stm32g431xx.o
DMA1_Channel3_IRQHandler                          build/startup_stm32g431xx.o
DMA1_Channel4_IRQHandler                          build/startup_stm32g431xx.o
DMA1_Channel5_IRQHandler                          build/startup_stm32g431xx.o
DMA1_Channel6_IRQHandler                          build/startup_stm32g431xx.o
DMA2_Channel1_IRQHandler                          build/startup_stm32g431xx.o
DMA2_Channel2_IRQHandler                          build/startup_stm32g431xx.o
DMA2_Channel3_IRQHandler                          build/startup_stm32g431xx.o
DMA2_Channel4_IRQHandler                          build/startup_stm32g431xx.o
DMA2_Channel5_IRQHandler                          build/startup_stm32g431xx.o
DMA2_Channel6_IRQHandler                          build/startup_stm32g431xx.o
DMAMUX_OVR_IRQHandler                             build/startup_stm32g431xx.o
Data_BitNum                                       build/Variable.o
                                                  build/Master_PC.o
                                                  build/main.o
Data_FinishGet                                    build/main.o
                                                  build/oled.o
                                                  build/Servo_Move.o
Data_StartGet                                     build/main.o
                                                  build/oled.o
                                                  build/Servo_Move.o
DebugMon_Handler                                  build/stm32g4xx_it.o
Default_Handler                                   build/startup_stm32g431xx.o
Delay_time                                        build/Servo_Move.o
EXTI0_IRQHandler                                  build/startup_stm32g431xx.o
EXTI15_10_IRQHandler                              build/startup_stm32g431xx.o
EXTI1_IRQHandler                                  build/startup_stm32g431xx.o
EXTI2_IRQHandler                                  build/startup_stm32g431xx.o
EXTI3_IRQHandler                                  build/startup_stm32g431xx.o
EXTI4_IRQHandler                                  build/startup_stm32g431xx.o
EXTI9_5_IRQHandler                                build/startup_stm32g431xx.o
Error_Handler                                     build/main.o
                                                  build/usart.o
                                                  build/tim.o
                                                  build/i2c.o
F6x8                                              build/oledfont.o
                                                  build/oled.o
F8X16                                             build/oledfont.o
                                                  build/oled.o
FDCAN1_IT0_IRQHandler                             build/startup_stm32g431xx.o
FDCAN1_IT1_IRQHandler                             build/startup_stm32g431xx.o
FLASH_FlushCaches                                 build/stm32g4xx_hal_flash_ex.o
                                                  build/stm32g4xx_hal_flash.o
FLASH_IRQHandler                                  build/startup_stm32g431xx.o
FLASH_PageErase                                   build/stm32g4xx_hal_flash_ex.o
                                                  build/stm32g4xx_hal_flash.o
FLASH_WaitForLastOperation                        build/stm32g4xx_hal_flash.o
                                                  build/stm32g4xx_hal_flash_ex.o
FMAC_IRQHandler                                   build/startup_stm32g431xx.o
FPU_IRQHandler                                    build/startup_stm32g431xx.o
FinishRectangle_Flag                              build/main.o
                                                  build/Servo_Move.o
GET_RECTANGLE_menu                                build/oled.o
                                                  build/main.o
GetOriginData_Flag                                build/oled.o
                                                  build/Servo_Move.o
Get_LaserXY_ALLtime                               build/Servo_Move.o
Get_On_or_off                                     build/Variable.o
                                                  build/main.o
Get_On_or_off_Rxflag                              build/Master_PC.o
Get_RectangleXY                                   build/Servo_Move.o
                                                  build/oled.o
Get_Vofa_RxData                                   build/Variable.o
                                                  build/Servo_Move.o
                                                  build/main.o
Get_id_Flag_1                                     build/Master_PC.o
                                                  build/Servo_Move.o
Get_id_Flag_2                                     build/Master_PC.o
                                                  build/Servo_Move.o
Get_vofa_PID_Rxflag                               build/Master_PC.o
                                                  build/Servo_Move.o
HAL_DBGMCU_DisableDBGSleepMode                    build/stm32g4xx_hal.o
HAL_DBGMCU_DisableDBGStandbyMode                  build/stm32g4xx_hal.o
HAL_DBGMCU_DisableDBGStopMode                     build/stm32g4xx_hal.o
HAL_DBGMCU_EnableDBGSleepMode                     build/stm32g4xx_hal.o
HAL_DBGMCU_EnableDBGStandbyMode                   build/stm32g4xx_hal.o
HAL_DBGMCU_EnableDBGStopMode                      build/stm32g4xx_hal.o
HAL_DMAEx_ConfigMuxRequestGenerator               build/stm32g4xx_hal_dma_ex.o
HAL_DMAEx_ConfigMuxSync                           build/stm32g4xx_hal_dma_ex.o
HAL_DMAEx_DisableMuxRequestGenerator              build/stm32g4xx_hal_dma_ex.o
HAL_DMAEx_EnableMuxRequestGenerator               build/stm32g4xx_hal_dma_ex.o
HAL_DMAEx_MUX_IRQHandler                          build/stm32g4xx_hal_dma_ex.o
HAL_DMA_Abort                                     build/stm32g4xx_hal_dma.o
                                                  build/stm32g4xx_hal_uart.o
HAL_DMA_Abort_IT                                  build/stm32g4xx_hal_dma.o
                                                  build/stm32g4xx_hal_uart.o
                                                  build/stm32g4xx_hal_tim_ex.o
                                                  build/stm32g4xx_hal_tim.o
                                                  build/stm32g4xx_hal_i2c.o
HAL_DMA_DeInit                                    build/stm32g4xx_hal_dma.o
                                                  build/usart.o
HAL_DMA_GetError                                  build/stm32g4xx_hal_dma.o
                                                  build/stm32g4xx_hal_uart.o
HAL_DMA_GetState                                  build/stm32g4xx_hal_dma.o
                                                  build/stm32g4xx_hal_i2c.o
HAL_DMA_IRQHandler                                build/stm32g4xx_hal_dma.o
                                                  build/stm32g4xx_it.o
HAL_DMA_Init                                      build/stm32g4xx_hal_dma.o
                                                  build/usart.o
HAL_DMA_PollForTransfer                           build/stm32g4xx_hal_dma.o
HAL_DMA_RegisterCallback                          build/stm32g4xx_hal_dma.o
HAL_DMA_Start                                     build/stm32g4xx_hal_dma.o
HAL_DMA_Start_IT                                  build/stm32g4xx_hal_dma.o
                                                  build/stm32g4xx_hal_uart.o
                                                  build/stm32g4xx_hal_tim_ex.o
                                                  build/stm32g4xx_hal_tim.o
                                                  build/stm32g4xx_hal_i2c.o
HAL_DMA_UnRegisterCallback                        build/stm32g4xx_hal_dma.o
HAL_DeInit                                        build/stm32g4xx_hal.o
HAL_Delay                                         build/stm32g4xx_hal.o
                                                  build/oled.o
                                                  build/Servo_Move.o
HAL_EXTI_ClearConfigLine                          build/stm32g4xx_hal_exti.o
HAL_EXTI_ClearPending                             build/stm32g4xx_hal_exti.o
HAL_EXTI_GenerateSWI                              build/stm32g4xx_hal_exti.o
HAL_EXTI_GetConfigLine                            build/stm32g4xx_hal_exti.o
HAL_EXTI_GetHandle                                build/stm32g4xx_hal_exti.o
HAL_EXTI_GetPending                               build/stm32g4xx_hal_exti.o
HAL_EXTI_IRQHandler                               build/stm32g4xx_hal_exti.o
HAL_EXTI_RegisterCallback                         build/stm32g4xx_hal_exti.o
HAL_EXTI_SetConfigLine                            build/stm32g4xx_hal_exti.o
HAL_FLASHEx_DisableDebugger                       build/stm32g4xx_hal_flash_ex.o
HAL_FLASHEx_DisableRunPowerDown                   build/stm32g4xx_hal_flash_ramfunc.o
HAL_FLASHEx_EnableDebugger                        build/stm32g4xx_hal_flash_ex.o
HAL_FLASHEx_EnableRunPowerDown                    build/stm32g4xx_hal_flash_ramfunc.o
HAL_FLASHEx_EnableSecMemProtection                build/stm32g4xx_hal_flash_ex.o
HAL_FLASHEx_Erase                                 build/stm32g4xx_hal_flash_ex.o
HAL_FLASHEx_Erase_IT                              build/stm32g4xx_hal_flash_ex.o
HAL_FLASHEx_OBGetConfig                           build/stm32g4xx_hal_flash_ex.o
HAL_FLASHEx_OBProgram                             build/stm32g4xx_hal_flash_ex.o
HAL_FLASH_EndOfOperationCallback                  build/stm32g4xx_hal_flash.o
HAL_FLASH_GetError                                build/stm32g4xx_hal_flash.o
HAL_FLASH_IRQHandler                              build/stm32g4xx_hal_flash.o
HAL_FLASH_Lock                                    build/stm32g4xx_hal_flash.o
HAL_FLASH_OB_Launch                               build/stm32g4xx_hal_flash.o
HAL_FLASH_OB_Lock                                 build/stm32g4xx_hal_flash.o
HAL_FLASH_OB_Unlock                               build/stm32g4xx_hal_flash.o
HAL_FLASH_OperationErrorCallback                  build/stm32g4xx_hal_flash.o
HAL_FLASH_Program                                 build/stm32g4xx_hal_flash.o
HAL_FLASH_Program_IT                              build/stm32g4xx_hal_flash.o
HAL_FLASH_Unlock                                  build/stm32g4xx_hal_flash.o
HAL_GPIO_DeInit                                   build/stm32g4xx_hal_gpio.o
                                                  build/usart.o
                                                  build/i2c.o
HAL_GPIO_EXTI_Callback                            build/stm32g4xx_hal_gpio.o
HAL_GPIO_EXTI_IRQHandler                          build/stm32g4xx_hal_gpio.o
HAL_GPIO_Init                                     build/stm32g4xx_hal_gpio.o
                                                  build/stm32g4xx_hal_rcc_ex.o
                                                  build/stm32g4xx_hal_rcc.o
                                                  build/usart.o
                                                  build/i2c.o
                                                  build/gpio.o
HAL_GPIO_LockPin                                  build/stm32g4xx_hal_gpio.o
HAL_GPIO_ReadPin                                  build/stm32g4xx_hal_gpio.o
                                                  build/My_KeyBoard.o
HAL_GPIO_TogglePin                                build/stm32g4xx_hal_gpio.o
HAL_GPIO_WritePin                                 build/stm32g4xx_hal_gpio.o
                                                  build/My_KeyBoard.o
                                                  build/gpio.o
                                                  build/main.o
HAL_GetDEVID                                      build/stm32g4xx_hal.o
HAL_GetHalVersion                                 build/stm32g4xx_hal.o
HAL_GetREVID                                      build/stm32g4xx_hal.o
HAL_GetTick                                       build/stm32g4xx_hal.o
                                                  build/stm32g4xx_hal_uart_ex.o
                                                  build/stm32g4xx_hal_uart.o
                                                  build/stm32g4xx_hal_tim_ex.o
                                                  build/stm32g4xx_hal_dma.o
                                                  build/stm32g4xx_hal_flash.o
                                                  build/stm32g4xx_hal_rcc_ex.o
                                                  build/stm32g4xx_hal_rcc.o
                                                  build/stm32g4xx_hal_i2c.o
HAL_GetTickFreq                                   build/stm32g4xx_hal.o
HAL_GetTickPrio                                   build/stm32g4xx_hal.o
HAL_GetUIDw0                                      build/stm32g4xx_hal.o
HAL_GetUIDw1                                      build/stm32g4xx_hal.o
HAL_GetUIDw2                                      build/stm32g4xx_hal.o
HAL_HalfDuplex_EnableReceiver                     build/stm32g4xx_hal_uart.o
HAL_HalfDuplex_EnableTransmitter                  build/stm32g4xx_hal_uart.o
HAL_HalfDuplex_Init                               build/stm32g4xx_hal_uart.o
HAL_I2CEx_ConfigAnalogFilter                      build/stm32g4xx_hal_i2c_ex.o
                                                  build/i2c.o
HAL_I2CEx_ConfigDigitalFilter                     build/stm32g4xx_hal_i2c_ex.o
                                                  build/i2c.o
HAL_I2CEx_DisableFastModePlus                     build/stm32g4xx_hal_i2c_ex.o
HAL_I2CEx_DisableWakeUp                           build/stm32g4xx_hal_i2c_ex.o
HAL_I2CEx_EnableFastModePlus                      build/stm32g4xx_hal_i2c_ex.o
                                                  build/i2c.o
HAL_I2CEx_EnableWakeUp                            build/stm32g4xx_hal_i2c_ex.o
HAL_I2C_AbortCpltCallback                         build/stm32g4xx_hal_i2c.o
HAL_I2C_AddrCallback                              build/stm32g4xx_hal_i2c.o
HAL_I2C_DeInit                                    build/stm32g4xx_hal_i2c.o
HAL_I2C_DisableListen_IT                          build/stm32g4xx_hal_i2c.o
HAL_I2C_ER_IRQHandler                             build/stm32g4xx_hal_i2c.o
HAL_I2C_EV_IRQHandler                             build/stm32g4xx_hal_i2c.o
HAL_I2C_EnableListen_IT                           build/stm32g4xx_hal_i2c.o
HAL_I2C_ErrorCallback                             build/stm32g4xx_hal_i2c.o
HAL_I2C_GetError                                  build/stm32g4xx_hal_i2c.o
HAL_I2C_GetMode                                   build/stm32g4xx_hal_i2c.o
HAL_I2C_GetState                                  build/stm32g4xx_hal_i2c.o
HAL_I2C_Init                                      build/stm32g4xx_hal_i2c.o
                                                  build/i2c.o
HAL_I2C_IsDeviceReady                             build/stm32g4xx_hal_i2c.o
HAL_I2C_ListenCpltCallback                        build/stm32g4xx_hal_i2c.o
HAL_I2C_MasterRxCpltCallback                      build/stm32g4xx_hal_i2c.o
HAL_I2C_MasterTxCpltCallback                      build/stm32g4xx_hal_i2c.o
HAL_I2C_Master_Abort_IT                           build/stm32g4xx_hal_i2c.o
HAL_I2C_Master_Receive                            build/stm32g4xx_hal_i2c.o
HAL_I2C_Master_Receive_DMA                        build/stm32g4xx_hal_i2c.o
HAL_I2C_Master_Receive_IT                         build/stm32g4xx_hal_i2c.o
HAL_I2C_Master_Seq_Receive_DMA                    build/stm32g4xx_hal_i2c.o
HAL_I2C_Master_Seq_Receive_IT                     build/stm32g4xx_hal_i2c.o
HAL_I2C_Master_Seq_Transmit_DMA                   build/stm32g4xx_hal_i2c.o
HAL_I2C_Master_Seq_Transmit_IT                    build/stm32g4xx_hal_i2c.o
HAL_I2C_Master_Transmit                           build/stm32g4xx_hal_i2c.o
HAL_I2C_Master_Transmit_DMA                       build/stm32g4xx_hal_i2c.o
HAL_I2C_Master_Transmit_IT                        build/stm32g4xx_hal_i2c.o
HAL_I2C_MemRxCpltCallback                         build/stm32g4xx_hal_i2c.o
HAL_I2C_MemTxCpltCallback                         build/stm32g4xx_hal_i2c.o
HAL_I2C_Mem_Read                                  build/stm32g4xx_hal_i2c.o
HAL_I2C_Mem_Read_DMA                              build/stm32g4xx_hal_i2c.o
HAL_I2C_Mem_Read_IT                               build/stm32g4xx_hal_i2c.o
HAL_I2C_Mem_Write                                 build/stm32g4xx_hal_i2c.o
                                                  build/oled.o
HAL_I2C_Mem_Write_DMA                             build/stm32g4xx_hal_i2c.o
HAL_I2C_Mem_Write_IT                              build/stm32g4xx_hal_i2c.o
HAL_I2C_MspDeInit                                 build/i2c.o
HAL_I2C_MspInit                                   build/i2c.o
HAL_I2C_SlaveRxCpltCallback                       build/stm32g4xx_hal_i2c.o
HAL_I2C_SlaveTxCpltCallback                       build/stm32g4xx_hal_i2c.o
HAL_I2C_Slave_Receive                             build/stm32g4xx_hal_i2c.o
HAL_I2C_Slave_Receive_DMA                         build/stm32g4xx_hal_i2c.o
HAL_I2C_Slave_Receive_IT                          build/stm32g4xx_hal_i2c.o
HAL_I2C_Slave_Seq_Receive_DMA                     build/stm32g4xx_hal_i2c.o
HAL_I2C_Slave_Seq_Receive_IT                      build/stm32g4xx_hal_i2c.o
HAL_I2C_Slave_Seq_Transmit_DMA                    build/stm32g4xx_hal_i2c.o
HAL_I2C_Slave_Seq_Transmit_IT                     build/stm32g4xx_hal_i2c.o
HAL_I2C_Slave_Transmit                            build/stm32g4xx_hal_i2c.o
HAL_I2C_Slave_Transmit_DMA                        build/stm32g4xx_hal_i2c.o
HAL_I2C_Slave_Transmit_IT                         build/stm32g4xx_hal_i2c.o
HAL_IncTick                                       build/stm32g4xx_hal.o
                                                  build/stm32g4xx_it.o
HAL_Init                                          build/stm32g4xx_hal.o
                                                  build/main.o
HAL_InitTick                                      build/stm32g4xx_hal.o
                                                  build/stm32g4xx_hal_rcc.o
HAL_LIN_Init                                      build/stm32g4xx_hal_uart.o
HAL_LIN_SendBreak                                 build/stm32g4xx_hal_uart.o
HAL_MPU_ConfigRegion                              build/stm32g4xx_hal_cortex.o
HAL_MPU_Disable                                   build/stm32g4xx_hal_cortex.o
HAL_MPU_DisableRegion                             build/stm32g4xx_hal_cortex.o
HAL_MPU_Enable                                    build/stm32g4xx_hal_cortex.o
HAL_MPU_EnableRegion                              build/stm32g4xx_hal_cortex.o
HAL_MspDeInit                                     build/stm32g4xx_hal.o
HAL_MspInit                                       build/stm32g4xx_hal_msp.o
HAL_MultiProcessorEx_AddressLength_Set            build/stm32g4xx_hal_uart_ex.o
HAL_MultiProcessor_DisableMuteMode                build/stm32g4xx_hal_uart.o
HAL_MultiProcessor_EnableMuteMode                 build/stm32g4xx_hal_uart.o
HAL_MultiProcessor_EnterMuteMode                  build/stm32g4xx_hal_uart.o
HAL_MultiProcessor_Init                           build/stm32g4xx_hal_uart.o
HAL_NVIC_ClearPendingIRQ                          build/stm32g4xx_hal_cortex.o
HAL_NVIC_DisableIRQ                               build/stm32g4xx_hal_cortex.o
                                                  build/usart.o
                                                  build/tim.o
HAL_NVIC_EnableIRQ                                build/stm32g4xx_hal_cortex.o
                                                  build/usart.o
                                                  build/tim.o
                                                  build/dma.o
HAL_NVIC_GetActive                                build/stm32g4xx_hal_cortex.o
HAL_NVIC_GetPendingIRQ                            build/stm32g4xx_hal_cortex.o
HAL_NVIC_GetPriority                              build/stm32g4xx_hal_cortex.o
HAL_NVIC_GetPriorityGrouping                      build/stm32g4xx_hal_cortex.o
HAL_NVIC_SetPendingIRQ                            build/stm32g4xx_hal_cortex.o
HAL_NVIC_SetPriority                              build/stm32g4xx_hal_cortex.o
                                                  build/stm32g4xx_hal.o
                                                  build/usart.o
                                                  build/tim.o
                                                  build/dma.o
HAL_NVIC_SetPriorityGrouping                      build/stm32g4xx_hal_cortex.o
                                                  build/stm32g4xx_hal.o
HAL_NVIC_SystemReset                              build/stm32g4xx_hal_cortex.o
HAL_PWREx_ConfigPVM                               build/stm32g4xx_hal_pwr_ex.o
HAL_PWREx_ControlVoltageScaling                   build/stm32g4xx_hal_pwr_ex.o
                                                  build/main.o
HAL_PWREx_DisableBatteryCharging                  build/stm32g4xx_hal_pwr_ex.o
HAL_PWREx_DisableGPIOPullDown                     build/stm32g4xx_hal_pwr_ex.o
HAL_PWREx_DisableGPIOPullUp                       build/stm32g4xx_hal_pwr_ex.o
HAL_PWREx_DisableInternalWakeUpLine               build/stm32g4xx_hal_pwr_ex.o
HAL_PWREx_DisableLowPowerRunMode                  build/stm32g4xx_hal_pwr_ex.o
                                                  build/stm32g4xx_hal_pwr.o
HAL_PWREx_DisablePVM1                             build/stm32g4xx_hal_pwr_ex.o
HAL_PWREx_DisablePVM2                             build/stm32g4xx_hal_pwr_ex.o
HAL_PWREx_DisablePVM3                             build/stm32g4xx_hal_pwr_ex.o
HAL_PWREx_DisablePVM4                             build/stm32g4xx_hal_pwr_ex.o
HAL_PWREx_DisablePullUpPullDownConfig             build/stm32g4xx_hal_pwr_ex.o
HAL_PWREx_DisableSRAM2ContentRetention            build/stm32g4xx_hal_pwr_ex.o
HAL_PWREx_DisableUCPDDeadBattery                  build/stm32g4xx_hal_pwr_ex.o
                                                  build/stm32g4xx_hal_msp.o
HAL_PWREx_DisableUCPDStandbyMode                  build/stm32g4xx_hal_pwr_ex.o
HAL_PWREx_EnableBatteryCharging                   build/stm32g4xx_hal_pwr_ex.o
HAL_PWREx_EnableGPIOPullDown                      build/stm32g4xx_hal_pwr_ex.o
HAL_PWREx_EnableGPIOPullUp                        build/stm32g4xx_hal_pwr_ex.o
HAL_PWREx_EnableInternalWakeUpLine                build/stm32g4xx_hal_pwr_ex.o
HAL_PWREx_EnableLowPowerRunMode                   build/stm32g4xx_hal_pwr_ex.o
                                                  build/stm32g4xx_hal_pwr.o
HAL_PWREx_EnablePVM1                              build/stm32g4xx_hal_pwr_ex.o
HAL_PWREx_EnablePVM2                              build/stm32g4xx_hal_pwr_ex.o
HAL_PWREx_EnablePVM3                              build/stm32g4xx_hal_pwr_ex.o
HAL_PWREx_EnablePVM4                              build/stm32g4xx_hal_pwr_ex.o
HAL_PWREx_EnablePullUpPullDownConfig              build/stm32g4xx_hal_pwr_ex.o
HAL_PWREx_EnableSRAM2ContentRetention             build/stm32g4xx_hal_pwr_ex.o
HAL_PWREx_EnableUCPDDeadBattery                   build/stm32g4xx_hal_pwr_ex.o
HAL_PWREx_EnableUCPDStandbyMode                   build/stm32g4xx_hal_pwr_ex.o
HAL_PWREx_EnterSHUTDOWNMode                       build/stm32g4xx_hal_pwr_ex.o
HAL_PWREx_EnterSTOP0Mode                          build/stm32g4xx_hal_pwr_ex.o
                                                  build/stm32g4xx_hal_pwr.o
HAL_PWREx_EnterSTOP1Mode                          build/stm32g4xx_hal_pwr_ex.o
                                                  build/stm32g4xx_hal_pwr.o
HAL_PWREx_GetVoltageRange                         build/stm32g4xx_hal_pwr_ex.o
HAL_PWREx_PVD_PVM_IRQHandler                      build/stm32g4xx_hal_pwr_ex.o
HAL_PWREx_PVM1Callback                            build/stm32g4xx_hal_pwr_ex.o
HAL_PWREx_PVM2Callback                            build/stm32g4xx_hal_pwr_ex.o
HAL_PWREx_PVM3Callback                            build/stm32g4xx_hal_pwr_ex.o
HAL_PWREx_PVM4Callback                            build/stm32g4xx_hal_pwr_ex.o
HAL_PWR_ConfigPVD                                 build/stm32g4xx_hal_pwr.o
HAL_PWR_DeInit                                    build/stm32g4xx_hal_pwr.o
HAL_PWR_DisableBkUpAccess                         build/stm32g4xx_hal_pwr.o
                                                  build/stm32g4xx_hal_rcc_ex.o
HAL_PWR_DisablePVD                                build/stm32g4xx_hal_pwr.o
HAL_PWR_DisableSEVOnPend                          build/stm32g4xx_hal_pwr.o
HAL_PWR_DisableSleepOnExit                        build/stm32g4xx_hal_pwr.o
HAL_PWR_DisableWakeUpPin                          build/stm32g4xx_hal_pwr.o
HAL_PWR_EnableBkUpAccess                          build/stm32g4xx_hal_pwr.o
                                                  build/stm32g4xx_hal_rcc_ex.o
HAL_PWR_EnablePVD                                 build/stm32g4xx_hal_pwr.o
HAL_PWR_EnableSEVOnPend                           build/stm32g4xx_hal_pwr.o
HAL_PWR_EnableSleepOnExit                         build/stm32g4xx_hal_pwr.o
HAL_PWR_EnableWakeUpPin                           build/stm32g4xx_hal_pwr.o
HAL_PWR_EnterSLEEPMode                            build/stm32g4xx_hal_pwr.o
HAL_PWR_EnterSTANDBYMode                          build/stm32g4xx_hal_pwr.o
HAL_PWR_EnterSTOPMode                             build/stm32g4xx_hal_pwr.o
HAL_PWR_PVDCallback                               build/stm32g4xx_hal_pwr.o
                                                  build/stm32g4xx_hal_pwr_ex.o
HAL_RCCEx_CRSConfig                               build/stm32g4xx_hal_rcc_ex.o
HAL_RCCEx_CRSGetSynchronizationInfo               build/stm32g4xx_hal_rcc_ex.o
HAL_RCCEx_CRSSoftwareSynchronizationGenerate      build/stm32g4xx_hal_rcc_ex.o
HAL_RCCEx_CRSWaitSynchronization                  build/stm32g4xx_hal_rcc_ex.o
HAL_RCCEx_CRS_ErrorCallback                       build/stm32g4xx_hal_rcc_ex.o
HAL_RCCEx_CRS_ExpectedSyncCallback                build/stm32g4xx_hal_rcc_ex.o
HAL_RCCEx_CRS_IRQHandler                          build/stm32g4xx_hal_rcc_ex.o
HAL_RCCEx_CRS_SyncOkCallback                      build/stm32g4xx_hal_rcc_ex.o
HAL_RCCEx_CRS_SyncWarnCallback                    build/stm32g4xx_hal_rcc_ex.o
HAL_RCCEx_DisableLSCO                             build/stm32g4xx_hal_rcc_ex.o
HAL_RCCEx_DisableLSECSS                           build/stm32g4xx_hal_rcc_ex.o
HAL_RCCEx_EnableLSCO                              build/stm32g4xx_hal_rcc_ex.o
HAL_RCCEx_EnableLSECSS                            build/stm32g4xx_hal_rcc_ex.o
HAL_RCCEx_EnableLSECSS_IT                         build/stm32g4xx_hal_rcc_ex.o
HAL_RCCEx_GetPeriphCLKConfig                      build/stm32g4xx_hal_rcc_ex.o
HAL_RCCEx_GetPeriphCLKFreq                        build/stm32g4xx_hal_rcc_ex.o
HAL_RCCEx_LSECSS_Callback                         build/stm32g4xx_hal_rcc_ex.o
HAL_RCCEx_LSECSS_IRQHandler                       build/stm32g4xx_hal_rcc_ex.o
HAL_RCCEx_PeriphCLKConfig                         build/stm32g4xx_hal_rcc_ex.o
                                                  build/usart.o
                                                  build/i2c.o
HAL_RCC_CSSCallback                               build/stm32g4xx_hal_rcc.o
HAL_RCC_ClockConfig                               build/stm32g4xx_hal_rcc.o
                                                  build/main.o
HAL_RCC_DeInit                                    build/stm32g4xx_hal_rcc.o
HAL_RCC_DisableLSECSS                             build/stm32g4xx_hal_rcc.o
HAL_RCC_EnableCSS                                 build/stm32g4xx_hal_rcc.o
HAL_RCC_EnableLSECSS                              build/stm32g4xx_hal_rcc.o
HAL_RCC_GetClockConfig                            build/stm32g4xx_hal_rcc.o
HAL_RCC_GetHCLKFreq                               build/stm32g4xx_hal_rcc.o
HAL_RCC_GetOscConfig                              build/stm32g4xx_hal_rcc.o
HAL_RCC_GetPCLK1Freq                              build/stm32g4xx_hal_rcc.o
                                                  build/stm32g4xx_hal_uart.o
                                                  build/stm32g4xx_hal_rcc_ex.o
HAL_RCC_GetPCLK2Freq                              build/stm32g4xx_hal_rcc.o
                                                  build/stm32g4xx_hal_uart.o
                                                  build/stm32g4xx_hal_rcc_ex.o
HAL_RCC_GetSysClockFreq                           build/stm32g4xx_hal_rcc.o
                                                  build/stm32g4xx_hal_uart.o
                                                  build/stm32g4xx_hal_rcc_ex.o
HAL_RCC_MCOConfig                                 build/stm32g4xx_hal_rcc.o
HAL_RCC_NMI_IRQHandler                            build/stm32g4xx_hal_rcc.o
HAL_RCC_OscConfig                                 build/stm32g4xx_hal_rcc.o
                                                  build/main.o
HAL_RS485Ex_Init                                  build/stm32g4xx_hal_uart_ex.o
HAL_ResumeTick                                    build/stm32g4xx_hal.o
HAL_SYSCFG_CCMSRAMErase                           build/stm32g4xx_hal.o
HAL_SYSCFG_CCMSRAM_WriteProtectionEnable          build/stm32g4xx_hal.o
HAL_SYSCFG_DisableIOSwitchBooster                 build/stm32g4xx_hal.o
HAL_SYSCFG_DisableIOSwitchVDD                     build/stm32g4xx_hal.o
HAL_SYSCFG_DisableMemorySwappingBank              build/stm32g4xx_hal.o
HAL_SYSCFG_DisableVREFBUF                         build/stm32g4xx_hal.o
HAL_SYSCFG_EnableIOSwitchBooster                  build/stm32g4xx_hal.o
HAL_SYSCFG_EnableIOSwitchVDD                      build/stm32g4xx_hal.o
HAL_SYSCFG_EnableMemorySwappingBank               build/stm32g4xx_hal.o
HAL_SYSCFG_EnableVREFBUF                          build/stm32g4xx_hal.o
HAL_SYSCFG_VREFBUF_HighImpedanceConfig            build/stm32g4xx_hal.o
HAL_SYSCFG_VREFBUF_TrimmingConfig                 build/stm32g4xx_hal.o
HAL_SYSCFG_VREFBUF_VoltageScalingConfig           build/stm32g4xx_hal.o
HAL_SYSTICK_CLKSourceConfig                       build/stm32g4xx_hal_cortex.o
HAL_SYSTICK_Callback                              build/stm32g4xx_hal_cortex.o
HAL_SYSTICK_Config                                build/stm32g4xx_hal_cortex.o
                                                  build/stm32g4xx_hal.o
HAL_SYSTICK_IRQHandler                            build/stm32g4xx_hal_cortex.o
HAL_SetTickFreq                                   build/stm32g4xx_hal.o
HAL_SuspendTick                                   build/stm32g4xx_hal.o
HAL_TIMEx_Break2Callback                          build/stm32g4xx_hal_tim_ex.o
                                                  build/stm32g4xx_hal_tim.o
HAL_TIMEx_BreakCallback                           build/stm32g4xx_hal_tim_ex.o
                                                  build/stm32g4xx_hal_tim.o
HAL_TIMEx_CommutCallback                          build/stm32g4xx_hal_tim_ex.o
                                                  build/stm32g4xx_hal_tim.o
HAL_TIMEx_CommutHalfCpltCallback                  build/stm32g4xx_hal_tim_ex.o
HAL_TIMEx_ConfigAsymmetricalDeadTime              build/stm32g4xx_hal_tim_ex.o
HAL_TIMEx_ConfigBreakDeadTime                     build/stm32g4xx_hal_tim_ex.o
HAL_TIMEx_ConfigBreakInput                        build/stm32g4xx_hal_tim_ex.o
HAL_TIMEx_ConfigCommutEvent                       build/stm32g4xx_hal_tim_ex.o
HAL_TIMEx_ConfigCommutEvent_DMA                   build/stm32g4xx_hal_tim_ex.o
HAL_TIMEx_ConfigCommutEvent_IT                    build/stm32g4xx_hal_tim_ex.o
HAL_TIMEx_ConfigDeadTime                          build/stm32g4xx_hal_tim_ex.o
HAL_TIMEx_ConfigEncoderIndex                      build/stm32g4xx_hal_tim_ex.o
HAL_TIMEx_ConfigSlaveModePreload                  build/stm32g4xx_hal_tim_ex.o
HAL_TIMEx_DirectionChangeCallback                 build/stm32g4xx_hal_tim_ex.o
                                                  build/stm32g4xx_hal_tim.o
HAL_TIMEx_DisableAsymmetricalDeadTime             build/stm32g4xx_hal_tim_ex.o
HAL_TIMEx_DisableDeadTimePreload                  build/stm32g4xx_hal_tim_ex.o
HAL_TIMEx_DisableEncoderFirstIndex                build/stm32g4xx_hal_tim_ex.o
HAL_TIMEx_DisableEncoderIndex                     build/stm32g4xx_hal_tim_ex.o
HAL_TIMEx_DisableSlaveModePreload                 build/stm32g4xx_hal_tim_ex.o
HAL_TIMEx_DisarmBreakInput                        build/stm32g4xx_hal_tim_ex.o
HAL_TIMEx_DitheringDisable                        build/stm32g4xx_hal_tim_ex.o
HAL_TIMEx_DitheringEnable                         build/stm32g4xx_hal_tim_ex.o
HAL_TIMEx_EnableAsymmetricalDeadTime              build/stm32g4xx_hal_tim_ex.o
HAL_TIMEx_EnableDeadTimePreload                   build/stm32g4xx_hal_tim_ex.o
HAL_TIMEx_EnableEncoderFirstIndex                 build/stm32g4xx_hal_tim_ex.o
HAL_TIMEx_EnableEncoderIndex                      build/stm32g4xx_hal_tim_ex.o
HAL_TIMEx_EnableSlaveModePreload                  build/stm32g4xx_hal_tim_ex.o
HAL_TIMEx_EncoderIndexCallback                    build/stm32g4xx_hal_tim_ex.o
                                                  build/stm32g4xx_hal_tim.o
HAL_TIMEx_GetChannelNState                        build/stm32g4xx_hal_tim_ex.o
HAL_TIMEx_GroupChannel5                           build/stm32g4xx_hal_tim_ex.o
HAL_TIMEx_HallSensor_DeInit                       build/stm32g4xx_hal_tim_ex.o
HAL_TIMEx_HallSensor_GetState                     build/stm32g4xx_hal_tim_ex.o
HAL_TIMEx_HallSensor_Init                         build/stm32g4xx_hal_tim_ex.o
HAL_TIMEx_HallSensor_MspDeInit                    build/stm32g4xx_hal_tim_ex.o
HAL_TIMEx_HallSensor_MspInit                      build/stm32g4xx_hal_tim_ex.o
HAL_TIMEx_HallSensor_Start                        build/stm32g4xx_hal_tim_ex.o
HAL_TIMEx_HallSensor_Start_DMA                    build/stm32g4xx_hal_tim_ex.o
HAL_TIMEx_HallSensor_Start_IT                     build/stm32g4xx_hal_tim_ex.o
HAL_TIMEx_HallSensor_Stop                         build/stm32g4xx_hal_tim_ex.o
HAL_TIMEx_HallSensor_Stop_DMA                     build/stm32g4xx_hal_tim_ex.o
HAL_TIMEx_HallSensor_Stop_IT                      build/stm32g4xx_hal_tim_ex.o
HAL_TIMEx_IndexErrorCallback                      build/stm32g4xx_hal_tim_ex.o
                                                  build/stm32g4xx_hal_tim.o
HAL_TIMEx_MasterConfigSynchronization             build/stm32g4xx_hal_tim_ex.o
                                                  build/tim.o
HAL_TIMEx_OCN_Start                               build/stm32g4xx_hal_tim_ex.o
HAL_TIMEx_OCN_Start_DMA                           build/stm32g4xx_hal_tim_ex.o
HAL_TIMEx_OCN_Start_IT                            build/stm32g4xx_hal_tim_ex.o
HAL_TIMEx_OCN_Stop                                build/stm32g4xx_hal_tim_ex.o
HAL_TIMEx_OCN_Stop_DMA                            build/stm32g4xx_hal_tim_ex.o
HAL_TIMEx_OCN_Stop_IT                             build/stm32g4xx_hal_tim_ex.o
HAL_TIMEx_OC_ConfigPulseOnCompare                 build/stm32g4xx_hal_tim_ex.o
HAL_TIMEx_OnePulseN_Start                         build/stm32g4xx_hal_tim_ex.o
HAL_TIMEx_OnePulseN_Start_IT                      build/stm32g4xx_hal_tim_ex.o
HAL_TIMEx_OnePulseN_Stop                          build/stm32g4xx_hal_tim_ex.o
HAL_TIMEx_OnePulseN_Stop_IT                       build/stm32g4xx_hal_tim_ex.o
HAL_TIMEx_PWMN_Start                              build/stm32g4xx_hal_tim_ex.o
HAL_TIMEx_PWMN_Start_DMA                          build/stm32g4xx_hal_tim_ex.o
HAL_TIMEx_PWMN_Start_IT                           build/stm32g4xx_hal_tim_ex.o
HAL_TIMEx_PWMN_Stop                               build/stm32g4xx_hal_tim_ex.o
HAL_TIMEx_PWMN_Stop_DMA                           build/stm32g4xx_hal_tim_ex.o
HAL_TIMEx_PWMN_Stop_IT                            build/stm32g4xx_hal_tim_ex.o
HAL_TIMEx_ReArmBreakInput                         build/stm32g4xx_hal_tim_ex.o
HAL_TIMEx_RemapConfig                             build/stm32g4xx_hal_tim_ex.o
HAL_TIMEx_TISelection                             build/stm32g4xx_hal_tim_ex.o
HAL_TIMEx_TransitionErrorCallback                 build/stm32g4xx_hal_tim_ex.o
                                                  build/stm32g4xx_hal_tim.o
HAL_TIM_Base_DeInit                               build/stm32g4xx_hal_tim.o
HAL_TIM_Base_GetState                             build/stm32g4xx_hal_tim.o
HAL_TIM_Base_Init                                 build/stm32g4xx_hal_tim.o
                                                  build/tim.o
HAL_TIM_Base_MspDeInit                            build/tim.o
HAL_TIM_Base_MspInit                              build/tim.o
HAL_TIM_Base_Start                                build/stm32g4xx_hal_tim.o
HAL_TIM_Base_Start_DMA                            build/stm32g4xx_hal_tim.o
HAL_TIM_Base_Start_IT                             build/stm32g4xx_hal_tim.o
                                                  build/Tick.o
                                                  build/My_KeyBoard.o
HAL_TIM_Base_Stop                                 build/stm32g4xx_hal_tim.o
HAL_TIM_Base_Stop_DMA                             build/stm32g4xx_hal_tim.o
HAL_TIM_Base_Stop_IT                              build/stm32g4xx_hal_tim.o
                                                  build/Tick.o
                                                  build/My_KeyBoard.o
HAL_TIM_ConfigClockSource                         build/stm32g4xx_hal_tim.o
HAL_TIM_ConfigOCrefClear                          build/stm32g4xx_hal_tim.o
HAL_TIM_ConfigTI1Input                            build/stm32g4xx_hal_tim.o
HAL_TIM_DMABurstState                             build/stm32g4xx_hal_tim.o
HAL_TIM_DMABurst_MultiReadStart                   build/stm32g4xx_hal_tim.o
HAL_TIM_DMABurst_MultiWriteStart                  build/stm32g4xx_hal_tim.o
HAL_TIM_DMABurst_ReadStart                        build/stm32g4xx_hal_tim.o
HAL_TIM_DMABurst_ReadStop                         build/stm32g4xx_hal_tim.o
HAL_TIM_DMABurst_WriteStart                       build/stm32g4xx_hal_tim.o
HAL_TIM_DMABurst_WriteStop                        build/stm32g4xx_hal_tim.o
HAL_TIM_Encoder_DeInit                            build/stm32g4xx_hal_tim.o
HAL_TIM_Encoder_GetState                          build/stm32g4xx_hal_tim.o
HAL_TIM_Encoder_Init                              build/stm32g4xx_hal_tim.o
HAL_TIM_Encoder_MspDeInit                         build/stm32g4xx_hal_tim.o
HAL_TIM_Encoder_MspInit                           build/stm32g4xx_hal_tim.o
HAL_TIM_Encoder_Start                             build/stm32g4xx_hal_tim.o
HAL_TIM_Encoder_Start_DMA                         build/stm32g4xx_hal_tim.o
HAL_TIM_Encoder_Start_IT                          build/stm32g4xx_hal_tim.o
HAL_TIM_Encoder_Stop                              build/stm32g4xx_hal_tim.o
HAL_TIM_Encoder_Stop_DMA                          build/stm32g4xx_hal_tim.o
HAL_TIM_Encoder_Stop_IT                           build/stm32g4xx_hal_tim.o
HAL_TIM_ErrorCallback                             build/stm32g4xx_hal_tim.o
                                                  build/stm32g4xx_hal_tim_ex.o
HAL_TIM_GenerateEvent                             build/stm32g4xx_hal_tim.o
HAL_TIM_GetActiveChannel                          build/stm32g4xx_hal_tim.o
HAL_TIM_GetChannelState                           build/stm32g4xx_hal_tim.o
HAL_TIM_IC_CaptureCallback                        build/stm32g4xx_hal_tim.o
HAL_TIM_IC_CaptureHalfCpltCallback                build/stm32g4xx_hal_tim.o
HAL_TIM_IC_ConfigChannel                          build/stm32g4xx_hal_tim.o
HAL_TIM_IC_DeInit                                 build/stm32g4xx_hal_tim.o
HAL_TIM_IC_GetState                               build/stm32g4xx_hal_tim.o
HAL_TIM_IC_Init                                   build/stm32g4xx_hal_tim.o
HAL_TIM_IC_MspDeInit                              build/stm32g4xx_hal_tim.o
HAL_TIM_IC_MspInit                                build/stm32g4xx_hal_tim.o
HAL_TIM_IC_Start                                  build/stm32g4xx_hal_tim.o
HAL_TIM_IC_Start_DMA                              build/stm32g4xx_hal_tim.o
HAL_TIM_IC_Start_IT                               build/stm32g4xx_hal_tim.o
HAL_TIM_IC_Stop                                   build/stm32g4xx_hal_tim.o
HAL_TIM_IC_Stop_DMA                               build/stm32g4xx_hal_tim.o
HAL_TIM_IC_Stop_IT                                build/stm32g4xx_hal_tim.o
HAL_TIM_IRQHandler                                build/stm32g4xx_hal_tim.o
                                                  build/stm32g4xx_it.o
HAL_TIM_OC_ConfigChannel                          build/stm32g4xx_hal_tim.o
HAL_TIM_OC_DeInit                                 build/stm32g4xx_hal_tim.o
HAL_TIM_OC_DelayElapsedCallback                   build/stm32g4xx_hal_tim.o
HAL_TIM_OC_GetState                               build/stm32g4xx_hal_tim.o
HAL_TIM_OC_Init                                   build/stm32g4xx_hal_tim.o
HAL_TIM_OC_MspDeInit                              build/stm32g4xx_hal_tim.o
HAL_TIM_OC_MspInit                                build/stm32g4xx_hal_tim.o
HAL_TIM_OC_Start                                  build/stm32g4xx_hal_tim.o
HAL_TIM_OC_Start_DMA                              build/stm32g4xx_hal_tim.o
HAL_TIM_OC_Start_IT                               build/stm32g4xx_hal_tim.o
HAL_TIM_OC_Stop                                   build/stm32g4xx_hal_tim.o
HAL_TIM_OC_Stop_DMA                               build/stm32g4xx_hal_tim.o
HAL_TIM_OC_Stop_IT                                build/stm32g4xx_hal_tim.o
HAL_TIM_OnePulse_ConfigChannel                    build/stm32g4xx_hal_tim.o
HAL_TIM_OnePulse_DeInit                           build/stm32g4xx_hal_tim.o
HAL_TIM_OnePulse_GetState                         build/stm32g4xx_hal_tim.o
HAL_TIM_OnePulse_Init                             build/stm32g4xx_hal_tim.o
HAL_TIM_OnePulse_MspDeInit                        build/stm32g4xx_hal_tim.o
HAL_TIM_OnePulse_MspInit                          build/stm32g4xx_hal_tim.o
HAL_TIM_OnePulse_Start                            build/stm32g4xx_hal_tim.o
HAL_TIM_OnePulse_Start_IT                         build/stm32g4xx_hal_tim.o
HAL_TIM_OnePulse_Stop                             build/stm32g4xx_hal_tim.o
HAL_TIM_OnePulse_Stop_IT                          build/stm32g4xx_hal_tim.o
HAL_TIM_PWM_ConfigChannel                         build/stm32g4xx_hal_tim.o
HAL_TIM_PWM_DeInit                                build/stm32g4xx_hal_tim.o
HAL_TIM_PWM_GetState                              build/stm32g4xx_hal_tim.o
HAL_TIM_PWM_Init                                  build/stm32g4xx_hal_tim.o
HAL_TIM_PWM_MspDeInit                             build/stm32g4xx_hal_tim.o
HAL_TIM_PWM_MspInit                               build/stm32g4xx_hal_tim.o
HAL_TIM_PWM_PulseFinishedCallback                 build/stm32g4xx_hal_tim.o
                                                  build/stm32g4xx_hal_tim_ex.o
HAL_TIM_PWM_PulseFinishedHalfCpltCallback         build/stm32g4xx_hal_tim.o
HAL_TIM_PWM_Start                                 build/stm32g4xx_hal_tim.o
HAL_TIM_PWM_Start_DMA                             build/stm32g4xx_hal_tim.o
HAL_TIM_PWM_Start_IT                              build/stm32g4xx_hal_tim.o
HAL_TIM_PWM_Stop                                  build/stm32g4xx_hal_tim.o
HAL_TIM_PWM_Stop_DMA                              build/stm32g4xx_hal_tim.o
HAL_TIM_PWM_Stop_IT                               build/stm32g4xx_hal_tim.o
HAL_TIM_PeriodElapsedCallback                     build/main.o
HAL_TIM_PeriodElapsedHalfCpltCallback             build/stm32g4xx_hal_tim.o
HAL_TIM_ReadCapturedValue                         build/stm32g4xx_hal_tim.o
HAL_TIM_SlaveConfigSynchro                        build/stm32g4xx_hal_tim.o
HAL_TIM_SlaveConfigSynchro_IT                     build/stm32g4xx_hal_tim.o
HAL_TIM_TriggerCallback                           build/stm32g4xx_hal_tim.o
HAL_TIM_TriggerHalfCpltCallback                   build/stm32g4xx_hal_tim.o
HAL_UARTEx_DisableFifoMode                        build/stm32g4xx_hal_uart_ex.o
                                                  build/usart.o
HAL_UARTEx_DisableStopMode                        build/stm32g4xx_hal_uart_ex.o
HAL_UARTEx_EnableFifoMode                         build/stm32g4xx_hal_uart_ex.o
HAL_UARTEx_EnableStopMode                         build/stm32g4xx_hal_uart_ex.o
HAL_UARTEx_GetRxEventType                         build/stm32g4xx_hal_uart_ex.o
HAL_UARTEx_ReceiveToIdle                          build/stm32g4xx_hal_uart_ex.o
HAL_UARTEx_ReceiveToIdle_DMA                      build/stm32g4xx_hal_uart_ex.o
HAL_UARTEx_ReceiveToIdle_IT                       build/stm32g4xx_hal_uart_ex.o
HAL_UARTEx_RxEventCallback                        build/stm32g4xx_hal_uart.o
HAL_UARTEx_RxFifoFullCallback                     build/stm32g4xx_hal_uart_ex.o
                                                  build/stm32g4xx_hal_uart.o
HAL_UARTEx_SetRxFifoThreshold                     build/stm32g4xx_hal_uart_ex.o
                                                  build/usart.o
HAL_UARTEx_SetTxFifoThreshold                     build/stm32g4xx_hal_uart_ex.o
                                                  build/usart.o
HAL_UARTEx_StopModeWakeUpSourceConfig             build/stm32g4xx_hal_uart_ex.o
HAL_UARTEx_TxFifoEmptyCallback                    build/stm32g4xx_hal_uart_ex.o
                                                  build/stm32g4xx_hal_uart.o
HAL_UARTEx_WakeupCallback                         build/stm32g4xx_hal_uart_ex.o
                                                  build/stm32g4xx_hal_uart.o
HAL_UART_Abort                                    build/stm32g4xx_hal_uart.o
HAL_UART_AbortCpltCallback                        build/stm32g4xx_hal_uart.o
HAL_UART_AbortReceive                             build/stm32g4xx_hal_uart.o
HAL_UART_AbortReceiveCpltCallback                 build/stm32g4xx_hal_uart.o
HAL_UART_AbortReceive_IT                          build/stm32g4xx_hal_uart.o
HAL_UART_AbortTransmit                            build/stm32g4xx_hal_uart.o
HAL_UART_AbortTransmitCpltCallback                build/stm32g4xx_hal_uart.o
HAL_UART_AbortTransmit_IT                         build/stm32g4xx_hal_uart.o
HAL_UART_Abort_IT                                 build/stm32g4xx_hal_uart.o
HAL_UART_DMAPause                                 build/stm32g4xx_hal_uart.o
HAL_UART_DMAResume                                build/stm32g4xx_hal_uart.o
HAL_UART_DMAStop                                  build/stm32g4xx_hal_uart.o
HAL_UART_DeInit                                   build/stm32g4xx_hal_uart.o
HAL_UART_DisableReceiverTimeout                   build/stm32g4xx_hal_uart.o
HAL_UART_EnableReceiverTimeout                    build/stm32g4xx_hal_uart.o
HAL_UART_ErrorCallback                            build/stm32g4xx_hal_uart.o
HAL_UART_GetError                                 build/stm32g4xx_hal_uart.o
HAL_UART_GetState                                 build/stm32g4xx_hal_uart.o
HAL_UART_IRQHandler                               build/stm32g4xx_hal_uart.o
                                                  build/stm32g4xx_it.o
HAL_UART_Init                                     build/stm32g4xx_hal_uart.o
                                                  build/usart.o
HAL_UART_MspDeInit                                build/usart.o
HAL_UART_MspInit                                  build/usart.o
                                                  build/stm32g4xx_hal_uart_ex.o
HAL_UART_Receive                                  build/stm32g4xx_hal_uart.o
HAL_UART_Receive_DMA                              build/stm32g4xx_hal_uart.o
                                                  build/main.o
HAL_UART_Receive_IT                               build/stm32g4xx_hal_uart.o
                                                  build/main.o
HAL_UART_ReceiverTimeout_Config                   build/stm32g4xx_hal_uart.o
HAL_UART_RxCpltCallback                           build/main.o
HAL_UART_RxHalfCpltCallback                       build/stm32g4xx_hal_uart.o
HAL_UART_Transmit                                 build/stm32g4xx_hal_uart.o
                                                  build/uart_servo_lite.o
                                                  build/oled.o
HAL_UART_Transmit_DMA                             build/stm32g4xx_hal_uart.o
HAL_UART_Transmit_IT                              build/stm32g4xx_hal_uart.o
HAL_UART_TxCpltCallback                           build/stm32g4xx_hal_uart.o
HAL_UART_TxHalfCpltCallback                       build/stm32g4xx_hal_uart.o
HardFault_Handler                                 build/stm32g4xx_it.o
Hzk                                               build/oledfont.o
                                                  build/oled.o
I2C1_ER_IRQHandler                                build/startup_stm32g431xx.o
I2C1_EV_IRQHandler                                build/startup_stm32g431xx.o
I2C2_ER_IRQHandler                                build/startup_stm32g431xx.o
I2C2_EV_IRQHandler                                build/startup_stm32g431xx.o
I2C3_ER_IRQHandler                                build/startup_stm32g431xx.o
I2C3_EV_IRQHandler                                build/startup_stm32g431xx.o
JOHO_CalcChecksum                                 build/uart_servo_lite.o
JOHO_Package2RingBuffer                           build/uart_servo_lite.o
JOHO_PackageBuild_Send                            build/uart_servo_lite.o
KeyNum                                            build/main.o
                                                  build/oled.o
                                                  build/Servo_Move.o
Key_GetCnt                                        build/main.o
Key_GetCntFlag                                    build/main.o
                                                  build/My_KeyBoard.o
Key_Init                                          build/My_KeyBoard.o
                                                  build/main.o
Key_Scan                                          build/My_KeyBoard.o
                                                  build/oled.o
Key_Start                                         build/main.o
                                                  build/My_KeyBoard.o
LASER_MOVE_Menu                                   build/oled.o
                                                  build/main.o
LASER_RESET                                       build/oled.o
LASER_RESET_Menu                                  build/oled.o
                                                  build/main.o
LASER_RESET_Start                                 build/oled.o
                                                  build/Servo_Move.o
LOCATE_MODE_Menu                                  build/oled.o
                                                  build/main.o
LPTIM1_IRQHandler                                 build/startup_stm32g431xx.o
LPUART1_IRQHandler                                build/startup_stm32g431xx.o
Laser_XY                                          build/Servo_Move.o
Locate_angleX                                     build/Servo_Move.o
                                                  build/oled.o
Locate_angleY                                     build/Servo_Move.o
                                                  build/oled.o
MX_DMA_Init                                       build/dma.o
                                                  build/main.o
MX_GPIO_Init                                      build/gpio.o
                                                  build/main.o
MX_I2C1_Init                                      build/i2c.o
                                                  build/main.o
MX_TIM6_Init                                      build/tim.o
                                                  build/main.o
MX_TIM7_Init                                      build/tim.o
                                                  build/main.o
MX_USART1_UART_Init                               build/usart.o
                                                  build/main.o
MX_USART2_UART_Init                               build/usart.o
                                                  build/main.o
MX_USART3_UART_Init                               build/usart.o
                                                  build/main.o
MemManage_Handler                                 build/stm32g4xx_it.o
Monitor_Flag                                      build/main.o
                                                  build/oled.o
MoveStart_Flag                                    build/Servo_Move.o
MoveStop_Flag                                     build/Servo_Move.o
MovingReset_flag                                  build/main.o
                                                  build/oled.o
My_Angle                                          build/main.o
My_CoordinateData                                 build/main.o
                                                  build/Servo_Move.o
My_ResetXY                                        build/oled.o
NMI_Handler                                       build/stm32g4xx_it.o
OLED_Clear                                        build/oled.o
                                                  build/main.o
OLED_DisplayMode                                  build/oled.o
OLED_Display_Off                                  build/oled.o
OLED_Display_On                                   build/oled.o
OLED_DrawBMP                                      build/oled.o
OLED_HorizontalShift                              build/oled.o
OLED_Init                                         build/oled.o
                                                  build/main.o
OLED_IntensityControl                             build/oled.o
OLED_On                                           build/oled.o
OLED_Set_Pos                                      build/oled.o
OLED_ShowCHinese                                  build/oled.o
OLED_ShowChar                                     build/oled.o
OLED_ShowNum                                      build/oled.o
OLED_ShowString                                   build/oled.o
OLED_Showdecimal                                  build/oled.o
OLED_Some_HorizontalShift                         build/oled.o
OLED_VerticalAndHorizontalShift                   build/oled.o
OLED_WR_CMD                                       build/oled.o
OLED_WR_DATA                                      build/oled.o
On_or_off_RxFlag                                  build/Variable.o
                                                  build/Master_PC.o
                                                  build/main.o
PID_Mode                                          build/Variable.o
                                                  build/Servo_Move.o
PID_RxFlag                                        build/Variable.o
                                                  build/Master_PC.o
                                                  build/main.o
PID_index_1                                       build/Variable.o
                                                  build/Servo_Move.o
PID_index_2                                       build/Variable.o
                                                  build/Servo_Move.o
PVD_PVM_IRQHandler                                build/startup_stm32g431xx.o
PendSV_Handler                                    build/stm32g4xx_it.o
Penstring_Locate                                  build/Servo_Move.o
                                                  build/oled.o
Penstring_Moving_1                                build/Servo_Move.o
                                                  build/main.o
Pow_invert                                        build/Master_PC.o
RCC_IRQHandler                                    build/startup_stm32g431xx.o
RECTANGLE_MOVE_Menu                               build/oled.o
                                                  build/main.o
RNG_IRQHandler                                    build/startup_stm32g431xx.o
RTC_Alarm_IRQHandler                              build/startup_stm32g431xx.o
RTC_TAMP_LSECSS_IRQHandler                        build/startup_stm32g431xx.o
RTC_WKUP_IRQHandler                               build/startup_stm32g431xx.o
Rectangle_Send                                    build/main.o
                                                  build/oled.o
Rectangle_TargetAngle                             build/Servo_Move.o
RelaServo_Angle                                   build/Servo_Move.o
Reset_Handler                                     build/startup_stm32g431xx.o
RingBuffer_GetByteFree                            build/ring_buffer.o
RingBuffer_GetByteUsed                            build/ring_buffer.o
                                                  build/uart_servo_lite.o
RingBuffer_GetCapacity                            build/ring_buffer.o
RingBuffer_GetChecksum                            build/ring_buffer.o
                                                  build/uart_servo_lite.o
RingBuffer_GetValueByIndex                        build/ring_buffer.o
                                                  build/uart_servo_lite.o
RingBuffer_Init                                   build/ring_buffer.o
                                                  build/uart_servo_lite.o
                                                  build/usart.o
RingBuffer_IsEmpty                                build/ring_buffer.o
RingBuffer_IsFull                                 build/ring_buffer.o
RingBuffer_Pop                                    build/ring_buffer.o
                                                  build/uart_servo_lite.o
RingBuffer_Push                                   build/ring_buffer.o
                                                  build/main.o
RingBuffer_ReadByte                               build/ring_buffer.o
                                                  build/uart_servo_lite.o
RingBuffer_ReadByteArray                          build/ring_buffer.o
RingBuffer_ReadFloat                              build/ring_buffer.o
RingBuffer_ReadLong                               build/ring_buffer.o
RingBuffer_ReadShort                              build/ring_buffer.o
RingBuffer_ReadULong                              build/ring_buffer.o
RingBuffer_ReadUShort                             build/ring_buffer.o
RingBuffer_Reset                                  build/ring_buffer.o
RingBuffer_WriteByte                              build/ring_buffer.o
                                                  build/uart_servo_lite.o
RingBuffer_WriteByteArray                         build/ring_buffer.o
                                                  build/uart_servo_lite.o
RingBuffer_WriteFloat                             build/ring_buffer.o
RingBuffer_WriteLong                              build/ring_buffer.o
RingBuffer_WriteShort                             build/ring_buffer.o
RingBuffer_WriteULong                             build/ring_buffer.o
RingBuffer_WriteUShort                            build/ring_buffer.o
                                                  build/uart_servo_lite.o
RxData                                            build/main.o
RxPacket_Data_Handle                              build/Master_PC.o
                                                  build/Servo_Move.o
Rx_Byte                                           build/Variable.o
                                                  build/main.o
SAI1_IRQHandler                                   build/startup_stm32g431xx.o
SET_Torque                                        build/uart_servo_lite.o
SPI1_IRQHandler                                   build/startup_stm32g431xx.o
SPI2_IRQHandler                                   build/startup_stm32g431xx.o
SPI3_IRQHandler                                   build/startup_stm32g431xx.o
SVC_Handler                                       build/stm32g4xx_it.o
Servo_OriginAngle                                 build/Servo_Move.o
Servo_OriginXY                                    build/Servo_Move.o
Servo_Position_PID                                build/Servo_Move.o
Servo_SetZeroAngle                                build/Servo_Move.o
Servo_ZeroXY                                      build/Servo_Move.o
Set_LaserTracking                                 build/Servo_Move.o
                                                  build/main.o
Set_RectangleXY                                   build/Servo_Move.o
                                                  build/main.o
Set_rectangle_XY                                  build/Servo_Move.o
                                                  build/main.o
ShijueRecv_Buffer                                 build/main.o
                                                  build/Servo_Move.o
SysTick_Handler                                   build/stm32g4xx_it.o
SystemClock_Config                                build/main.o
SystemCoreClock                                   build/system_stm32g4xx.o
                                                  build/stm32g4xx_hal_pwr_ex.o
                                                  build/stm32g4xx_hal_rcc.o
                                                  build/stm32g4xx_hal.o
SystemCoreClockUpdate                             build/system_stm32g4xx.o
SystemInit                                        build/system_stm32g4xx.o
                                                  build/startup_stm32g431xx.o
TIM1_BRK_TIM15_IRQHandler                         build/startup_stm32g431xx.o
TIM1_CC_IRQHandler                                build/startup_stm32g431xx.o
TIM1_TRG_COM_TIM17_IRQHandler                     build/startup_stm32g431xx.o
TIM1_UP_TIM16_IRQHandler                          build/startup_stm32g431xx.o
TIM2_IRQHandler                                   build/startup_stm32g431xx.o
TIM3_IRQHandler                                   build/startup_stm32g431xx.o
TIM4_IRQHandler                                   build/startup_stm32g431xx.o
TIM6_DAC_IRQHandler                               build/stm32g4xx_it.o
TIM7_IRQHandler                                   build/stm32g4xx_it.o
TIM8_BRK_IRQHandler                               build/startup_stm32g431xx.o
TIM8_CC_IRQHandler                                build/startup_stm32g431xx.o
TIM8_TRG_COM_IRQHandler                           build/startup_stm32g431xx.o
TIM8_UP_IRQHandler                                build/startup_stm32g431xx.o
TIMEx_DMACommutationCplt                          build/stm32g4xx_hal_tim_ex.o
                                                  build/stm32g4xx_hal_tim.o
TIMEx_DMACommutationHalfCplt                      build/stm32g4xx_hal_tim_ex.o
                                                  build/stm32g4xx_hal_tim.o
TIM_Base_SetConfig                                build/stm32g4xx_hal_tim.o
                                                  build/stm32g4xx_hal_tim_ex.o
TIM_CCxChannelCmd                                 build/stm32g4xx_hal_tim.o
                                                  build/stm32g4xx_hal_tim_ex.o
TIM_DMACaptureCplt                                build/stm32g4xx_hal_tim.o
                                                  build/stm32g4xx_hal_tim_ex.o
TIM_DMACaptureHalfCplt                            build/stm32g4xx_hal_tim.o
                                                  build/stm32g4xx_hal_tim_ex.o
TIM_DMADelayPulseHalfCplt                         build/stm32g4xx_hal_tim.o
                                                  build/stm32g4xx_hal_tim_ex.o
TIM_DMAError                                      build/stm32g4xx_hal_tim.o
                                                  build/stm32g4xx_hal_tim_ex.o
TIM_ETR_SetConfig                                 build/stm32g4xx_hal_tim.o
                                                  build/stm32g4xx_hal_tim_ex.o
TIM_OC2_SetConfig                                 build/stm32g4xx_hal_tim.o
                                                  build/stm32g4xx_hal_tim_ex.o
TIM_TI1_SetConfig                                 build/stm32g4xx_hal_tim.o
                                                  build/stm32g4xx_hal_tim_ex.o
Test                                              build/main.o
TickCnt                                           build/Tick.o
                                                  build/main.o
Tick_CountdownBegin                               build/Tick.o
                                                  build/uart_servo_lite.o
Tick_CountdownCancel                              build/Tick.o
                                                  build/uart_servo_lite.o
Tick_CountdownIsTimeout                           build/Tick.o
                                                  build/uart_servo_lite.o
Tick_DelayMs                                      build/Tick.o
                                                  build/main.o
Tick_DelayUs                                      build/Tick.o
Tick_Wait                                         build/Tick.o
Tracking_CNT                                      build/Servo_Move.o
                                                  build/main.o
Tracking_Enable                                   build/Servo_Move.o
                                                  build/main.o
Tracking_Start_Flag                               build/Servo_Move.o
                                                  build/main.o
UART4_IRQHandler                                  build/startup_stm32g431xx.o
UARTPrescTable                                    build/stm32g4xx_hal_uart.o
UART_AdvFeatureConfig                             build/stm32g4xx_hal_uart.o
                                                  build/stm32g4xx_hal_uart_ex.o
UART_CheckIdleState                               build/stm32g4xx_hal_uart.o
                                                  build/stm32g4xx_hal_uart_ex.o
UART_SetConfig                                    build/stm32g4xx_hal_uart.o
                                                  build/stm32g4xx_hal_uart_ex.o
UART_Start_Receive_DMA                            build/stm32g4xx_hal_uart.o
                                                  build/stm32g4xx_hal_uart_ex.o
UART_Start_Receive_IT                             build/stm32g4xx_hal_uart.o
                                                  build/stm32g4xx_hal_uart_ex.o
UART_WaitOnFlagUntilTimeout                       build/stm32g4xx_hal_uart.o
                                                  build/stm32g4xx_hal_uart_ex.o
UCPD1_IRQHandler                                  build/startup_stm32g431xx.o
USART1_IRQHandler                                 build/stm32g4xx_it.o
USART2_IRQHandler                                 build/stm32g4xx_it.o
USART3_IRQHandler                                 build/stm32g4xx_it.o
USBWakeUp_IRQHandler                              build/startup_stm32g431xx.o
USB_HP_IRQHandler                                 build/startup_stm32g431xx.o
USB_LP_IRQHandler                                 build/startup_stm32g431xx.o
USL_GETPositionVal                                build/uart_servo_lite.o
                                                  build/oled.o
                                                  build/Servo_Move.o
USL_RecvPackage                                   build/uart_servo_lite.o
USL_Send_HEX                                      build/uart_servo_lite.o
USL_SetServoAngle                                 build/uart_servo_lite.o
                                                  build/oled.o
                                                  build/Servo_Move.o
                                                  build/main.o
US_Ping                                           build/uart_servo_lite.o
UsageFault_Handler                                build/stm32g4xx_it.o
Usart_SendAll                                     build/uart_servo_lite.o
WWDG_IRQHandler                                   build/startup_stm32g431xx.o
X_Pid                                             build/Servo_Move.o
Y_Pid                                             build/Servo_Move.o
_Min_Stack_Size                                   build/sysmem.o
__adddf3                                          d:/stm32_vscode_bag/gnu/bin/../lib/gcc/arm-none-eabi/10.3.1/thumb/v7e-m+fp/hard\libgcc.a(_arm_addsubdf3.o)
__aeabi_cdcmpeq                                   d:/stm32_vscode_bag/gnu/bin/../lib/gcc/arm-none-eabi/10.3.1/thumb/v7e-m+fp/hard\libgcc.a(_arm_cmpdf2.o)
__aeabi_cdcmple                                   d:/stm32_vscode_bag/gnu/bin/../lib/gcc/arm-none-eabi/10.3.1/thumb/v7e-m+fp/hard\libgcc.a(_arm_cmpdf2.o)
__aeabi_cdrcmple                                  d:/stm32_vscode_bag/gnu/bin/../lib/gcc/arm-none-eabi/10.3.1/thumb/v7e-m+fp/hard\libgcc.a(_arm_cmpdf2.o)
__aeabi_d2uiz                                     d:/stm32_vscode_bag/gnu/bin/../lib/gcc/arm-none-eabi/10.3.1/thumb/v7e-m+fp/hard\libgcc.a(_arm_fixunsdfsi.o)
                                                  build/oled.o
__aeabi_dadd                                      d:/stm32_vscode_bag/gnu/bin/../lib/gcc/arm-none-eabi/10.3.1/thumb/v7e-m+fp/hard\libgcc.a(_arm_addsubdf3.o)
__aeabi_dcmpeq                                    d:/stm32_vscode_bag/gnu/bin/../lib/gcc/arm-none-eabi/10.3.1/thumb/v7e-m+fp/hard\libgcc.a(_arm_cmpdf2.o)
__aeabi_dcmpge                                    d:/stm32_vscode_bag/gnu/bin/../lib/gcc/arm-none-eabi/10.3.1/thumb/v7e-m+fp/hard\libgcc.a(_arm_cmpdf2.o)
__aeabi_dcmpgt                                    d:/stm32_vscode_bag/gnu/bin/../lib/gcc/arm-none-eabi/10.3.1/thumb/v7e-m+fp/hard\libgcc.a(_arm_cmpdf2.o)
__aeabi_dcmple                                    d:/stm32_vscode_bag/gnu/bin/../lib/gcc/arm-none-eabi/10.3.1/thumb/v7e-m+fp/hard\libgcc.a(_arm_cmpdf2.o)
__aeabi_dcmplt                                    d:/stm32_vscode_bag/gnu/bin/../lib/gcc/arm-none-eabi/10.3.1/thumb/v7e-m+fp/hard\libgcc.a(_arm_cmpdf2.o)
                                                  build/Servo_Move.o
__aeabi_dmul                                      d:/stm32_vscode_bag/gnu/bin/../lib/gcc/arm-none-eabi/10.3.1/thumb/v7e-m+fp/hard\libgcc.a(_arm_muldf3.o)
                                                  build/oled.o
                                                  build/Servo_Move.o
__aeabi_drsub                                     d:/stm32_vscode_bag/gnu/bin/../lib/gcc/arm-none-eabi/10.3.1/thumb/v7e-m+fp/hard\libgcc.a(_arm_addsubdf3.o)
__aeabi_dsub                                      d:/stm32_vscode_bag/gnu/bin/../lib/gcc/arm-none-eabi/10.3.1/thumb/v7e-m+fp/hard\libgcc.a(_arm_addsubdf3.o)
__aeabi_f2d                                       d:/stm32_vscode_bag/gnu/bin/../lib/gcc/arm-none-eabi/10.3.1/thumb/v7e-m+fp/hard\libgcc.a(_arm_addsubdf3.o)
__aeabi_i2d                                       d:/stm32_vscode_bag/gnu/bin/../lib/gcc/arm-none-eabi/10.3.1/thumb/v7e-m+fp/hard\libgcc.a(_arm_addsubdf3.o)
                                                  build/oled.o
                                                  build/Servo_Move.o
__aeabi_idiv0                                     d:/stm32_vscode_bag/gnu/bin/../lib/gcc/arm-none-eabi/10.3.1/thumb/v7e-m+fp/hard\libgcc.a(_dvmd_tls.o)
__aeabi_l2d                                       d:/stm32_vscode_bag/gnu/bin/../lib/gcc/arm-none-eabi/10.3.1/thumb/v7e-m+fp/hard\libgcc.a(_arm_addsubdf3.o)
__aeabi_ldiv0                                     d:/stm32_vscode_bag/gnu/bin/../lib/gcc/arm-none-eabi/10.3.1/thumb/v7e-m+fp/hard\libgcc.a(_dvmd_tls.o)
                                                  d:/stm32_vscode_bag/gnu/bin/../lib/gcc/arm-none-eabi/10.3.1/thumb/v7e-m+fp/hard\libgcc.a(_aeabi_uldivmod.o)
__aeabi_ui2d                                      d:/stm32_vscode_bag/gnu/bin/../lib/gcc/arm-none-eabi/10.3.1/thumb/v7e-m+fp/hard\libgcc.a(_arm_addsubdf3.o)
__aeabi_ul2d                                      d:/stm32_vscode_bag/gnu/bin/../lib/gcc/arm-none-eabi/10.3.1/thumb/v7e-m+fp/hard\libgcc.a(_arm_addsubdf3.o)
__aeabi_uldivmod                                  d:/stm32_vscode_bag/gnu/bin/../lib/gcc/arm-none-eabi/10.3.1/thumb/v7e-m+fp/hard\libgcc.a(_aeabi_uldivmod.o)
                                                  build/stm32g4xx_hal_uart.o
__bss_end__                                       d:/stm32_vscode_bag/gnu/bin/../lib/gcc/arm-none-eabi/10.3.1/../../../../arm-none-eabi/lib/thumb/v7e-m+fp/hard/crt0.o
__bss_start__                                     d:/stm32_vscode_bag/gnu/bin/../lib/gcc/arm-none-eabi/10.3.1/../../../../arm-none-eabi/lib/thumb/v7e-m+fp/hard/crt0.o
__call_exitprocs                                  d:/stm32_vscode_bag/gnu/bin/../lib/gcc/arm-none-eabi/10.3.1/../../../../arm-none-eabi/lib/thumb/v7e-m+fp/hard\libc_nano.a(lib_a-exit.o)
__cmpdf2                                          d:/stm32_vscode_bag/gnu/bin/../lib/gcc/arm-none-eabi/10.3.1/thumb/v7e-m+fp/hard\libgcc.a(_arm_cmpdf2.o)
__deregister_frame_info                           d:/stm32_vscode_bag/gnu/bin/../lib/gcc/arm-none-eabi/10.3.1/thumb/v7e-m+fp/hard/crtbegin.o
__dso_handle                                      d:/stm32_vscode_bag/gnu/bin/../lib/gcc/arm-none-eabi/10.3.1/thumb/v7e-m+fp/hard/crtbegin.o
__env                                             build/syscalls.o
__eqdf2                                           d:/stm32_vscode_bag/gnu/bin/../lib/gcc/arm-none-eabi/10.3.1/thumb/v7e-m+fp/hard\libgcc.a(_arm_cmpdf2.o)
__errno                                           d:/stm32_vscode_bag/gnu/bin/../lib/gcc/arm-none-eabi/10.3.1/../../../../arm-none-eabi/lib/thumb/v7e-m+fp/hard\libc_nano.a(lib_a-errno.o)
                                                  build/syscalls.o
                                                  build/sysmem.o
__extendsfdf2                                     d:/stm32_vscode_bag/gnu/bin/../lib/gcc/arm-none-eabi/10.3.1/thumb/v7e-m+fp/hard\libgcc.a(_arm_addsubdf3.o)
__fixunsdfsi                                      d:/stm32_vscode_bag/gnu/bin/../lib/gcc/arm-none-eabi/10.3.1/thumb/v7e-m+fp/hard\libgcc.a(_arm_fixunsdfsi.o)
__floatdidf                                       d:/stm32_vscode_bag/gnu/bin/../lib/gcc/arm-none-eabi/10.3.1/thumb/v7e-m+fp/hard\libgcc.a(_arm_addsubdf3.o)
__floatsidf                                       d:/stm32_vscode_bag/gnu/bin/../lib/gcc/arm-none-eabi/10.3.1/thumb/v7e-m+fp/hard\libgcc.a(_arm_addsubdf3.o)
__floatundidf                                     d:/stm32_vscode_bag/gnu/bin/../lib/gcc/arm-none-eabi/10.3.1/thumb/v7e-m+fp/hard\libgcc.a(_arm_addsubdf3.o)
__floatunsidf                                     d:/stm32_vscode_bag/gnu/bin/../lib/gcc/arm-none-eabi/10.3.1/thumb/v7e-m+fp/hard\libgcc.a(_arm_addsubdf3.o)
__gedf2                                           d:/stm32_vscode_bag/gnu/bin/../lib/gcc/arm-none-eabi/10.3.1/thumb/v7e-m+fp/hard\libgcc.a(_arm_cmpdf2.o)
__gtdf2                                           d:/stm32_vscode_bag/gnu/bin/../lib/gcc/arm-none-eabi/10.3.1/thumb/v7e-m+fp/hard\libgcc.a(_arm_cmpdf2.o)
__init_array_end                                  d:/stm32_vscode_bag/gnu/bin/../lib/gcc/arm-none-eabi/10.3.1/../../../../arm-none-eabi/lib/thumb/v7e-m+fp/hard\libc_nano.a(lib_a-init.o)
__init_array_start                                d:/stm32_vscode_bag/gnu/bin/../lib/gcc/arm-none-eabi/10.3.1/../../../../arm-none-eabi/lib/thumb/v7e-m+fp/hard\libc_nano.a(lib_a-init.o)
__io_getchar                                      build/syscalls.o
__io_putchar                                      build/syscalls.o
__ledf2                                           d:/stm32_vscode_bag/gnu/bin/../lib/gcc/arm-none-eabi/10.3.1/thumb/v7e-m+fp/hard\libgcc.a(_arm_cmpdf2.o)
__libc_fini_array                                 d:/stm32_vscode_bag/gnu/bin/../lib/gcc/arm-none-eabi/10.3.1/../../../../arm-none-eabi/lib/thumb/v7e-m+fp/hard/crt0.o
__libc_init_array                                 d:/stm32_vscode_bag/gnu/bin/../lib/gcc/arm-none-eabi/10.3.1/../../../../arm-none-eabi/lib/thumb/v7e-m+fp/hard\libc_nano.a(lib_a-init.o)
                                                  build/startup_stm32g431xx.o
                                                  d:/stm32_vscode_bag/gnu/bin/../lib/gcc/arm-none-eabi/10.3.1/../../../../arm-none-eabi/lib/thumb/v7e-m+fp/hard/crt0.o
__lock___arc4random_mutex                         d:/stm32_vscode_bag/gnu/bin/../lib/gcc/arm-none-eabi/10.3.1/../../../../arm-none-eabi/lib/thumb/v7e-m+fp/hard\libc_nano.a(lib_a-lock.o)
__lock___at_quick_exit_mutex                      d:/stm32_vscode_bag/gnu/bin/../lib/gcc/arm-none-eabi/10.3.1/../../../../arm-none-eabi/lib/thumb/v7e-m+fp/hard\libc_nano.a(lib_a-lock.o)
__lock___atexit_recursive_mutex                   d:/stm32_vscode_bag/gnu/bin/../lib/gcc/arm-none-eabi/10.3.1/../../../../arm-none-eabi/lib/thumb/v7e-m+fp/hard\libc_nano.a(lib_a-lock.o)
__lock___dd_hash_mutex                            d:/stm32_vscode_bag/gnu/bin/../lib/gcc/arm-none-eabi/10.3.1/../../../../arm-none-eabi/lib/thumb/v7e-m+fp/hard\libc_nano.a(lib_a-lock.o)
__lock___env_recursive_mutex                      d:/stm32_vscode_bag/gnu/bin/../lib/gcc/arm-none-eabi/10.3.1/../../../../arm-none-eabi/lib/thumb/v7e-m+fp/hard\libc_nano.a(lib_a-lock.o)
__lock___malloc_recursive_mutex                   d:/stm32_vscode_bag/gnu/bin/../lib/gcc/arm-none-eabi/10.3.1/../../../../arm-none-eabi/lib/thumb/v7e-m+fp/hard\libc_nano.a(lib_a-lock.o)
                                                  d:/stm32_vscode_bag/gnu/bin/../lib/gcc/arm-none-eabi/10.3.1/../../../../arm-none-eabi/lib/thumb/v7e-m+fp/hard\libc_nano.a(lib_a-mlock.o)
__lock___sfp_recursive_mutex                      d:/stm32_vscode_bag/gnu/bin/../lib/gcc/arm-none-eabi/10.3.1/../../../../arm-none-eabi/lib/thumb/v7e-m+fp/hard\libc_nano.a(lib_a-lock.o)
__lock___sinit_recursive_mutex                    d:/stm32_vscode_bag/gnu/bin/../lib/gcc/arm-none-eabi/10.3.1/../../../../arm-none-eabi/lib/thumb/v7e-m+fp/hard\libc_nano.a(lib_a-lock.o)
__lock___tz_mutex                                 d:/stm32_vscode_bag/gnu/bin/../lib/gcc/arm-none-eabi/10.3.1/../../../../arm-none-eabi/lib/thumb/v7e-m+fp/hard\libc_nano.a(lib_a-lock.o)
__ltdf2                                           d:/stm32_vscode_bag/gnu/bin/../lib/gcc/arm-none-eabi/10.3.1/thumb/v7e-m+fp/hard\libgcc.a(_arm_cmpdf2.o)
__malloc_free_list                                d:/stm32_vscode_bag/gnu/bin/../lib/gcc/arm-none-eabi/10.3.1/../../../../arm-none-eabi/lib/thumb/v7e-m+fp/hard\libc_nano.a(lib_a-nano-mallocr.o)
                                                  d:/stm32_vscode_bag/gnu/bin/../lib/gcc/arm-none-eabi/10.3.1/../../../../arm-none-eabi/lib/thumb/v7e-m+fp/hard\libc_nano.a(lib_a-nano-freer.o)
__malloc_lock                                     d:/stm32_vscode_bag/gnu/bin/../lib/gcc/arm-none-eabi/10.3.1/../../../../arm-none-eabi/lib/thumb/v7e-m+fp/hard\libc_nano.a(lib_a-mlock.o)
                                                  d:/stm32_vscode_bag/gnu/bin/../lib/gcc/arm-none-eabi/10.3.1/../../../../arm-none-eabi/lib/thumb/v7e-m+fp/hard\libc_nano.a(lib_a-nano-mallocr.o)
                                                  d:/stm32_vscode_bag/gnu/bin/../lib/gcc/arm-none-eabi/10.3.1/../../../../arm-none-eabi/lib/thumb/v7e-m+fp/hard\libc_nano.a(lib_a-nano-freer.o)
__malloc_sbrk_start                               d:/stm32_vscode_bag/gnu/bin/../lib/gcc/arm-none-eabi/10.3.1/../../../../arm-none-eabi/lib/thumb/v7e-m+fp/hard\libc_nano.a(lib_a-nano-mallocr.o)
__malloc_unlock                                   d:/stm32_vscode_bag/gnu/bin/../lib/gcc/arm-none-eabi/10.3.1/../../../../arm-none-eabi/lib/thumb/v7e-m+fp/hard\libc_nano.a(lib_a-mlock.o)
                                                  d:/stm32_vscode_bag/gnu/bin/../lib/gcc/arm-none-eabi/10.3.1/../../../../arm-none-eabi/lib/thumb/v7e-m+fp/hard\libc_nano.a(lib_a-nano-mallocr.o)
                                                  d:/stm32_vscode_bag/gnu/bin/../lib/gcc/arm-none-eabi/10.3.1/../../../../arm-none-eabi/lib/thumb/v7e-m+fp/hard\libc_nano.a(lib_a-nano-freer.o)
__muldf3                                          d:/stm32_vscode_bag/gnu/bin/../lib/gcc/arm-none-eabi/10.3.1/thumb/v7e-m+fp/hard\libgcc.a(_arm_muldf3.o)
__nedf2                                           d:/stm32_vscode_bag/gnu/bin/../lib/gcc/arm-none-eabi/10.3.1/thumb/v7e-m+fp/hard\libgcc.a(_arm_cmpdf2.o)
__preinit_array_end                               d:/stm32_vscode_bag/gnu/bin/../lib/gcc/arm-none-eabi/10.3.1/../../../../arm-none-eabi/lib/thumb/v7e-m+fp/hard\libc_nano.a(lib_a-init.o)
__preinit_array_start                             d:/stm32_vscode_bag/gnu/bin/../lib/gcc/arm-none-eabi/10.3.1/../../../../arm-none-eabi/lib/thumb/v7e-m+fp/hard\libc_nano.a(lib_a-init.o)
__register_frame_info                             d:/stm32_vscode_bag/gnu/bin/../lib/gcc/arm-none-eabi/10.3.1/thumb/v7e-m+fp/hard/crtbegin.o
__retarget_lock_acquire                           d:/stm32_vscode_bag/gnu/bin/../lib/gcc/arm-none-eabi/10.3.1/../../../../arm-none-eabi/lib/thumb/v7e-m+fp/hard\libc_nano.a(lib_a-lock.o)
__retarget_lock_acquire_recursive                 d:/stm32_vscode_bag/gnu/bin/../lib/gcc/arm-none-eabi/10.3.1/../../../../arm-none-eabi/lib/thumb/v7e-m+fp/hard\libc_nano.a(lib_a-lock.o)
                                                  d:/stm32_vscode_bag/gnu/bin/../lib/gcc/arm-none-eabi/10.3.1/../../../../arm-none-eabi/lib/thumb/v7e-m+fp/hard\libc_nano.a(lib_a-mlock.o)
__retarget_lock_close                             d:/stm32_vscode_bag/gnu/bin/../lib/gcc/arm-none-eabi/10.3.1/../../../../arm-none-eabi/lib/thumb/v7e-m+fp/hard\libc_nano.a(lib_a-lock.o)
__retarget_lock_close_recursive                   d:/stm32_vscode_bag/gnu/bin/../lib/gcc/arm-none-eabi/10.3.1/../../../../arm-none-eabi/lib/thumb/v7e-m+fp/hard\libc_nano.a(lib_a-lock.o)
__retarget_lock_init                              d:/stm32_vscode_bag/gnu/bin/../lib/gcc/arm-none-eabi/10.3.1/../../../../arm-none-eabi/lib/thumb/v7e-m+fp/hard\libc_nano.a(lib_a-lock.o)
__retarget_lock_init_recursive                    d:/stm32_vscode_bag/gnu/bin/../lib/gcc/arm-none-eabi/10.3.1/../../../../arm-none-eabi/lib/thumb/v7e-m+fp/hard\libc_nano.a(lib_a-lock.o)
__retarget_lock_release                           d:/stm32_vscode_bag/gnu/bin/../lib/gcc/arm-none-eabi/10.3.1/../../../../arm-none-eabi/lib/thumb/v7e-m+fp/hard\libc_nano.a(lib_a-lock.o)
__retarget_lock_release_recursive                 d:/stm32_vscode_bag/gnu/bin/../lib/gcc/arm-none-eabi/10.3.1/../../../../arm-none-eabi/lib/thumb/v7e-m+fp/hard\libc_nano.a(lib_a-lock.o)
                                                  d:/stm32_vscode_bag/gnu/bin/../lib/gcc/arm-none-eabi/10.3.1/../../../../arm-none-eabi/lib/thumb/v7e-m+fp/hard\libc_nano.a(lib_a-mlock.o)
__retarget_lock_try_acquire                       d:/stm32_vscode_bag/gnu/bin/../lib/gcc/arm-none-eabi/10.3.1/../../../../arm-none-eabi/lib/thumb/v7e-m+fp/hard\libc_nano.a(lib_a-lock.o)
__retarget_lock_try_acquire_recursive             d:/stm32_vscode_bag/gnu/bin/../lib/gcc/arm-none-eabi/10.3.1/../../../../arm-none-eabi/lib/thumb/v7e-m+fp/hard\libc_nano.a(lib_a-lock.o)
__sf_fake_stderr                                  d:/stm32_vscode_bag/gnu/bin/../lib/gcc/arm-none-eabi/10.3.1/../../../../arm-none-eabi/lib/thumb/v7e-m+fp/hard\libc_nano.a(lib_a-impure.o)
__sf_fake_stdin                                   d:/stm32_vscode_bag/gnu/bin/../lib/gcc/arm-none-eabi/10.3.1/../../../../arm-none-eabi/lib/thumb/v7e-m+fp/hard\libc_nano.a(lib_a-impure.o)
__sf_fake_stdout                                  d:/stm32_vscode_bag/gnu/bin/../lib/gcc/arm-none-eabi/10.3.1/../../../../arm-none-eabi/lib/thumb/v7e-m+fp/hard\libc_nano.a(lib_a-impure.o)
__ssprint_r                                       d:/stm32_vscode_bag/gnu/bin/../lib/gcc/arm-none-eabi/10.3.1/../../../../arm-none-eabi/lib/thumb/v7e-m+fp/hard\libc_nano.a(lib_a-nano-svfprintf.o)
__ssputs_r                                        d:/stm32_vscode_bag/gnu/bin/../lib/gcc/arm-none-eabi/10.3.1/../../../../arm-none-eabi/lib/thumb/v7e-m+fp/hard\libc_nano.a(lib_a-nano-svfprintf.o)
__stack                                           d:/stm32_vscode_bag/gnu/bin/../lib/gcc/arm-none-eabi/10.3.1/../../../../arm-none-eabi/lib/thumb/v7e-m+fp/hard/crt0.o
__subdf3                                          d:/stm32_vscode_bag/gnu/bin/../lib/gcc/arm-none-eabi/10.3.1/thumb/v7e-m+fp/hard\libgcc.a(_arm_addsubdf3.o)
__udivmoddi4                                      d:/stm32_vscode_bag/gnu/bin/../lib/gcc/arm-none-eabi/10.3.1/thumb/v7e-m+fp/hard\libgcc.a(_udivmoddi4.o)
                                                  d:/stm32_vscode_bag/gnu/bin/../lib/gcc/arm-none-eabi/10.3.1/thumb/v7e-m+fp/hard\libgcc.a(_aeabi_uldivmod.o)
_close                                            build/syscalls.o
_ebss                                             build/startup_stm32g431xx.o
_edata                                            build/startup_stm32g431xx.o
_end                                              build/sysmem.o
_estack                                           build/startup_stm32g431xx.o
                                                  build/sysmem.o
_execve                                           build/syscalls.o
_exit                                             build/syscalls.o
                                                  d:/stm32_vscode_bag/gnu/bin/../lib/gcc/arm-none-eabi/10.3.1/../../../../arm-none-eabi/lib/thumb/v7e-m+fp/hard\libc_nano.a(lib_a-exit.o)
_fini                                             d:/stm32_vscode_bag/gnu/bin/../lib/gcc/arm-none-eabi/10.3.1/thumb/v7e-m+fp/hard/crti.o
_fork                                             build/syscalls.o
_free_r                                           d:/stm32_vscode_bag/gnu/bin/../lib/gcc/arm-none-eabi/10.3.1/../../../../arm-none-eabi/lib/thumb/v7e-m+fp/hard\libc_nano.a(lib_a-nano-freer.o)
                                                  d:/stm32_vscode_bag/gnu/bin/../lib/gcc/arm-none-eabi/10.3.1/../../../../arm-none-eabi/lib/thumb/v7e-m+fp/hard\libc_nano.a(lib_a-reent.o)
                                                  d:/stm32_vscode_bag/gnu/bin/../lib/gcc/arm-none-eabi/10.3.1/../../../../arm-none-eabi/lib/thumb/v7e-m+fp/hard\libc_nano.a(lib_a-nano-reallocr.o)
                                                  d:/stm32_vscode_bag/gnu/bin/../lib/gcc/arm-none-eabi/10.3.1/../../../../arm-none-eabi/lib/thumb/v7e-m+fp/hard\libc_nano.a(lib_a-nano-svfprintf.o)
_fstat                                            build/syscalls.o
_getpid                                           build/syscalls.o
_global_impure_ptr                                d:/stm32_vscode_bag/gnu/bin/../lib/gcc/arm-none-eabi/10.3.1/../../../../arm-none-eabi/lib/thumb/v7e-m+fp/hard\libc_nano.a(lib_a-impure.o)
                                                  d:/stm32_vscode_bag/gnu/bin/../lib/gcc/arm-none-eabi/10.3.1/../../../../arm-none-eabi/lib/thumb/v7e-m+fp/hard\libc_nano.a(lib_a-exit.o)
_impure_ptr                                       d:/stm32_vscode_bag/gnu/bin/../lib/gcc/arm-none-eabi/10.3.1/../../../../arm-none-eabi/lib/thumb/v7e-m+fp/hard\libc_nano.a(lib_a-impure.o)
                                                  d:/stm32_vscode_bag/gnu/bin/../lib/gcc/arm-none-eabi/10.3.1/../../../../arm-none-eabi/lib/thumb/v7e-m+fp/hard\libc_nano.a(lib_a-reent.o)
                                                  d:/stm32_vscode_bag/gnu/bin/../lib/gcc/arm-none-eabi/10.3.1/../../../../arm-none-eabi/lib/thumb/v7e-m+fp/hard\libc_nano.a(lib_a-sprintf.o)
                                                  d:/stm32_vscode_bag/gnu/bin/../lib/gcc/arm-none-eabi/10.3.1/../../../../arm-none-eabi/lib/thumb/v7e-m+fp/hard\libc_nano.a(lib_a-errno.o)
_init                                             d:/stm32_vscode_bag/gnu/bin/../lib/gcc/arm-none-eabi/10.3.1/thumb/v7e-m+fp/hard/crti.o
                                                  d:/stm32_vscode_bag/gnu/bin/../lib/gcc/arm-none-eabi/10.3.1/../../../../arm-none-eabi/lib/thumb/v7e-m+fp/hard\libc_nano.a(lib_a-init.o)
_isatty                                           build/syscalls.o
_kill                                             build/syscalls.o
_link                                             build/syscalls.o
_lseek                                            build/syscalls.o
_mainCRTStartup                                   d:/stm32_vscode_bag/gnu/bin/../lib/gcc/arm-none-eabi/10.3.1/../../../../arm-none-eabi/lib/thumb/v7e-m+fp/hard/crt0.o
_malloc_r                                         d:/stm32_vscode_bag/gnu/bin/../lib/gcc/arm-none-eabi/10.3.1/../../../../arm-none-eabi/lib/thumb/v7e-m+fp/hard\libc_nano.a(lib_a-nano-mallocr.o)
                                                  d:/stm32_vscode_bag/gnu/bin/../lib/gcc/arm-none-eabi/10.3.1/../../../../arm-none-eabi/lib/thumb/v7e-m+fp/hard\libc_nano.a(lib_a-nano-reallocr.o)
                                                  d:/stm32_vscode_bag/gnu/bin/../lib/gcc/arm-none-eabi/10.3.1/../../../../arm-none-eabi/lib/thumb/v7e-m+fp/hard\libc_nano.a(lib_a-nano-svfprintf.o)
_malloc_usable_size_r                             d:/stm32_vscode_bag/gnu/bin/../lib/gcc/arm-none-eabi/10.3.1/../../../../arm-none-eabi/lib/thumb/v7e-m+fp/hard\libc_nano.a(lib_a-nano-msizer.o)
                                                  d:/stm32_vscode_bag/gnu/bin/../lib/gcc/arm-none-eabi/10.3.1/../../../../arm-none-eabi/lib/thumb/v7e-m+fp/hard\libc_nano.a(lib_a-nano-reallocr.o)
_open                                             build/syscalls.o
_printf_common                                    d:/stm32_vscode_bag/gnu/bin/../lib/gcc/arm-none-eabi/10.3.1/../../../../arm-none-eabi/lib/thumb/v7e-m+fp/hard\libc_nano.a(lib_a-nano-vfprintf_i.o)
_printf_float                                     d:/stm32_vscode_bag/gnu/bin/../lib/gcc/arm-none-eabi/10.3.1/../../../../arm-none-eabi/lib/thumb/v7e-m+fp/hard\libc_nano.a(lib_a-nano-svfprintf.o)
_printf_i                                         d:/stm32_vscode_bag/gnu/bin/../lib/gcc/arm-none-eabi/10.3.1/../../../../arm-none-eabi/lib/thumb/v7e-m+fp/hard\libc_nano.a(lib_a-nano-vfprintf_i.o)
                                                  d:/stm32_vscode_bag/gnu/bin/../lib/gcc/arm-none-eabi/10.3.1/../../../../arm-none-eabi/lib/thumb/v7e-m+fp/hard\libc_nano.a(lib_a-nano-svfprintf.o)
_read                                             build/syscalls.o
_realloc_r                                        d:/stm32_vscode_bag/gnu/bin/../lib/gcc/arm-none-eabi/10.3.1/../../../../arm-none-eabi/lib/thumb/v7e-m+fp/hard\libc_nano.a(lib_a-nano-reallocr.o)
                                                  d:/stm32_vscode_bag/gnu/bin/../lib/gcc/arm-none-eabi/10.3.1/../../../../arm-none-eabi/lib/thumb/v7e-m+fp/hard\libc_nano.a(lib_a-nano-svfprintf.o)
_reclaim_reent                                    d:/stm32_vscode_bag/gnu/bin/../lib/gcc/arm-none-eabi/10.3.1/../../../../arm-none-eabi/lib/thumb/v7e-m+fp/hard\libc_nano.a(lib_a-reent.o)
_sbrk                                             build/sysmem.o
                                                  d:/stm32_vscode_bag/gnu/bin/../lib/gcc/arm-none-eabi/10.3.1/../../../../arm-none-eabi/lib/thumb/v7e-m+fp/hard\libc_nano.a(lib_a-sbrkr.o)
_sbrk_r                                           d:/stm32_vscode_bag/gnu/bin/../lib/gcc/arm-none-eabi/10.3.1/../../../../arm-none-eabi/lib/thumb/v7e-m+fp/hard\libc_nano.a(lib_a-sbrkr.o)
                                                  d:/stm32_vscode_bag/gnu/bin/../lib/gcc/arm-none-eabi/10.3.1/../../../../arm-none-eabi/lib/thumb/v7e-m+fp/hard\libc_nano.a(lib_a-nano-mallocr.o)
_sbss                                             build/startup_stm32g431xx.o
_sdata                                            build/startup_stm32g431xx.o
_sidata                                           build/startup_stm32g431xx.o
_siprintf_r                                       d:/stm32_vscode_bag/gnu/bin/../lib/gcc/arm-none-eabi/10.3.1/../../../../arm-none-eabi/lib/thumb/v7e-m+fp/hard\libc_nano.a(lib_a-sprintf.o)
_sprintf_r                                        d:/stm32_vscode_bag/gnu/bin/../lib/gcc/arm-none-eabi/10.3.1/../../../../arm-none-eabi/lib/thumb/v7e-m+fp/hard\libc_nano.a(lib_a-sprintf.o)
_stack_init                                       d:/stm32_vscode_bag/gnu/bin/../lib/gcc/arm-none-eabi/10.3.1/../../../../arm-none-eabi/lib/thumb/v7e-m+fp/hard/crt0.o
_start                                            d:/stm32_vscode_bag/gnu/bin/../lib/gcc/arm-none-eabi/10.3.1/../../../../arm-none-eabi/lib/thumb/v7e-m+fp/hard/crt0.o
_stat                                             build/syscalls.o
_svfiprintf_r                                     d:/stm32_vscode_bag/gnu/bin/../lib/gcc/arm-none-eabi/10.3.1/../../../../arm-none-eabi/lib/thumb/v7e-m+fp/hard\libc_nano.a(lib_a-nano-svfprintf.o)
_svfprintf_r                                      d:/stm32_vscode_bag/gnu/bin/../lib/gcc/arm-none-eabi/10.3.1/../../../../arm-none-eabi/lib/thumb/v7e-m+fp/hard\libc_nano.a(lib_a-nano-svfprintf.o)
                                                  d:/stm32_vscode_bag/gnu/bin/../lib/gcc/arm-none-eabi/10.3.1/../../../../arm-none-eabi/lib/thumb/v7e-m+fp/hard\libc_nano.a(lib_a-sprintf.o)
_times                                            build/syscalls.o
_unlink                                           build/syscalls.o
_wait                                             build/syscalls.o
_write                                            build/syscalls.o
atexit                                            d:/stm32_vscode_bag/gnu/bin/../lib/gcc/arm-none-eabi/10.3.1/../../../../arm-none-eabi/lib/thumb/v7e-m+fp/hard/crt0.o
cleanup_glue                                      d:/stm32_vscode_bag/gnu/bin/../lib/gcc/arm-none-eabi/10.3.1/../../../../arm-none-eabi/lib/thumb/v7e-m+fp/hard\libc_nano.a(lib_a-reent.o)
environ                                           build/syscalls.o
errno                                             d:/stm32_vscode_bag/gnu/bin/../lib/gcc/arm-none-eabi/10.3.1/../../../../arm-none-eabi/lib/thumb/v7e-m+fp/hard\libc_nano.a(lib_a-reent.o)
                                                  d:/stm32_vscode_bag/gnu/bin/../lib/gcc/arm-none-eabi/10.3.1/../../../../arm-none-eabi/lib/thumb/v7e-m+fp/hard\libc_nano.a(lib_a-sbrkr.o)
exit                                              d:/stm32_vscode_bag/gnu/bin/../lib/gcc/arm-none-eabi/10.3.1/../../../../arm-none-eabi/lib/thumb/v7e-m+fp/hard\libc_nano.a(lib_a-exit.o)
                                                  d:/stm32_vscode_bag/gnu/bin/../lib/gcc/arm-none-eabi/10.3.1/../../../../arm-none-eabi/lib/thumb/v7e-m+fp/hard/crt0.o
g_pfnVectors                                      build/startup_stm32g431xx.o
hardware_init_hook                                d:/stm32_vscode_bag/gnu/bin/../lib/gcc/arm-none-eabi/10.3.1/../../../../arm-none-eabi/lib/thumb/v7e-m+fp/hard/crt0.o
hdma_usart3_rx                                    build/usart.o
                                                  build/stm32g4xx_it.o
hi2c1                                             build/i2c.o
                                                  build/oled.o
htim6                                             build/tim.o
                                                  build/Tick.o
                                                  build/stm32g4xx_it.o
htim7                                             build/tim.o
                                                  build/My_KeyBoard.o
                                                  build/stm32g4xx_it.o
huart1                                            build/usart.o
                                                  build/stm32g4xx_it.o
                                                  build/main.o
huart2                                            build/usart.o
                                                  build/stm32g4xx_it.o
                                                  build/main.o
huart3                                            build/usart.o
                                                  build/oled.o
                                                  build/stm32g4xx_it.o
                                                  build/main.o
id_Flag_1                                         build/Variable.o
                                                  build/Master_PC.o
                                                  build/main.o
id_Flag_2                                         build/Variable.o
                                                  build/Master_PC.o
                                                  build/main.o
initialise_monitor_handles                        build/syscalls.o
limit_SetAngle                                    build/Servo_Move.o
main                                              build/main.o
                                                  build/startup_stm32g431xx.o
                                                  d:/stm32_vscode_bag/gnu/bin/../lib/gcc/arm-none-eabi/10.3.1/../../../../arm-none-eabi/lib/thumb/v7e-m+fp/hard/crt0.o
memchr                                            d:/stm32_vscode_bag/gnu/bin/../lib/gcc/arm-none-eabi/10.3.1/../../../../arm-none-eabi/lib/thumb/v7e-m+fp/hard\libc_nano.a(lib_a-memchr.o)
                                                  d:/stm32_vscode_bag/gnu/bin/../lib/gcc/arm-none-eabi/10.3.1/../../../../arm-none-eabi/lib/thumb/v7e-m+fp/hard\libc_nano.a(lib_a-nano-vfprintf_i.o)
                                                  d:/stm32_vscode_bag/gnu/bin/../lib/gcc/arm-none-eabi/10.3.1/../../../../arm-none-eabi/lib/thumb/v7e-m+fp/hard\libc_nano.a(lib_a-nano-svfprintf.o)
memcpy                                            d:/stm32_vscode_bag/gnu/bin/../lib/gcc/arm-none-eabi/10.3.1/../../../../arm-none-eabi/lib/thumb/v7e-m+fp/hard\libc_nano.a(lib_a-memcpy-stub.o)
                                                  d:/stm32_vscode_bag/gnu/bin/../lib/gcc/arm-none-eabi/10.3.1/../../../../arm-none-eabi/lib/thumb/v7e-m+fp/hard\libc_nano.a(lib_a-nano-reallocr.o)
                                                  d:/stm32_vscode_bag/gnu/bin/../lib/gcc/arm-none-eabi/10.3.1/../../../../arm-none-eabi/lib/thumb/v7e-m+fp/hard\libc_nano.a(lib_a-nano-svfprintf.o)
memmove                                           d:/stm32_vscode_bag/gnu/bin/../lib/gcc/arm-none-eabi/10.3.1/../../../../arm-none-eabi/lib/thumb/v7e-m+fp/hard\libc_nano.a(lib_a-memmove.o)
                                                  d:/stm32_vscode_bag/gnu/bin/../lib/gcc/arm-none-eabi/10.3.1/../../../../arm-none-eabi/lib/thumb/v7e-m+fp/hard\libc_nano.a(lib_a-nano-svfprintf.o)
memset                                            d:/stm32_vscode_bag/gnu/bin/../lib/gcc/arm-none-eabi/10.3.1/../../../../arm-none-eabi/lib/thumb/v7e-m+fp/hard\libc_nano.a(lib_a-memset.o)
                                                  build/usart.o
                                                  build/i2c.o
                                                  build/main.o
                                                  d:/stm32_vscode_bag/gnu/bin/../lib/gcc/arm-none-eabi/10.3.1/../../../../arm-none-eabi/lib/thumb/v7e-m+fp/hard/crt0.o
menu1                                             build/oled.o
                                                  build/main.o
menu2                                             build/oled.o
                                                  build/main.o
menu3                                             build/oled.o
                                                  build/main.o
menu4                                             build/oled.o
                                                  build/main.o
oled_pow                                          build/oled.o
pFlash                                            build/stm32g4xx_hal_flash.o
                                                  build/stm32g4xx_hal_flash_ex.o
pRxPacket                                         build/main.o
point_1                                           build/oled.o
point_2                                           build/oled.o
point_3                                           build/oled.o
point_4                                           build/oled.o
rectangle_XY                                      build/Servo_Move.o
                                                  build/oled.o
                                                  build/main.o
servoUsart                                        build/uart_servo_lite.o
                                                  build/oled.o
                                                  build/Servo_Move.o
                                                  build/main.o
shijue_RxData                                     build/main.o
sid_1                                             build/main.o
                                                  build/oled.o
                                                  build/Servo_Move.o
sid_2                                             build/main.o
                                                  build/oled.o
                                                  build/Servo_Move.o
siprintf                                          d:/stm32_vscode_bag/gnu/bin/../lib/gcc/arm-none-eabi/10.3.1/../../../../arm-none-eabi/lib/thumb/v7e-m+fp/hard\libc_nano.a(lib_a-sprintf.o)
software_init_hook                                d:/stm32_vscode_bag/gnu/bin/../lib/gcc/arm-none-eabi/10.3.1/../../../../arm-none-eabi/lib/thumb/v7e-m+fp/hard/crt0.o
sprintf                                           d:/stm32_vscode_bag/gnu/bin/../lib/gcc/arm-none-eabi/10.3.1/../../../../arm-none-eabi/lib/thumb/v7e-m+fp/hard\libc_nano.a(lib_a-sprintf.o)
                                                  build/oled.o
statusCode                                        build/main.o
usart1                                            build/uart_servo_lite.o
                                                  build/usart.o
                                                  build/main.o
usart1RecvBuf                                     build/uart_servo_lite.o
                                                  build/usart.o
usart1RecvRingBuf                                 build/uart_servo_lite.o
                                                  build/usart.o
usart1SendBuf                                     build/uart_servo_lite.o
                                                  build/usart.o
usart1SendRingBuf                                 build/uart_servo_lite.o
                                                  build/usart.o
uwTick                                            build/stm32g4xx_hal.o
uwTickFreq                                        build/stm32g4xx_hal.o
uwTickPrio                                        build/stm32g4xx_hal.o
                                                  build/stm32g4xx_hal_rcc.o
